
cassetti.elf:     file format elf32-littlearm

Sections:
Idx Name          Size      VMA       LMA       File off  Algn
  0 .text         00006e08  00000000  00000000  00010000  2**2
                  CONTENTS, ALLOC, LOAD, READONLY, CODE
  1 .relocate     000000b4  20000000  00006e08  00020000  2**2
                  CONTENTS, ALLOC, LOAD, DATA
  2 .lpram        00000000  30000000  30000000  000200b4  2**0
                  CONTENTS
  3 .bss          00003fb8  200000b4  00006ebc  000200b4  2**2
                  ALLOC
  4 .stack        00002004  2000406c  0000ae74  000200b4  2**0
                  ALLOC
  5 .ARM.attributes 00000028  00000000  00000000  000200b4  2**0
                  CONTENTS, READONLY
  6 .comment      00000059  00000000  00000000  000200dc  2**0
                  CONTENTS, READONLY
  7 .debug_info   00043c4d  00000000  00000000  00020135  2**0
                  CONTENTS, READONLY, DEBUGGING
  8 .debug_abbrev 000061c8  00000000  00000000  00063d82  2**0
                  CONTENTS, READONLY, DEBUGGING
  9 .debug_loc    0000a79e  00000000  00000000  00069f4a  2**0
                  CONTENTS, READONLY, DEBUGGING
 10 .debug_aranges 00000b10  00000000  00000000  000746e8  2**0
                  CONTENTS, READONLY, DEBUGGING
 11 .debug_ranges 00000cc8  00000000  00000000  000751f8  2**0
                  CONTENTS, READONLY, DEBUGGING
 12 .debug_macro  00022760  00000000  00000000  00075ec0  2**0
                  CONTENTS, READONLY, DEBUGGING
 13 .debug_line   000154a6  00000000  00000000  00098620  2**0
                  CONTENTS, READONLY, DEBUGGING
 14 .debug_str    000a5c73  00000000  00000000  000adac6  2**0
                  CONTENTS, READONLY, DEBUGGING
 15 .debug_frame  00002284  00000000  00000000  0015373c  2**2
                  CONTENTS, READONLY, DEBUGGING

Disassembly of section .text:

00000000 <exception_table>:
       0:	70 60 00 20 f9 39 00 00 f5 39 00 00 f5 39 00 00     p`. .9...9...9..
	...
      2c:	5d 10 00 00 00 00 00 00 00 00 00 00 c1 10 00 00     ]...............
      3c:	05 11 00 00 f5 39 00 00 f5 39 00 00 f5 39 00 00     .....9...9...9..
      4c:	f5 39 00 00 f5 39 00 00 f5 39 00 00 f5 39 00 00     .9...9...9...9..
      5c:	f5 39 00 00 e9 2c 00 00 f9 2c 00 00 09 2d 00 00     .9...,...,...-..
      6c:	19 2d 00 00 29 2d 00 00 39 2d 00 00 f5 39 00 00     .-..)-..9-...9..
      7c:	f5 39 00 00 f5 39 00 00 f5 39 00 00 f5 39 00 00     .9...9...9...9..
      8c:	f5 39 00 00 f5 39 00 00 f5 39 00 00 a1 32 00 00     .9...9...9...2..
      9c:	f5 39 00 00 f5 39 00 00 f5 39 00 00 f5 39 00 00     .9...9...9...9..
      ac:	f5 39 00 00 00 00 00 00                             .9......

000000b4 <__do_global_dtors_aux>:
      b4:	b510      	push	{r4, lr}
      b6:	4c06      	ldr	r4, [pc, #24]	; (d0 <__do_global_dtors_aux+0x1c>)
      b8:	7823      	ldrb	r3, [r4, #0]
      ba:	2b00      	cmp	r3, #0
      bc:	d107      	bne.n	ce <__do_global_dtors_aux+0x1a>
      be:	4b05      	ldr	r3, [pc, #20]	; (d4 <__do_global_dtors_aux+0x20>)
      c0:	2b00      	cmp	r3, #0
      c2:	d002      	beq.n	ca <__do_global_dtors_aux+0x16>
      c4:	4804      	ldr	r0, [pc, #16]	; (d8 <__do_global_dtors_aux+0x24>)
      c6:	e000      	b.n	ca <__do_global_dtors_aux+0x16>
      c8:	bf00      	nop
      ca:	2301      	movs	r3, #1
      cc:	7023      	strb	r3, [r4, #0]
      ce:	bd10      	pop	{r4, pc}
      d0:	200000b4 	.word	0x200000b4
      d4:	00000000 	.word	0x00000000
      d8:	00006e08 	.word	0x00006e08

000000dc <frame_dummy>:
      dc:	4b08      	ldr	r3, [pc, #32]	; (100 <frame_dummy+0x24>)
      de:	b510      	push	{r4, lr}
      e0:	2b00      	cmp	r3, #0
      e2:	d003      	beq.n	ec <frame_dummy+0x10>
      e4:	4907      	ldr	r1, [pc, #28]	; (104 <frame_dummy+0x28>)
      e6:	4808      	ldr	r0, [pc, #32]	; (108 <frame_dummy+0x2c>)
      e8:	e000      	b.n	ec <frame_dummy+0x10>
      ea:	bf00      	nop
      ec:	4807      	ldr	r0, [pc, #28]	; (10c <frame_dummy+0x30>)
      ee:	6803      	ldr	r3, [r0, #0]
      f0:	2b00      	cmp	r3, #0
      f2:	d100      	bne.n	f6 <frame_dummy+0x1a>
      f4:	bd10      	pop	{r4, pc}
      f6:	4b06      	ldr	r3, [pc, #24]	; (110 <frame_dummy+0x34>)
      f8:	2b00      	cmp	r3, #0
      fa:	d0fb      	beq.n	f4 <frame_dummy+0x18>
      fc:	4798      	blx	r3
      fe:	e7f9      	b.n	f4 <frame_dummy+0x18>
     100:	00000000 	.word	0x00000000
     104:	200000b8 	.word	0x200000b8
     108:	00006e08 	.word	0x00006e08
     10c:	00006e08 	.word	0x00006e08
     110:	00000000 	.word	0x00000000

00000114 <lis302dl_write_configuration>:
	0x88,
	0x08,
};


void lis302dl_write_configuration(void) {
     114:	b530      	push	{r4, r5, lr}
     116:	b085      	sub	sp, #20
	

	struct i2c_master_packet packet = {
     118:	aa01      	add	r2, sp, #4
     11a:	4b06      	ldr	r3, [pc, #24]	; (134 <lis302dl_write_configuration+0x20>)
     11c:	cb13      	ldmia	r3!, {r0, r1, r4}
     11e:	c213      	stmia	r2!, {r0, r1, r4}
		.ten_bit_address = false,
		.high_speed      = false,
		.hs_master_code  = 0x0,
	};

	while (i2c_master_write_packet_wait(&i2c_master_instance, &packet) != STATUS_OK);
     120:	4d05      	ldr	r5, [pc, #20]	; (138 <lis302dl_write_configuration+0x24>)
     122:	4c06      	ldr	r4, [pc, #24]	; (13c <lis302dl_write_configuration+0x28>)
     124:	a901      	add	r1, sp, #4
     126:	0028      	movs	r0, r5
     128:	47a0      	blx	r4
     12a:	2800      	cmp	r0, #0
     12c:	d1fa      	bne.n	124 <lis302dl_write_configuration+0x10>

	return;
}
     12e:	b005      	add	sp, #20
     130:	bd30      	pop	{r4, r5, pc}
     132:	46c0      	nop			; (mov r8, r8)
     134:	00006b04 	.word	0x00006b04
     138:	20003f80 	.word	0x20003f80
     13c:	000008a5 	.word	0x000008a5

00000140 <lis302dl_read_byte>:

	return;
}


uint8_t lis302dl_read_byte(uint8_t reg_address) {
     140:	b530      	push	{r4, r5, lr}
     142:	b08b      	sub	sp, #44	; 0x2c
     144:	466b      	mov	r3, sp
     146:	1dda      	adds	r2, r3, #7
     148:	71d8      	strb	r0, [r3, #7]

	uint8_t data;

	struct i2c_master_packet packet1 = {
     14a:	ab06      	add	r3, sp, #24
     14c:	211c      	movs	r1, #28
     14e:	8019      	strh	r1, [r3, #0]
     150:	391a      	subs	r1, #26
     152:	8059      	strh	r1, [r3, #2]
     154:	9207      	str	r2, [sp, #28]
     156:	2200      	movs	r2, #0
     158:	721a      	strb	r2, [r3, #8]
     15a:	725a      	strb	r2, [r3, #9]
     15c:	729a      	strb	r2, [r3, #10]
		.ten_bit_address = false,
		.high_speed      = false,
		.hs_master_code  = 0x0,
	};

	while (i2c_master_write_packet_wait(&i2c_master_instance, &packet1) != STATUS_OK);
     15e:	4d0f      	ldr	r5, [pc, #60]	; (19c <lis302dl_read_byte+0x5c>)
     160:	4c0f      	ldr	r4, [pc, #60]	; (1a0 <lis302dl_read_byte+0x60>)
     162:	a906      	add	r1, sp, #24
     164:	0028      	movs	r0, r5
     166:	47a0      	blx	r4
     168:	2800      	cmp	r0, #0
     16a:	d1fa      	bne.n	162 <lis302dl_read_byte+0x22>

	struct i2c_master_packet packet2 = {
     16c:	ab03      	add	r3, sp, #12
     16e:	221c      	movs	r2, #28
     170:	801a      	strh	r2, [r3, #0]
     172:	3a1b      	subs	r2, #27
     174:	805a      	strh	r2, [r3, #2]
     176:	3226      	adds	r2, #38	; 0x26
     178:	446a      	add	r2, sp
     17a:	9204      	str	r2, [sp, #16]
     17c:	2200      	movs	r2, #0
     17e:	721a      	strb	r2, [r3, #8]
     180:	725a      	strb	r2, [r3, #9]
     182:	729a      	strb	r2, [r3, #10]
		.ten_bit_address = false,
		.high_speed      = false,
		.hs_master_code  = 0x0,
	};

	while (i2c_master_read_packet_wait(&i2c_master_instance, &packet2) != STATUS_OK);
     184:	4d05      	ldr	r5, [pc, #20]	; (19c <lis302dl_read_byte+0x5c>)
     186:	4c07      	ldr	r4, [pc, #28]	; (1a4 <lis302dl_read_byte+0x64>)
     188:	a903      	add	r1, sp, #12
     18a:	0028      	movs	r0, r5
     18c:	47a0      	blx	r4
     18e:	2800      	cmp	r0, #0
     190:	d1fa      	bne.n	188 <lis302dl_read_byte+0x48>

	return data;
     192:	2327      	movs	r3, #39	; 0x27
     194:	446b      	add	r3, sp
     196:	7818      	ldrb	r0, [r3, #0]

}
     198:	b00b      	add	sp, #44	; 0x2c
     19a:	bd30      	pop	{r4, r5, pc}
     19c:	20003f80 	.word	0x20003f80
     1a0:	000008a5 	.word	0x000008a5
     1a4:	00000881 	.word	0x00000881

000001a8 <lis302dl_read_all>:



void lis302dl_read_all(void) {
     1a8:	b530      	push	{r4, r5, lr}
     1aa:	b087      	sub	sp, #28

	uint8_t data;

	struct i2c_master_packet packet1 = {
     1ac:	aa03      	add	r2, sp, #12
     1ae:	4b0c      	ldr	r3, [pc, #48]	; (1e0 <lis302dl_read_all+0x38>)
     1b0:	330c      	adds	r3, #12
     1b2:	cb13      	ldmia	r3!, {r0, r1, r4}
     1b4:	c213      	stmia	r2!, {r0, r1, r4}
		.ten_bit_address = false,
		.high_speed      = false,
		.hs_master_code  = 0x0,
	};

	while (i2c_master_write_packet_wait(&i2c_master_instance, &packet1) != STATUS_OK);
     1b6:	4d0b      	ldr	r5, [pc, #44]	; (1e4 <lis302dl_read_all+0x3c>)
     1b8:	4c0b      	ldr	r4, [pc, #44]	; (1e8 <lis302dl_read_all+0x40>)
     1ba:	a903      	add	r1, sp, #12
     1bc:	0028      	movs	r0, r5
     1be:	47a0      	blx	r4
     1c0:	2800      	cmp	r0, #0
     1c2:	d1fa      	bne.n	1ba <lis302dl_read_all+0x12>

	struct i2c_master_packet packet2 = {
     1c4:	466a      	mov	r2, sp
     1c6:	4b06      	ldr	r3, [pc, #24]	; (1e0 <lis302dl_read_all+0x38>)
     1c8:	3318      	adds	r3, #24
     1ca:	cb13      	ldmia	r3!, {r0, r1, r4}
     1cc:	c213      	stmia	r2!, {r0, r1, r4}
		.ten_bit_address = false,
		.high_speed      = false,
		.hs_master_code  = 0x0,
	};

	while (i2c_master_read_packet_wait(&i2c_master_instance, &packet2) != STATUS_OK);
     1ce:	4d05      	ldr	r5, [pc, #20]	; (1e4 <lis302dl_read_all+0x3c>)
     1d0:	4c06      	ldr	r4, [pc, #24]	; (1ec <lis302dl_read_all+0x44>)
     1d2:	4669      	mov	r1, sp
     1d4:	0028      	movs	r0, r5
     1d6:	47a0      	blx	r4
     1d8:	2800      	cmp	r0, #0
     1da:	d1fa      	bne.n	1d2 <lis302dl_read_all+0x2a>

	return data;

}
     1dc:	b007      	add	sp, #28
     1de:	bd30      	pop	{r4, r5, pc}
     1e0:	00006b04 	.word	0x00006b04
     1e4:	20003f80 	.word	0x20003f80
     1e8:	000008a5 	.word	0x000008a5
     1ec:	00000881 	.word	0x00000881

000001f0 <trimmer_value>:
extern struct i2c_master_module i2c_master_instance;


uint8_t trimmer_value(uint8_t value)
{
	return  value << 3;
     1f0:	00c0      	lsls	r0, r0, #3
     1f2:	b2c0      	uxtb	r0, r0
}
     1f4:	4770      	bx	lr
	...

000001f8 <MAX5435M_write_byte>:


void MAX5435M_write_byte(uint8_t byte_address, uint8_t byte_value) {
     1f8:	b530      	push	{r4, r5, lr}
     1fa:	b085      	sub	sp, #20
	
	
	uint8_t pack[2];
	pack[0] = byte_address;
     1fc:	ab03      	add	r3, sp, #12
     1fe:	7018      	strb	r0, [r3, #0]
	pack[1] = byte_value;
     200:	7059      	strb	r1, [r3, #1]

	
	struct i2c_master_packet packet = {
     202:	222c      	movs	r2, #44	; 0x2c
     204:	4669      	mov	r1, sp
     206:	800a      	strh	r2, [r1, #0]
     208:	3a2a      	subs	r2, #42	; 0x2a
     20a:	804a      	strh	r2, [r1, #2]
     20c:	9301      	str	r3, [sp, #4]
     20e:	2300      	movs	r3, #0
     210:	720b      	strb	r3, [r1, #8]
     212:	724b      	strb	r3, [r1, #9]
     214:	728b      	strb	r3, [r1, #10]
		.ten_bit_address = false,
		.high_speed      = false,
		.hs_master_code  = 0x0,
	};

	while (i2c_master_write_packet_wait(&i2c_master_instance, &packet) != STATUS_OK);
     216:	4d04      	ldr	r5, [pc, #16]	; (228 <MAX5435M_write_byte+0x30>)
     218:	4c04      	ldr	r4, [pc, #16]	; (22c <MAX5435M_write_byte+0x34>)
     21a:	4669      	mov	r1, sp
     21c:	0028      	movs	r0, r5
     21e:	47a0      	blx	r4
     220:	2800      	cmp	r0, #0
     222:	d1fa      	bne.n	21a <MAX5435M_write_byte+0x22>

	return;
}
     224:	b005      	add	sp, #20
     226:	bd30      	pop	{r4, r5, pc}
     228:	20003f80 	.word	0x20003f80
     22c:	000008a5 	.word	0x000008a5

00000230 <MAX5435L_write_byte>:

void MAX5435L_write_byte(uint8_t byte_address, uint8_t byte_value) {
     230:	b530      	push	{r4, r5, lr}
     232:	b085      	sub	sp, #20
	
	
	uint8_t pack[2];
	pack[0] = byte_address;
     234:	ab03      	add	r3, sp, #12
     236:	7018      	strb	r0, [r3, #0]
	pack[1] = byte_value;
     238:	7059      	strb	r1, [r3, #1]

	
	struct i2c_master_packet packet = {
     23a:	2228      	movs	r2, #40	; 0x28
     23c:	4669      	mov	r1, sp
     23e:	800a      	strh	r2, [r1, #0]
     240:	3a26      	subs	r2, #38	; 0x26
     242:	804a      	strh	r2, [r1, #2]
     244:	9301      	str	r3, [sp, #4]
     246:	2300      	movs	r3, #0
     248:	720b      	strb	r3, [r1, #8]
     24a:	724b      	strb	r3, [r1, #9]
     24c:	728b      	strb	r3, [r1, #10]
		.ten_bit_address = false,
		.high_speed      = false,
		.hs_master_code  = 0x0,
	};

	while (i2c_master_write_packet_wait(&i2c_master_instance, &packet) != STATUS_OK);
     24e:	4d04      	ldr	r5, [pc, #16]	; (260 <MAX5435L_write_byte+0x30>)
     250:	4c04      	ldr	r4, [pc, #16]	; (264 <MAX5435L_write_byte+0x34>)
     252:	4669      	mov	r1, sp
     254:	0028      	movs	r0, r5
     256:	47a0      	blx	r4
     258:	2800      	cmp	r0, #0
     25a:	d1fa      	bne.n	252 <MAX5435L_write_byte+0x22>

	return;
}
     25c:	b005      	add	sp, #20
     25e:	bd30      	pop	{r4, r5, pc}
     260:	20003f80 	.word	0x20003f80
     264:	000008a5 	.word	0x000008a5

00000268 <_i2c_master_wait_for_sync>:
{
	/* Sanity check */
	Assert(module);
	Assert(module->hw);

	SercomI2cm *const i2c_hw = &(module->hw->I2CM);
     268:	6801      	ldr	r1, [r0, #0]

#if defined(FEATURE_SERCOM_SYNCBUSY_SCHEME_VERSION_1)
	return (i2c_hw->STATUS.reg & SERCOM_I2CM_STATUS_SYNCBUSY);
#elif defined(FEATURE_SERCOM_SYNCBUSY_SCHEME_VERSION_2)
	return (i2c_hw->SYNCBUSY.reg & SERCOM_I2CM_SYNCBUSY_MASK);
     26a:	2207      	movs	r2, #7
     26c:	69cb      	ldr	r3, [r1, #28]
		const struct i2c_master_module *const module)
{
	/* Sanity check */
	Assert(module);

	while (i2c_master_is_syncing(module)) {
     26e:	421a      	tst	r2, r3
     270:	d1fc      	bne.n	26c <_i2c_master_wait_for_sync+0x4>
		/* Wait for I2C module to sync. */
	}
}
     272:	4770      	bx	lr

00000274 <i2c_master_init>:
 */
enum status_code i2c_master_init(
		struct i2c_master_module *const module,
		Sercom *const hw,
		const struct i2c_master_config *const config)
{
     274:	b5f0      	push	{r4, r5, r6, r7, lr}
     276:	46de      	mov	lr, fp
     278:	4657      	mov	r7, sl
     27a:	464e      	mov	r6, r9
     27c:	4645      	mov	r5, r8
     27e:	b5e0      	push	{r5, r6, r7, lr}
     280:	b08b      	sub	sp, #44	; 0x2c
     282:	0007      	movs	r7, r0
     284:	000d      	movs	r5, r1
     286:	0016      	movs	r6, r2
	Assert(module);
	Assert(hw);
	Assert(config);

	/* Initialize software module */
	module->hw = hw;
     288:	6039      	str	r1, [r7, #0]

	SercomI2cm *const i2c_module = &(module->hw->I2CM);

	uint32_t sercom_index = _sercom_get_sercom_inst_index(module->hw);
     28a:	0008      	movs	r0, r1
     28c:	4ba0      	ldr	r3, [pc, #640]	; (510 <i2c_master_init+0x29c>)
     28e:	4798      	blx	r3

#if (SAML22) || (SAMC20)
	pm_index     = sercom_index + MCLK_APBCMASK_SERCOM0_Pos;
	gclk_index   = sercom_index + SERCOM0_GCLK_ID_CORE;
#elif (SAML21) || (SAMR30)
	if (sercom_index == 5) {
     290:	2805      	cmp	r0, #5
     292:	d100      	bne.n	296 <i2c_master_init+0x22>
     294:	e135      	b.n	502 <i2c_master_init+0x28e>
		pm_index     = MCLK_APBDMASK_SERCOM5_Pos;
		gclk_index   = SERCOM5_GCLK_ID_CORE;
	} else {
		pm_index     = sercom_index + MCLK_APBCMASK_SERCOM0_Pos;
		gclk_index   = sercom_index + SERCOM0_GCLK_ID_CORE;
     296:	0004      	movs	r4, r0
     298:	3412      	adds	r4, #18
		case SYSTEM_CLOCK_APB_APBB:
			MCLK->APBBMASK.reg |= mask;
			break;

		case SYSTEM_CLOCK_APB_APBC:
			MCLK->APBCMASK.reg |= mask;
     29a:	4a9e      	ldr	r2, [pc, #632]	; (514 <i2c_master_init+0x2a0>)
     29c:	69d1      	ldr	r1, [r2, #28]
	/* Turn on module in PM */
#if (SAML21) || (SAMR30)
	if (sercom_index == 5) {
		system_apb_clock_set_mask(SYSTEM_CLOCK_APB_APBD, 1 << pm_index);
	} else {
		system_apb_clock_set_mask(SYSTEM_CLOCK_APB_APBC, 1 << pm_index);
     29e:	2301      	movs	r3, #1
     2a0:	4083      	lsls	r3, r0
     2a2:	430b      	orrs	r3, r1
     2a4:	61d3      	str	r3, [r2, #28]
#endif

	/* Set up the GCLK for the module */
	struct system_gclk_chan_config gclk_chan_conf;
	system_gclk_chan_get_config_defaults(&gclk_chan_conf);
	gclk_chan_conf.source_generator = config->generator_source;
     2a6:	a909      	add	r1, sp, #36	; 0x24
     2a8:	7b33      	ldrb	r3, [r6, #12]
     2aa:	700b      	strb	r3, [r1, #0]
	system_gclk_chan_set_config(gclk_index, &gclk_chan_conf);
     2ac:	b2e4      	uxtb	r4, r4
     2ae:	0020      	movs	r0, r4
     2b0:	4b99      	ldr	r3, [pc, #612]	; (518 <i2c_master_init+0x2a4>)
     2b2:	4798      	blx	r3
	system_gclk_chan_enable(gclk_index);
     2b4:	0020      	movs	r0, r4
     2b6:	4b99      	ldr	r3, [pc, #612]	; (51c <i2c_master_init+0x2a8>)
     2b8:	4798      	blx	r3
	sercom_set_gclk_generator(config->generator_source, false);
     2ba:	7b30      	ldrb	r0, [r6, #12]
     2bc:	2100      	movs	r1, #0
     2be:	4b98      	ldr	r3, [pc, #608]	; (520 <i2c_master_init+0x2ac>)
     2c0:	4798      	blx	r3

	/* Check if module is enabled. */
	if (i2c_module->CTRLA.reg & SERCOM_I2CM_CTRLA_ENABLE) {
     2c2:	682b      	ldr	r3, [r5, #0]
		return STATUS_ERR_DENIED;
     2c4:	201c      	movs	r0, #28
	if (i2c_module->CTRLA.reg & SERCOM_I2CM_CTRLA_ENABLE) {
     2c6:	079b      	lsls	r3, r3, #30
     2c8:	d506      	bpl.n	2d8 <i2c_master_init+0x64>
	/* Set sercom module to operate in I2C master mode. */
	i2c_module->CTRLA.reg = SERCOM_I2CM_CTRLA_MODE(0x5);

	/* Set config and return status. */
	return _i2c_master_set_config(module, config);
}
     2ca:	b00b      	add	sp, #44	; 0x2c
     2cc:	bc3c      	pop	{r2, r3, r4, r5}
     2ce:	4690      	mov	r8, r2
     2d0:	4699      	mov	r9, r3
     2d2:	46a2      	mov	sl, r4
     2d4:	46ab      	mov	fp, r5
     2d6:	bdf0      	pop	{r4, r5, r6, r7, pc}
	if (i2c_module->CTRLA.reg & SERCOM_I2CM_CTRLA_SWRST) {
     2d8:	682b      	ldr	r3, [r5, #0]
		return STATUS_BUSY;
     2da:	3817      	subs	r0, #23
	if (i2c_module->CTRLA.reg & SERCOM_I2CM_CTRLA_SWRST) {
     2dc:	07db      	lsls	r3, r3, #31
     2de:	d4f4      	bmi.n	2ca <i2c_master_init+0x56>
	uint8_t instance_index = _sercom_get_sercom_inst_index(module->hw);
     2e0:	6838      	ldr	r0, [r7, #0]
     2e2:	4b8b      	ldr	r3, [pc, #556]	; (510 <i2c_master_init+0x29c>)
     2e4:	4699      	mov	r9, r3
     2e6:	4798      	blx	r3
     2e8:	0004      	movs	r4, r0
	_sercom_set_handler(instance_index, _i2c_master_interrupt_handler);
     2ea:	498e      	ldr	r1, [pc, #568]	; (524 <i2c_master_init+0x2b0>)
     2ec:	4b8e      	ldr	r3, [pc, #568]	; (528 <i2c_master_init+0x2b4>)
     2ee:	4798      	blx	r3
	_sercom_instances[instance_index] = module;
     2f0:	00a4      	lsls	r4, r4, #2
     2f2:	4b8e      	ldr	r3, [pc, #568]	; (52c <i2c_master_init+0x2b8>)
     2f4:	50e7      	str	r7, [r4, r3]
	module->registered_callback = 0;
     2f6:	2300      	movs	r3, #0
     2f8:	763b      	strb	r3, [r7, #24]
	module->enabled_callback = 0;
     2fa:	767b      	strb	r3, [r7, #25]
	module->buffer_length = 0;
     2fc:	2400      	movs	r4, #0
     2fe:	837b      	strh	r3, [r7, #26]
	module->buffer_remaining = 0;
     300:	83bb      	strh	r3, [r7, #28]
	module->status = STATUS_OK;
     302:	2225      	movs	r2, #37	; 0x25
     304:	54bc      	strb	r4, [r7, r2]
	module->buffer = NULL;
     306:	623b      	str	r3, [r7, #32]
	i2c_module->CTRLA.reg = SERCOM_I2CM_CTRLA_MODE(0x5);
     308:	3314      	adds	r3, #20
     30a:	602b      	str	r3, [r5, #0]
	SercomI2cm *const i2c_module = &(module->hw->I2CM);
     30c:	683b      	ldr	r3, [r7, #0]
     30e:	4698      	mov	r8, r3
	uint8_t sercom_index = _sercom_get_sercom_inst_index(sercom_hw);
     310:	0018      	movs	r0, r3
     312:	47c8      	blx	r9
     314:	4681      	mov	r9, r0
{
	/* Sanity check arguments */
	Assert(config);

	/* Default configuration values */
	config->mux_position = SYSTEM_PINMUX_GPIO;
     316:	2380      	movs	r3, #128	; 0x80
     318:	aa08      	add	r2, sp, #32
     31a:	7013      	strb	r3, [r2, #0]
	config->direction    = SYSTEM_PINMUX_PIN_DIR_INPUT;
     31c:	7054      	strb	r4, [r2, #1]
	config->input_pull   = SYSTEM_PINMUX_PIN_PULL_UP;
     31e:	2301      	movs	r3, #1
     320:	7093      	strb	r3, [r2, #2]
	config->powersave    = false;
     322:	70d4      	strb	r4, [r2, #3]
	uint32_t pad0 = config->pinmux_pad0;
     324:	69f0      	ldr	r0, [r6, #28]
	uint32_t pad1 = config->pinmux_pad1;
     326:	6a35      	ldr	r5, [r6, #32]
	if (pad0 == PINMUX_DEFAULT) {
     328:	2800      	cmp	r0, #0
     32a:	d100      	bne.n	32e <i2c_master_init+0xba>
     32c:	e0a7      	b.n	47e <i2c_master_init+0x20a>
	pin_conf.mux_position = pad0 & 0xFFFF;
     32e:	ab08      	add	r3, sp, #32
     330:	7018      	strb	r0, [r3, #0]
	pin_conf.direction    = SYSTEM_PINMUX_PIN_DIR_OUTPUT_WITH_READBACK;
     332:	2302      	movs	r3, #2
     334:	aa08      	add	r2, sp, #32
     336:	7053      	strb	r3, [r2, #1]
	system_pinmux_pin_set_config(pad0 >> 16, &pin_conf);
     338:	0c00      	lsrs	r0, r0, #16
     33a:	b2c0      	uxtb	r0, r0
     33c:	0011      	movs	r1, r2
     33e:	4b7c      	ldr	r3, [pc, #496]	; (530 <i2c_master_init+0x2bc>)
     340:	4798      	blx	r3
	if (pad1 == PINMUX_DEFAULT) {
     342:	2d00      	cmp	r5, #0
     344:	d100      	bne.n	348 <i2c_master_init+0xd4>
     346:	e09f      	b.n	488 <i2c_master_init+0x214>
	pin_conf.mux_position = pad1 & 0xFFFF;
     348:	ab08      	add	r3, sp, #32
     34a:	701d      	strb	r5, [r3, #0]
	pin_conf.direction    = SYSTEM_PINMUX_PIN_DIR_OUTPUT_WITH_READBACK;
     34c:	2302      	movs	r3, #2
     34e:	aa08      	add	r2, sp, #32
     350:	7053      	strb	r3, [r2, #1]
	system_pinmux_pin_set_config(pad1 >> 16, &pin_conf);
     352:	0c2d      	lsrs	r5, r5, #16
     354:	b2e8      	uxtb	r0, r5
     356:	0011      	movs	r1, r2
     358:	4b75      	ldr	r3, [pc, #468]	; (530 <i2c_master_init+0x2bc>)
     35a:	4798      	blx	r3
	module->unknown_bus_state_timeout = config->unknown_bus_state_timeout;
     35c:	8ab3      	ldrh	r3, [r6, #20]
     35e:	80fb      	strh	r3, [r7, #6]
	module->buffer_timeout = config->buffer_timeout;
     360:	8af3      	ldrh	r3, [r6, #22]
     362:	813b      	strh	r3, [r7, #8]
	if (config->run_in_standby || system_is_debugger_present()) {
     364:	7e33      	ldrb	r3, [r6, #24]
		tmp_ctrla = SERCOM_I2CM_CTRLA_RUNSTDBY;
     366:	2280      	movs	r2, #128	; 0x80
	if (config->run_in_standby || system_is_debugger_present()) {
     368:	2b00      	cmp	r3, #0
     36a:	d104      	bne.n	376 <i2c_master_init+0x102>
 * \retval false Debugger is not connected to the system
 *
 */
static inline bool system_is_debugger_present(void)
{
	return DSU->STATUSB.reg & DSU_STATUSB_DBGPRES;
     36c:	4b71      	ldr	r3, [pc, #452]	; (534 <i2c_master_init+0x2c0>)
     36e:	789b      	ldrb	r3, [r3, #2]
     370:	079b      	lsls	r3, r3, #30
		tmp_ctrla = SERCOM_I2CM_CTRLA_RUNSTDBY;
     372:	0fdb      	lsrs	r3, r3, #31
     374:	01da      	lsls	r2, r3, #7
	tmp_ctrla |= config->transfer_speed;
     376:	68b1      	ldr	r1, [r6, #8]
     378:	6933      	ldr	r3, [r6, #16]
     37a:	430b      	orrs	r3, r1
     37c:	4313      	orrs	r3, r2
	if (config->scl_low_timeout) {
     37e:	2224      	movs	r2, #36	; 0x24
     380:	5cb2      	ldrb	r2, [r6, r2]
     382:	2a00      	cmp	r2, #0
     384:	d002      	beq.n	38c <i2c_master_init+0x118>
		tmp_ctrla |= SERCOM_I2CM_CTRLA_LOWTOUTEN;
     386:	2280      	movs	r2, #128	; 0x80
     388:	05d2      	lsls	r2, r2, #23
     38a:	4313      	orrs	r3, r2
		tmp_ctrla |= config->inactive_timeout;
     38c:	6ab2      	ldr	r2, [r6, #40]	; 0x28
     38e:	4313      	orrs	r3, r2
	if (config->scl_stretch_only_after_ack_bit || (config->transfer_speed == I2C_MASTER_SPEED_HIGH_SPEED)) {
     390:	222c      	movs	r2, #44	; 0x2c
     392:	5cb2      	ldrb	r2, [r6, r2]
     394:	2a00      	cmp	r2, #0
     396:	d103      	bne.n	3a0 <i2c_master_init+0x12c>
     398:	2280      	movs	r2, #128	; 0x80
     39a:	0492      	lsls	r2, r2, #18
     39c:	4291      	cmp	r1, r2
     39e:	d102      	bne.n	3a6 <i2c_master_init+0x132>
		tmp_ctrla |= SERCOM_I2CM_CTRLA_SCLSM;
     3a0:	2280      	movs	r2, #128	; 0x80
     3a2:	0512      	lsls	r2, r2, #20
     3a4:	4313      	orrs	r3, r2
	if (config->slave_scl_low_extend_timeout) {
     3a6:	222d      	movs	r2, #45	; 0x2d
     3a8:	5cb2      	ldrb	r2, [r6, r2]
     3aa:	2a00      	cmp	r2, #0
     3ac:	d002      	beq.n	3b4 <i2c_master_init+0x140>
		tmp_ctrla |= SERCOM_I2CM_CTRLA_SEXTTOEN;
     3ae:	2280      	movs	r2, #128	; 0x80
     3b0:	0412      	lsls	r2, r2, #16
     3b2:	4313      	orrs	r3, r2
	if (config->master_scl_low_extend_timeout) {
     3b4:	222e      	movs	r2, #46	; 0x2e
     3b6:	5cb2      	ldrb	r2, [r6, r2]
     3b8:	2a00      	cmp	r2, #0
     3ba:	d002      	beq.n	3c2 <i2c_master_init+0x14e>
		tmp_ctrla |= SERCOM_I2CM_CTRLA_MEXTTOEN;
     3bc:	2280      	movs	r2, #128	; 0x80
     3be:	03d2      	lsls	r2, r2, #15
     3c0:	4313      	orrs	r3, r2
	i2c_module->CTRLA.reg |= tmp_ctrla;
     3c2:	4642      	mov	r2, r8
     3c4:	6812      	ldr	r2, [r2, #0]
     3c6:	4313      	orrs	r3, r2
     3c8:	4642      	mov	r2, r8
     3ca:	6013      	str	r3, [r2, #0]
	i2c_module->CTRLB.reg = SERCOM_I2CM_CTRLB_SMEN;
     3cc:	2380      	movs	r3, #128	; 0x80
     3ce:	005b      	lsls	r3, r3, #1
     3d0:	6053      	str	r3, [r2, #4]
	uint32_t fgclk       = system_gclk_chan_get_hz(SERCOM0_GCLK_ID_CORE + sercom_index);
     3d2:	464c      	mov	r4, r9
     3d4:	3412      	adds	r4, #18
     3d6:	b2e0      	uxtb	r0, r4
     3d8:	4b57      	ldr	r3, [pc, #348]	; (538 <i2c_master_init+0x2c4>)
     3da:	4798      	blx	r3
     3dc:	0005      	movs	r5, r0
     3de:	9007      	str	r0, [sp, #28]
	uint32_t fscl        = 1000 * config->baud_rate;
     3e0:	27fa      	movs	r7, #250	; 0xfa
     3e2:	00bf      	lsls	r7, r7, #2
     3e4:	6833      	ldr	r3, [r6, #0]
     3e6:	435f      	muls	r7, r3
	uint32_t fscl_hs     = 1000 * config->baud_rate_high_speed;
     3e8:	6873      	ldr	r3, [r6, #4]
     3ea:	469a      	mov	sl, r3
	tmp_baud = (int32_t)(div_ceil(
     3ec:	4c53      	ldr	r4, [pc, #332]	; (53c <i2c_master_init+0x2c8>)
     3ee:	47a0      	blx	r4
     3f0:	9002      	str	r0, [sp, #8]
     3f2:	9103      	str	r1, [sp, #12]
     3f4:	0078      	lsls	r0, r7, #1
     3f6:	47a0      	blx	r4
     3f8:	9000      	str	r0, [sp, #0]
     3fa:	9101      	str	r1, [sp, #4]
	uint32_t trise       = config->sda_scl_rise_time_ns;
     3fc:	8e30      	ldrh	r0, [r6, #48]	; 0x30
	tmp_baud = (int32_t)(div_ceil(
     3fe:	4368      	muls	r0, r5
     400:	47a0      	blx	r4
     402:	4b4f      	ldr	r3, [pc, #316]	; (540 <i2c_master_init+0x2cc>)
     404:	469b      	mov	fp, r3
     406:	4a4f      	ldr	r2, [pc, #316]	; (544 <i2c_master_init+0x2d0>)
     408:	4b4f      	ldr	r3, [pc, #316]	; (548 <i2c_master_init+0x2d4>)
     40a:	47d8      	blx	fp
     40c:	4d4f      	ldr	r5, [pc, #316]	; (54c <i2c_master_init+0x2d8>)
     40e:	2200      	movs	r2, #0
     410:	4b4f      	ldr	r3, [pc, #316]	; (550 <i2c_master_init+0x2dc>)
     412:	47a8      	blx	r5
     414:	9004      	str	r0, [sp, #16]
     416:	9105      	str	r1, [sp, #20]
     418:	0038      	movs	r0, r7
     41a:	47a0      	blx	r4
     41c:	0002      	movs	r2, r0
     41e:	000b      	movs	r3, r1
     420:	9804      	ldr	r0, [sp, #16]
     422:	9905      	ldr	r1, [sp, #20]
     424:	47d8      	blx	fp
     426:	0002      	movs	r2, r0
     428:	000b      	movs	r3, r1
     42a:	4c4a      	ldr	r4, [pc, #296]	; (554 <i2c_master_init+0x2e0>)
     42c:	9802      	ldr	r0, [sp, #8]
     42e:	9903      	ldr	r1, [sp, #12]
     430:	47a0      	blx	r4
     432:	9a00      	ldr	r2, [sp, #0]
     434:	9b01      	ldr	r3, [sp, #4]
     436:	47a8      	blx	r5
     438:	2200      	movs	r2, #0
     43a:	4b47      	ldr	r3, [pc, #284]	; (558 <i2c_master_init+0x2e4>)
     43c:	47a0      	blx	r4
     43e:	9a00      	ldr	r2, [sp, #0]
     440:	9b01      	ldr	r3, [sp, #4]
     442:	4c46      	ldr	r4, [pc, #280]	; (55c <i2c_master_init+0x2e8>)
     444:	47a0      	blx	r4
     446:	4b46      	ldr	r3, [pc, #280]	; (560 <i2c_master_init+0x2ec>)
     448:	4798      	blx	r3
     44a:	0004      	movs	r4, r0
	if (config->transfer_speed == I2C_MASTER_SPEED_HIGH_SPEED) {
     44c:	2380      	movs	r3, #128	; 0x80
     44e:	049b      	lsls	r3, r3, #18
     450:	68b2      	ldr	r2, [r6, #8]
     452:	429a      	cmp	r2, r3
     454:	d01e      	beq.n	494 <i2c_master_init+0x220>
	if (tmp_baud > 255 || tmp_baud < 0 || tmp_baud_hs > 255 || tmp_baud_hs < 0) {
     456:	0003      	movs	r3, r0
     458:	2040      	movs	r0, #64	; 0x40
     45a:	2cff      	cmp	r4, #255	; 0xff
     45c:	d900      	bls.n	460 <i2c_master_init+0x1ec>
     45e:	e734      	b.n	2ca <i2c_master_init+0x56>
	int32_t tmp_baudlow_hs = 0;
     460:	2600      	movs	r6, #0
	int32_t tmp_baud_hs = 0;
     462:	2000      	movs	r0, #0
		i2c_module->BAUD.reg = SERCOM_I2CM_BAUD_BAUD(tmp_baud) |
     464:	24ff      	movs	r4, #255	; 0xff
     466:	401c      	ands	r4, r3
			SERCOM_I2CM_BAUD_HSBAUD(tmp_baud_hs) | SERCOM_I2CM_BAUD_HSBAUDLOW(tmp_baudlow_hs);
     468:	0636      	lsls	r6, r6, #24
     46a:	4334      	orrs	r4, r6
     46c:	0400      	lsls	r0, r0, #16
     46e:	23ff      	movs	r3, #255	; 0xff
     470:	041b      	lsls	r3, r3, #16
     472:	4018      	ands	r0, r3
     474:	4304      	orrs	r4, r0
		i2c_module->BAUD.reg = SERCOM_I2CM_BAUD_BAUD(tmp_baud) |
     476:	4643      	mov	r3, r8
     478:	60dc      	str	r4, [r3, #12]
	enum status_code tmp_status_code = STATUS_OK;
     47a:	2000      	movs	r0, #0
     47c:	e725      	b.n	2ca <i2c_master_init+0x56>
		pad0 = _sercom_get_default_pad(sercom_hw, 0);
     47e:	2100      	movs	r1, #0
     480:	4640      	mov	r0, r8
     482:	4b38      	ldr	r3, [pc, #224]	; (564 <i2c_master_init+0x2f0>)
     484:	4798      	blx	r3
     486:	e752      	b.n	32e <i2c_master_init+0xba>
		pad1 = _sercom_get_default_pad(sercom_hw, 1);
     488:	2101      	movs	r1, #1
     48a:	4640      	mov	r0, r8
     48c:	4b35      	ldr	r3, [pc, #212]	; (564 <i2c_master_init+0x2f0>)
     48e:	4798      	blx	r3
     490:	0005      	movs	r5, r0
     492:	e759      	b.n	348 <i2c_master_init+0xd4>
	uint32_t fscl_hs     = 1000 * config->baud_rate_high_speed;
     494:	27fa      	movs	r7, #250	; 0xfa
     496:	00bf      	lsls	r7, r7, #2
     498:	4653      	mov	r3, sl
     49a:	435f      	muls	r7, r3
		tmp_baudlow_hs = (int32_t)((fgclk * 2.0) / (3.0 * fscl_hs) - 1);
     49c:	9802      	ldr	r0, [sp, #8]
     49e:	9903      	ldr	r1, [sp, #12]
     4a0:	0002      	movs	r2, r0
     4a2:	000b      	movs	r3, r1
     4a4:	47a8      	blx	r5
     4a6:	9000      	str	r0, [sp, #0]
     4a8:	9101      	str	r1, [sp, #4]
     4aa:	0038      	movs	r0, r7
     4ac:	4b23      	ldr	r3, [pc, #140]	; (53c <i2c_master_init+0x2c8>)
     4ae:	4798      	blx	r3
     4b0:	2200      	movs	r2, #0
     4b2:	4b2d      	ldr	r3, [pc, #180]	; (568 <i2c_master_init+0x2f4>)
     4b4:	47d8      	blx	fp
     4b6:	0002      	movs	r2, r0
     4b8:	000b      	movs	r3, r1
     4ba:	9800      	ldr	r0, [sp, #0]
     4bc:	9901      	ldr	r1, [sp, #4]
     4be:	4e27      	ldr	r6, [pc, #156]	; (55c <i2c_master_init+0x2e8>)
     4c0:	47b0      	blx	r6
     4c2:	2200      	movs	r2, #0
     4c4:	4b24      	ldr	r3, [pc, #144]	; (558 <i2c_master_init+0x2e4>)
     4c6:	4e23      	ldr	r6, [pc, #140]	; (554 <i2c_master_init+0x2e0>)
     4c8:	47b0      	blx	r6
     4ca:	4b25      	ldr	r3, [pc, #148]	; (560 <i2c_master_init+0x2ec>)
     4cc:	4798      	blx	r3
     4ce:	1e06      	subs	r6, r0, #0
		if (tmp_baudlow_hs) {
     4d0:	d00c      	beq.n	4ec <i2c_master_init+0x278>
			tmp_baud_hs = (int32_t)(fgclk / fscl_hs) - 2 - tmp_baudlow_hs;
     4d2:	0039      	movs	r1, r7
     4d4:	9807      	ldr	r0, [sp, #28]
     4d6:	4b25      	ldr	r3, [pc, #148]	; (56c <i2c_master_init+0x2f8>)
     4d8:	4798      	blx	r3
     4da:	3802      	subs	r0, #2
     4dc:	1b80      	subs	r0, r0, r6
	if (tmp_baud > 255 || tmp_baud < 0 || tmp_baud_hs > 255 || tmp_baud_hs < 0) {
     4de:	0023      	movs	r3, r4
     4e0:	2cff      	cmp	r4, #255	; 0xff
     4e2:	d80c      	bhi.n	4fe <i2c_master_init+0x28a>
     4e4:	28ff      	cmp	r0, #255	; 0xff
     4e6:	d9bd      	bls.n	464 <i2c_master_init+0x1f0>
     4e8:	2040      	movs	r0, #64	; 0x40
     4ea:	e6ee      	b.n	2ca <i2c_master_init+0x56>
			tmp_baud_hs = (int32_t)(div_ceil(fgclk, 2 * fscl_hs)) - 1;
     4ec:	0079      	lsls	r1, r7, #1
     4ee:	1e48      	subs	r0, r1, #1
     4f0:	9b07      	ldr	r3, [sp, #28]
     4f2:	469c      	mov	ip, r3
     4f4:	4460      	add	r0, ip
     4f6:	4b1d      	ldr	r3, [pc, #116]	; (56c <i2c_master_init+0x2f8>)
     4f8:	4798      	blx	r3
     4fa:	3801      	subs	r0, #1
     4fc:	e7ef      	b.n	4de <i2c_master_init+0x26a>
	if (tmp_baud > 255 || tmp_baud < 0 || tmp_baud_hs > 255 || tmp_baud_hs < 0) {
     4fe:	2040      	movs	r0, #64	; 0x40
     500:	e6e3      	b.n	2ca <i2c_master_init+0x56>
			break;
		case SYSTEM_CLOCK_APB_APBD:
			MCLK->APBDMASK.reg |= mask;
     502:	4a04      	ldr	r2, [pc, #16]	; (514 <i2c_master_init+0x2a0>)
     504:	6a13      	ldr	r3, [r2, #32]
     506:	2102      	movs	r1, #2
     508:	430b      	orrs	r3, r1
     50a:	6213      	str	r3, [r2, #32]
		gclk_index   = SERCOM5_GCLK_ID_CORE;
     50c:	2418      	movs	r4, #24
     50e:	e6ca      	b.n	2a6 <i2c_master_init+0x32>
     510:	00000f3d 	.word	0x00000f3d
     514:	40000400 	.word	0x40000400
     518:	00003899 	.word	0x00003899
     51c:	00003829 	.word	0x00003829
     520:	00000d7d 	.word	0x00000d7d
     524:	00000999 	.word	0x00000999
     528:	00002c7d 	.word	0x00002c7d
     52c:	20003d5c 	.word	0x20003d5c
     530:	00003995 	.word	0x00003995
     534:	41002000 	.word	0x41002000
     538:	000038bd 	.word	0x000038bd
     53c:	00006235 	.word	0x00006235
     540:	000056a1 	.word	0x000056a1
     544:	e826d695 	.word	0xe826d695
     548:	3e112e0b 	.word	0x3e112e0b
     54c:	00004a19 	.word	0x00004a19
     550:	40240000 	.word	0x40240000
     554:	00005ba1 	.word	0x00005ba1
     558:	3ff00000 	.word	0x3ff00000
     55c:	00005039 	.word	0x00005039
     560:	000061cd 	.word	0x000061cd
     564:	00000dc9 	.word	0x00000dc9
     568:	40080000 	.word	0x40080000
     56c:	000046d9 	.word	0x000046d9

00000570 <_i2c_master_address_response>:
{
	/* Sanity check arguments */
	Assert(module);
	Assert(module->hw);

	SercomI2cm *const i2c_module = &(module->hw->I2CM);
     570:	6803      	ldr	r3, [r0, #0]

	/* Check for error and ignore bus-error; workaround for BUSSTATE stuck in
	 * BUSY */
	if (i2c_module->INTFLAG.reg & SERCOM_I2CM_INTFLAG_SB) {
     572:	7e1a      	ldrb	r2, [r3, #24]
     574:	0792      	lsls	r2, r2, #30
     576:	d507      	bpl.n	588 <_i2c_master_address_response+0x18>

		/* Clear write interrupt flag */
		i2c_module->INTFLAG.reg = SERCOM_I2CM_INTFLAG_SB;
     578:	2202      	movs	r2, #2
     57a:	761a      	strb	r2, [r3, #24]

		/* Check arbitration. */
		if (i2c_module->STATUS.reg & SERCOM_I2CM_STATUS_ARBLOST) {
     57c:	8b5b      	ldrh	r3, [r3, #26]
     57e:	079b      	lsls	r3, r3, #30
			/* Return packet collision. */
			return STATUS_ERR_PACKET_COLLISION;
     580:	2041      	movs	r0, #65	; 0x41

		/* Return bad address value. */
		return STATUS_ERR_BAD_ADDRESS;
	}

	return STATUS_OK;
     582:	17db      	asrs	r3, r3, #31
     584:	4018      	ands	r0, r3
}
     586:	4770      	bx	lr
	} else if (i2c_module->STATUS.reg & SERCOM_I2CM_STATUS_RXNACK) {
     588:	8b5a      	ldrh	r2, [r3, #26]
     58a:	0752      	lsls	r2, r2, #29
     58c:	d506      	bpl.n	59c <_i2c_master_address_response+0x2c>
		i2c_module->CTRLB.reg |= SERCOM_I2CM_CTRLB_CMD(3);
     58e:	6859      	ldr	r1, [r3, #4]
     590:	22c0      	movs	r2, #192	; 0xc0
     592:	0292      	lsls	r2, r2, #10
     594:	430a      	orrs	r2, r1
     596:	605a      	str	r2, [r3, #4]
		return STATUS_ERR_BAD_ADDRESS;
     598:	2018      	movs	r0, #24
     59a:	e7f4      	b.n	586 <_i2c_master_address_response+0x16>
	return STATUS_OK;
     59c:	2000      	movs	r0, #0
     59e:	e7f2      	b.n	586 <_i2c_master_address_response+0x16>

000005a0 <_i2c_master_wait_for_bus>:
 * \retval STATUS_ERR_TIMEOUT  If no response was given within specified timeout
 *                             period
 */
enum status_code _i2c_master_wait_for_bus(
		struct i2c_master_module *const module)
{
     5a0:	b530      	push	{r4, r5, lr}
	/* Sanity check arguments */
	Assert(module);
	Assert(module->hw);

	SercomI2cm *const i2c_module = &(module->hw->I2CM);
     5a2:	6802      	ldr	r2, [r0, #0]

	/* Wait for reply. */
	uint16_t timeout_counter = 0;
     5a4:	2300      	movs	r3, #0
	while (!(i2c_module->INTFLAG.reg & SERCOM_I2CM_INTFLAG_MB) &&
     5a6:	2401      	movs	r4, #1
     5a8:	2502      	movs	r5, #2
     5aa:	7e11      	ldrb	r1, [r2, #24]
     5ac:	4221      	tst	r1, r4
     5ae:	d10b      	bne.n	5c8 <_i2c_master_wait_for_bus+0x28>
			!(i2c_module->INTFLAG.reg & SERCOM_I2CM_INTFLAG_SB)) {
     5b0:	7e11      	ldrb	r1, [r2, #24]
	while (!(i2c_module->INTFLAG.reg & SERCOM_I2CM_INTFLAG_MB) &&
     5b2:	4229      	tst	r1, r5
     5b4:	d106      	bne.n	5c4 <_i2c_master_wait_for_bus+0x24>

		/* Check timeout condition. */
		if (++timeout_counter >= module->buffer_timeout) {
     5b6:	3301      	adds	r3, #1
     5b8:	b29b      	uxth	r3, r3
     5ba:	8901      	ldrh	r1, [r0, #8]
     5bc:	4299      	cmp	r1, r3
     5be:	d8f4      	bhi.n	5aa <_i2c_master_wait_for_bus+0xa>
			return STATUS_ERR_TIMEOUT;
     5c0:	2012      	movs	r0, #18
     5c2:	e002      	b.n	5ca <_i2c_master_wait_for_bus+0x2a>
		}
	}
	return STATUS_OK;
     5c4:	2000      	movs	r0, #0
     5c6:	e000      	b.n	5ca <_i2c_master_wait_for_bus+0x2a>
     5c8:	2000      	movs	r0, #0
}
     5ca:	bd30      	pop	{r4, r5, pc}

000005cc <_i2c_master_send_hs_master_code>:
 * \retval STATUS_OK           No error happen
 */
enum status_code _i2c_master_send_hs_master_code(
		struct i2c_master_module *const module,
		uint8_t hs_master_code)
{
     5cc:	b510      	push	{r4, lr}
	SercomI2cm *const i2c_module = &(module->hw->I2CM);
     5ce:	6804      	ldr	r4, [r0, #0]
	/* Return value. */
	enum status_code tmp_status;

	/* Set NACK for high speed code */
	i2c_module->CTRLB.reg |= SERCOM_I2CM_CTRLB_ACKACT;
     5d0:	6862      	ldr	r2, [r4, #4]
     5d2:	2380      	movs	r3, #128	; 0x80
     5d4:	02db      	lsls	r3, r3, #11
     5d6:	4313      	orrs	r3, r2
     5d8:	6063      	str	r3, [r4, #4]
	/* Send high speed code */
	i2c_module->ADDR.reg = hs_master_code;
     5da:	6261      	str	r1, [r4, #36]	; 0x24
	/* Wait for response on bus. */
	tmp_status = _i2c_master_wait_for_bus(module);
     5dc:	4b02      	ldr	r3, [pc, #8]	; (5e8 <_i2c_master_send_hs_master_code+0x1c>)
     5de:	4798      	blx	r3
	/* Clear write interrupt flag */
	i2c_module->INTFLAG.reg = SERCOM_I2CM_INTENCLR_MB;
     5e0:	2301      	movs	r3, #1
     5e2:	7623      	strb	r3, [r4, #24]

	return tmp_status;
}
     5e4:	bd10      	pop	{r4, pc}
     5e6:	46c0      	nop			; (mov r8, r8)
     5e8:	000005a1 	.word	0x000005a1

000005ec <_i2c_master_read_packet>:
 *
 */
static enum status_code _i2c_master_read_packet(
		struct i2c_master_module *const module,
		struct i2c_master_packet *const packet)
{
     5ec:	b5f0      	push	{r4, r5, r6, r7, lr}
     5ee:	46de      	mov	lr, fp
     5f0:	4657      	mov	r7, sl
     5f2:	464e      	mov	r6, r9
     5f4:	4645      	mov	r5, r8
     5f6:	b5e0      	push	{r5, r6, r7, lr}
     5f8:	b083      	sub	sp, #12
     5fa:	0006      	movs	r6, r0
     5fc:	4689      	mov	r9, r1
	/* Sanity check arguments */
	Assert(module);
	Assert(module->hw);
	Assert(packet);

	SercomI2cm *const i2c_module = &(module->hw->I2CM);
     5fe:	6805      	ldr	r5, [r0, #0]

	/* Return value. */
	enum status_code tmp_status;
	uint16_t tmp_data_length = packet->data_length;
     600:	884c      	ldrh	r4, [r1, #2]

	/* Written buffer counter. */
	uint16_t counter = 0;

	bool sclsm_flag = i2c_module->CTRLA.bit.SCLSM;
     602:	682b      	ldr	r3, [r5, #0]
     604:	011b      	lsls	r3, r3, #4
     606:	0fdb      	lsrs	r3, r3, #31
     608:	469a      	mov	sl, r3

	/* Switch to high speed mode */
	if (packet->high_speed) {
     60a:	7a4b      	ldrb	r3, [r1, #9]
     60c:	2b00      	cmp	r3, #0
     60e:	d12b      	bne.n	668 <_i2c_master_read_packet+0x7c>
		_i2c_master_send_hs_master_code(module, packet->hs_master_code);
	}

	/* Set action to ACK. */
	i2c_module->CTRLB.reg &= ~SERCOM_I2CM_CTRLB_ACKACT;
     610:	686b      	ldr	r3, [r5, #4]
     612:	4a58      	ldr	r2, [pc, #352]	; (774 <_i2c_master_read_packet+0x188>)
     614:	4013      	ands	r3, r2
     616:	606b      	str	r3, [r5, #4]

	/* Set address and direction bit. Will send start command on bus. */
	if (packet->ten_bit_address) {
     618:	464b      	mov	r3, r9
     61a:	7a1b      	ldrb	r3, [r3, #8]
     61c:	2b00      	cmp	r3, #0
     61e:	d127      	bne.n	670 <_i2c_master_read_packet+0x84>
				I2C_TRANSFER_READ;
		} else {
			return tmp_status;
		}
	} else {
		i2c_module->ADDR.reg = (packet->address << 1) | I2C_TRANSFER_READ |
     620:	464b      	mov	r3, r9
     622:	881b      	ldrh	r3, [r3, #0]
     624:	005b      	lsls	r3, r3, #1
			(packet->high_speed << SERCOM_I2CM_ADDR_HS_Pos);
     626:	464a      	mov	r2, r9
     628:	7a52      	ldrb	r2, [r2, #9]
     62a:	0392      	lsls	r2, r2, #14
		i2c_module->ADDR.reg = (packet->address << 1) | I2C_TRANSFER_READ |
     62c:	4313      	orrs	r3, r2
     62e:	2201      	movs	r2, #1
     630:	4313      	orrs	r3, r2
     632:	626b      	str	r3, [r5, #36]	; 0x24
	}

	/* Wait for response on bus. */
	tmp_status = _i2c_master_wait_for_bus(module);
     634:	0030      	movs	r0, r6
     636:	4b50      	ldr	r3, [pc, #320]	; (778 <_i2c_master_read_packet+0x18c>)
     638:	4798      	blx	r3
     63a:	9001      	str	r0, [sp, #4]

	/* Set action to ack or nack. */
	if ((sclsm_flag) && (packet->data_length == 1)) {
     63c:	4653      	mov	r3, sl
     63e:	2b00      	cmp	r3, #0
     640:	d003      	beq.n	64a <_i2c_master_read_packet+0x5e>
     642:	464b      	mov	r3, r9
     644:	885b      	ldrh	r3, [r3, #2]
     646:	2b01      	cmp	r3, #1
     648:	d03b      	beq.n	6c2 <_i2c_master_read_packet+0xd6>
		i2c_module->CTRLB.reg |= SERCOM_I2CM_CTRLB_ACKACT;
	} else {
		i2c_module->CTRLB.reg &= ~SERCOM_I2CM_CTRLB_ACKACT;	
     64a:	686b      	ldr	r3, [r5, #4]
     64c:	4a49      	ldr	r2, [pc, #292]	; (774 <_i2c_master_read_packet+0x188>)
     64e:	4013      	ands	r3, r2
     650:	606b      	str	r3, [r5, #4]
	}

	/* Check for address response error unless previous error is
	 * detected. */
	if (tmp_status == STATUS_OK) {
     652:	9b01      	ldr	r3, [sp, #4]
     654:	2b00      	cmp	r3, #0
     656:	d03a      	beq.n	6ce <_i2c_master_read_packet+0xe2>
		_i2c_master_wait_for_sync(module);
		packet->data[counter] = i2c_module->DATA.reg;
	}

	return tmp_status;
}
     658:	9801      	ldr	r0, [sp, #4]
     65a:	b003      	add	sp, #12
     65c:	bc3c      	pop	{r2, r3, r4, r5}
     65e:	4690      	mov	r8, r2
     660:	4699      	mov	r9, r3
     662:	46a2      	mov	sl, r4
     664:	46ab      	mov	fp, r5
     666:	bdf0      	pop	{r4, r5, r6, r7, pc}
		_i2c_master_send_hs_master_code(module, packet->hs_master_code);
     668:	7a89      	ldrb	r1, [r1, #10]
     66a:	4b44      	ldr	r3, [pc, #272]	; (77c <_i2c_master_read_packet+0x190>)
     66c:	4798      	blx	r3
     66e:	e7cf      	b.n	610 <_i2c_master_read_packet+0x24>
		i2c_module->ADDR.reg = (packet->address << 1) |
     670:	464b      	mov	r3, r9
     672:	881b      	ldrh	r3, [r3, #0]
     674:	005b      	lsls	r3, r3, #1
			(packet->high_speed << SERCOM_I2CM_ADDR_HS_Pos) |
     676:	464a      	mov	r2, r9
     678:	7a52      	ldrb	r2, [r2, #9]
     67a:	0392      	lsls	r2, r2, #14
		i2c_module->ADDR.reg = (packet->address << 1) |
     67c:	4313      	orrs	r3, r2
			(packet->high_speed << SERCOM_I2CM_ADDR_HS_Pos) |
     67e:	2280      	movs	r2, #128	; 0x80
     680:	0212      	lsls	r2, r2, #8
     682:	4313      	orrs	r3, r2
		i2c_module->ADDR.reg = (packet->address << 1) |
     684:	626b      	str	r3, [r5, #36]	; 0x24
		tmp_status = _i2c_master_wait_for_bus(module);
     686:	0030      	movs	r0, r6
     688:	4b3b      	ldr	r3, [pc, #236]	; (778 <_i2c_master_read_packet+0x18c>)
     68a:	4798      	blx	r3
     68c:	9001      	str	r0, [sp, #4]
		i2c_module->CTRLB.reg &= ~SERCOM_I2CM_CTRLB_ACKACT;
     68e:	686b      	ldr	r3, [r5, #4]
     690:	4a38      	ldr	r2, [pc, #224]	; (774 <_i2c_master_read_packet+0x188>)
     692:	4013      	ands	r3, r2
     694:	606b      	str	r3, [r5, #4]
		if (tmp_status == STATUS_OK) {
     696:	2800      	cmp	r0, #0
     698:	d1de      	bne.n	658 <_i2c_master_read_packet+0x6c>
			tmp_status = _i2c_master_address_response(module);
     69a:	0030      	movs	r0, r6
     69c:	4b38      	ldr	r3, [pc, #224]	; (780 <_i2c_master_read_packet+0x194>)
     69e:	4798      	blx	r3
     6a0:	9001      	str	r0, [sp, #4]
		if (tmp_status == STATUS_OK) {
     6a2:	2800      	cmp	r0, #0
     6a4:	d1d8      	bne.n	658 <_i2c_master_read_packet+0x6c>
			i2c_module->ADDR.reg = (((packet->address >> 8) | 0x78) << 1) |
     6a6:	464b      	mov	r3, r9
     6a8:	881b      	ldrh	r3, [r3, #0]
     6aa:	0a1b      	lsrs	r3, r3, #8
     6ac:	2278      	movs	r2, #120	; 0x78
     6ae:	4313      	orrs	r3, r2
     6b0:	005b      	lsls	r3, r3, #1
				(packet->high_speed << SERCOM_I2CM_ADDR_HS_Pos) |
     6b2:	464a      	mov	r2, r9
     6b4:	7a52      	ldrb	r2, [r2, #9]
     6b6:	0392      	lsls	r2, r2, #14
     6b8:	2101      	movs	r1, #1
     6ba:	430a      	orrs	r2, r1
     6bc:	4313      	orrs	r3, r2
			i2c_module->ADDR.reg = (((packet->address >> 8) | 0x78) << 1) |
     6be:	626b      	str	r3, [r5, #36]	; 0x24
     6c0:	e7b8      	b.n	634 <_i2c_master_read_packet+0x48>
		i2c_module->CTRLB.reg |= SERCOM_I2CM_CTRLB_ACKACT;
     6c2:	686a      	ldr	r2, [r5, #4]
     6c4:	2380      	movs	r3, #128	; 0x80
     6c6:	02db      	lsls	r3, r3, #11
     6c8:	4313      	orrs	r3, r2
     6ca:	606b      	str	r3, [r5, #4]
     6cc:	e7c1      	b.n	652 <_i2c_master_read_packet+0x66>
		tmp_status = _i2c_master_address_response(module);
     6ce:	0030      	movs	r0, r6
     6d0:	4b2b      	ldr	r3, [pc, #172]	; (780 <_i2c_master_read_packet+0x194>)
     6d2:	4798      	blx	r3
     6d4:	9001      	str	r0, [sp, #4]
	if (tmp_status == STATUS_OK) {
     6d6:	2800      	cmp	r0, #0
     6d8:	d1be      	bne.n	658 <_i2c_master_read_packet+0x6c>
     6da:	3c01      	subs	r4, #1
     6dc:	b2a4      	uxth	r4, r4
     6de:	4680      	mov	r8, r0
		while (tmp_data_length--) {
     6e0:	4b28      	ldr	r3, [pc, #160]	; (784 <_i2c_master_read_packet+0x198>)
     6e2:	469b      	mov	fp, r3
     6e4:	e015      	b.n	712 <_i2c_master_read_packet+0x126>
					((sclsm_flag) && (tmp_data_length == 1)))) {
     6e6:	2c01      	cmp	r4, #1
     6e8:	d020      	beq.n	72c <_i2c_master_read_packet+0x140>
				_i2c_master_wait_for_sync(module);
     6ea:	0030      	movs	r0, r6
     6ec:	4b26      	ldr	r3, [pc, #152]	; (788 <_i2c_master_read_packet+0x19c>)
     6ee:	4798      	blx	r3
				packet->data[counter++] = i2c_module->DATA.reg;
     6f0:	4643      	mov	r3, r8
     6f2:	1c5f      	adds	r7, r3, #1
     6f4:	b2bf      	uxth	r7, r7
     6f6:	2328      	movs	r3, #40	; 0x28
     6f8:	5ceb      	ldrb	r3, [r5, r3]
     6fa:	464a      	mov	r2, r9
     6fc:	6852      	ldr	r2, [r2, #4]
     6fe:	4641      	mov	r1, r8
     700:	5453      	strb	r3, [r2, r1]
				tmp_status = _i2c_master_wait_for_bus(module);
     702:	0030      	movs	r0, r6
     704:	4b1c      	ldr	r3, [pc, #112]	; (778 <_i2c_master_read_packet+0x18c>)
     706:	4798      	blx	r3
     708:	3c01      	subs	r4, #1
     70a:	b2a4      	uxth	r4, r4
			if (tmp_status != STATUS_OK) {
     70c:	2800      	cmp	r0, #0
     70e:	d115      	bne.n	73c <_i2c_master_read_packet+0x150>
				packet->data[counter++] = i2c_module->DATA.reg;
     710:	46b8      	mov	r8, r7
		while (tmp_data_length--) {
     712:	455c      	cmp	r4, fp
     714:	d014      	beq.n	740 <_i2c_master_read_packet+0x154>
			if (!(i2c_module->STATUS.reg & SERCOM_I2CM_STATUS_BUSSTATE(2))) {
     716:	8b6b      	ldrh	r3, [r5, #26]
     718:	069b      	lsls	r3, r3, #26
     71a:	d527      	bpl.n	76c <_i2c_master_read_packet+0x180>
			if (module->send_nack && (((!sclsm_flag) && (tmp_data_length == 0)) ||
     71c:	7af3      	ldrb	r3, [r6, #11]
     71e:	2b00      	cmp	r3, #0
     720:	d0e3      	beq.n	6ea <_i2c_master_read_packet+0xfe>
     722:	4653      	mov	r3, sl
     724:	2b00      	cmp	r3, #0
     726:	d1de      	bne.n	6e6 <_i2c_master_read_packet+0xfa>
     728:	2c00      	cmp	r4, #0
     72a:	d1de      	bne.n	6ea <_i2c_master_read_packet+0xfe>
				i2c_module->CTRLB.reg |= SERCOM_I2CM_CTRLB_ACKACT;
     72c:	686a      	ldr	r2, [r5, #4]
     72e:	2380      	movs	r3, #128	; 0x80
     730:	02db      	lsls	r3, r3, #11
     732:	4313      	orrs	r3, r2
     734:	606b      	str	r3, [r5, #4]
     736:	3c01      	subs	r4, #1
     738:	b2a4      	uxth	r4, r4
     73a:	e7ea      	b.n	712 <_i2c_master_read_packet+0x126>
				packet->data[counter++] = i2c_module->DATA.reg;
     73c:	46b8      	mov	r8, r7
				tmp_status = _i2c_master_wait_for_bus(module);
     73e:	9001      	str	r0, [sp, #4]
		if (module->send_stop) {
     740:	7ab3      	ldrb	r3, [r6, #10]
     742:	2b00      	cmp	r3, #0
     744:	d109      	bne.n	75a <_i2c_master_read_packet+0x16e>
		_i2c_master_wait_for_sync(module);
     746:	0030      	movs	r0, r6
     748:	4b0f      	ldr	r3, [pc, #60]	; (788 <_i2c_master_read_packet+0x19c>)
     74a:	4798      	blx	r3
		packet->data[counter] = i2c_module->DATA.reg;
     74c:	2328      	movs	r3, #40	; 0x28
     74e:	5cea      	ldrb	r2, [r5, r3]
     750:	464b      	mov	r3, r9
     752:	685b      	ldr	r3, [r3, #4]
     754:	4641      	mov	r1, r8
     756:	545a      	strb	r2, [r3, r1]
     758:	e77e      	b.n	658 <_i2c_master_read_packet+0x6c>
			_i2c_master_wait_for_sync(module);
     75a:	0030      	movs	r0, r6
     75c:	4b0a      	ldr	r3, [pc, #40]	; (788 <_i2c_master_read_packet+0x19c>)
     75e:	4798      	blx	r3
			i2c_module->CTRLB.reg |= SERCOM_I2CM_CTRLB_CMD(3);
     760:	686a      	ldr	r2, [r5, #4]
     762:	23c0      	movs	r3, #192	; 0xc0
     764:	029b      	lsls	r3, r3, #10
     766:	4313      	orrs	r3, r2
     768:	606b      	str	r3, [r5, #4]
     76a:	e7ec      	b.n	746 <_i2c_master_read_packet+0x15a>
				return STATUS_ERR_PACKET_COLLISION;
     76c:	2341      	movs	r3, #65	; 0x41
     76e:	9301      	str	r3, [sp, #4]
     770:	e772      	b.n	658 <_i2c_master_read_packet+0x6c>
     772:	46c0      	nop			; (mov r8, r8)
     774:	fffbffff 	.word	0xfffbffff
     778:	000005a1 	.word	0x000005a1
     77c:	000005cd 	.word	0x000005cd
     780:	00000571 	.word	0x00000571
     784:	0000ffff 	.word	0x0000ffff
     788:	00000269 	.word	0x00000269

0000078c <_i2c_master_write_packet>:
 *                                      acknowledged the address
 */
static enum status_code _i2c_master_write_packet(
		struct i2c_master_module *const module,
		struct i2c_master_packet *const packet)
{
     78c:	b5f0      	push	{r4, r5, r6, r7, lr}
     78e:	46de      	mov	lr, fp
     790:	4657      	mov	r7, sl
     792:	464e      	mov	r6, r9
     794:	4645      	mov	r5, r8
     796:	b5e0      	push	{r5, r6, r7, lr}
     798:	b083      	sub	sp, #12
     79a:	0006      	movs	r6, r0
     79c:	000f      	movs	r7, r1
	SercomI2cm *const i2c_module = &(module->hw->I2CM);
     79e:	6805      	ldr	r5, [r0, #0]

	/* Return value. */
	enum status_code tmp_status;
	uint16_t tmp_data_length = packet->data_length;
     7a0:	884c      	ldrh	r4, [r1, #2]

	_i2c_master_wait_for_sync(module);
     7a2:	4b32      	ldr	r3, [pc, #200]	; (86c <_i2c_master_write_packet+0xe0>)
     7a4:	4798      	blx	r3

	/* Switch to high speed mode */
	if (packet->high_speed) {
     7a6:	7a7b      	ldrb	r3, [r7, #9]
     7a8:	2b00      	cmp	r3, #0
     7aa:	d11d      	bne.n	7e8 <_i2c_master_write_packet+0x5c>
		_i2c_master_send_hs_master_code(module, packet->hs_master_code);
	}

	/* Set action to ACK. */
	i2c_module->CTRLB.reg &= ~SERCOM_I2CM_CTRLB_ACKACT;
     7ac:	686b      	ldr	r3, [r5, #4]
     7ae:	4a30      	ldr	r2, [pc, #192]	; (870 <_i2c_master_write_packet+0xe4>)
     7b0:	4013      	ands	r3, r2
     7b2:	606b      	str	r3, [r5, #4]

	/* Set address and direction bit. Will send start command on bus. */
	if (packet->ten_bit_address) {
     7b4:	7a3b      	ldrb	r3, [r7, #8]
     7b6:	2b00      	cmp	r3, #0
     7b8:	d01b      	beq.n	7f2 <_i2c_master_write_packet+0x66>
		i2c_module->ADDR.reg = (packet->address << 1) | I2C_TRANSFER_WRITE |
     7ba:	883b      	ldrh	r3, [r7, #0]
     7bc:	005b      	lsls	r3, r3, #1
			(packet->high_speed << SERCOM_I2CM_ADDR_HS_Pos) |
     7be:	7a7a      	ldrb	r2, [r7, #9]
     7c0:	0392      	lsls	r2, r2, #14
		i2c_module->ADDR.reg = (packet->address << 1) | I2C_TRANSFER_WRITE |
     7c2:	4313      	orrs	r3, r2
			(packet->high_speed << SERCOM_I2CM_ADDR_HS_Pos) |
     7c4:	2280      	movs	r2, #128	; 0x80
     7c6:	0212      	lsls	r2, r2, #8
     7c8:	4313      	orrs	r3, r2
		i2c_module->ADDR.reg = (packet->address << 1) | I2C_TRANSFER_WRITE |
     7ca:	626b      	str	r3, [r5, #36]	; 0x24
	} else {
		i2c_module->ADDR.reg = (packet->address << 1) | I2C_TRANSFER_WRITE |
			(packet->high_speed << SERCOM_I2CM_ADDR_HS_Pos);
	}
	/* Wait for response on bus. */
	tmp_status = _i2c_master_wait_for_bus(module);
     7cc:	0030      	movs	r0, r6
     7ce:	4b29      	ldr	r3, [pc, #164]	; (874 <_i2c_master_write_packet+0xe8>)
     7d0:	4798      	blx	r3
     7d2:	9001      	str	r0, [sp, #4]

	/* Check for address response error unless previous error is
	 * detected. */
	if (tmp_status == STATUS_OK) {
     7d4:	2800      	cmp	r0, #0
     7d6:	d013      	beq.n	800 <_i2c_master_write_packet+0x74>
			i2c_module->CTRLB.reg |= SERCOM_I2CM_CTRLB_CMD(3);
		}
	}

	return tmp_status;
}
     7d8:	9801      	ldr	r0, [sp, #4]
     7da:	b003      	add	sp, #12
     7dc:	bc3c      	pop	{r2, r3, r4, r5}
     7de:	4690      	mov	r8, r2
     7e0:	4699      	mov	r9, r3
     7e2:	46a2      	mov	sl, r4
     7e4:	46ab      	mov	fp, r5
     7e6:	bdf0      	pop	{r4, r5, r6, r7, pc}
		_i2c_master_send_hs_master_code(module, packet->hs_master_code);
     7e8:	7ab9      	ldrb	r1, [r7, #10]
     7ea:	0030      	movs	r0, r6
     7ec:	4b22      	ldr	r3, [pc, #136]	; (878 <_i2c_master_write_packet+0xec>)
     7ee:	4798      	blx	r3
     7f0:	e7dc      	b.n	7ac <_i2c_master_write_packet+0x20>
		i2c_module->ADDR.reg = (packet->address << 1) | I2C_TRANSFER_WRITE |
     7f2:	883b      	ldrh	r3, [r7, #0]
     7f4:	005b      	lsls	r3, r3, #1
			(packet->high_speed << SERCOM_I2CM_ADDR_HS_Pos);
     7f6:	7a7a      	ldrb	r2, [r7, #9]
     7f8:	0392      	lsls	r2, r2, #14
		i2c_module->ADDR.reg = (packet->address << 1) | I2C_TRANSFER_WRITE |
     7fa:	4313      	orrs	r3, r2
     7fc:	626b      	str	r3, [r5, #36]	; 0x24
     7fe:	e7e5      	b.n	7cc <_i2c_master_write_packet+0x40>
		tmp_status = _i2c_master_address_response(module);
     800:	0030      	movs	r0, r6
     802:	4b1e      	ldr	r3, [pc, #120]	; (87c <_i2c_master_write_packet+0xf0>)
     804:	4798      	blx	r3
     806:	1e03      	subs	r3, r0, #0
     808:	9001      	str	r0, [sp, #4]
	if (tmp_status == STATUS_OK) {
     80a:	d1e5      	bne.n	7d8 <_i2c_master_write_packet+0x4c>
     80c:	46a0      	mov	r8, r4
     80e:	2400      	movs	r4, #0
			if (!(i2c_module->STATUS.reg & SERCOM_I2CM_STATUS_BUSSTATE(2))) {
     810:	3320      	adds	r3, #32
     812:	4699      	mov	r9, r3
			_i2c_master_wait_for_sync(module);
     814:	4b15      	ldr	r3, [pc, #84]	; (86c <_i2c_master_write_packet+0xe0>)
     816:	469b      	mov	fp, r3
			tmp_status = _i2c_master_wait_for_bus(module);
     818:	4b16      	ldr	r3, [pc, #88]	; (874 <_i2c_master_write_packet+0xe8>)
     81a:	469a      	mov	sl, r3
		while (tmp_data_length--) {
     81c:	4544      	cmp	r4, r8
     81e:	d015      	beq.n	84c <_i2c_master_write_packet+0xc0>
			if (!(i2c_module->STATUS.reg & SERCOM_I2CM_STATUS_BUSSTATE(2))) {
     820:	8b6b      	ldrh	r3, [r5, #26]
     822:	464a      	mov	r2, r9
     824:	4213      	tst	r3, r2
     826:	d01d      	beq.n	864 <_i2c_master_write_packet+0xd8>
			_i2c_master_wait_for_sync(module);
     828:	0030      	movs	r0, r6
     82a:	47d8      	blx	fp
			i2c_module->DATA.reg = packet->data[buffer_counter++];
     82c:	687b      	ldr	r3, [r7, #4]
     82e:	5d1a      	ldrb	r2, [r3, r4]
     830:	2328      	movs	r3, #40	; 0x28
     832:	54ea      	strb	r2, [r5, r3]
			tmp_status = _i2c_master_wait_for_bus(module);
     834:	0030      	movs	r0, r6
     836:	47d0      	blx	sl
			if (tmp_status != STATUS_OK) {
     838:	2800      	cmp	r0, #0
     83a:	d106      	bne.n	84a <_i2c_master_write_packet+0xbe>
			if (i2c_module->STATUS.reg & SERCOM_I2CM_STATUS_RXNACK) {
     83c:	8b6b      	ldrh	r3, [r5, #26]
     83e:	3401      	adds	r4, #1
     840:	075b      	lsls	r3, r3, #29
     842:	d5eb      	bpl.n	81c <_i2c_master_write_packet+0x90>
				tmp_status = STATUS_ERR_OVERFLOW;
     844:	231e      	movs	r3, #30
     846:	9301      	str	r3, [sp, #4]
     848:	e000      	b.n	84c <_i2c_master_write_packet+0xc0>
			tmp_status = _i2c_master_wait_for_bus(module);
     84a:	9001      	str	r0, [sp, #4]
		if (module->send_stop) {
     84c:	7ab3      	ldrb	r3, [r6, #10]
     84e:	2b00      	cmp	r3, #0
     850:	d0c2      	beq.n	7d8 <_i2c_master_write_packet+0x4c>
			_i2c_master_wait_for_sync(module);
     852:	0030      	movs	r0, r6
     854:	4b05      	ldr	r3, [pc, #20]	; (86c <_i2c_master_write_packet+0xe0>)
     856:	4798      	blx	r3
			i2c_module->CTRLB.reg |= SERCOM_I2CM_CTRLB_CMD(3);
     858:	686a      	ldr	r2, [r5, #4]
     85a:	23c0      	movs	r3, #192	; 0xc0
     85c:	029b      	lsls	r3, r3, #10
     85e:	4313      	orrs	r3, r2
     860:	606b      	str	r3, [r5, #4]
     862:	e7b9      	b.n	7d8 <_i2c_master_write_packet+0x4c>
				return STATUS_ERR_PACKET_COLLISION;
     864:	2341      	movs	r3, #65	; 0x41
     866:	9301      	str	r3, [sp, #4]
     868:	e7b6      	b.n	7d8 <_i2c_master_write_packet+0x4c>
     86a:	46c0      	nop			; (mov r8, r8)
     86c:	00000269 	.word	0x00000269
     870:	fffbffff 	.word	0xfffbffff
     874:	000005a1 	.word	0x000005a1
     878:	000005cd 	.word	0x000005cd
     87c:	00000571 	.word	0x00000571

00000880 <i2c_master_read_packet_wait>:
{
     880:	b510      	push	{r4, lr}
	if (module->buffer_remaining > 0) {
     882:	8b83      	ldrh	r3, [r0, #28]
     884:	b29b      	uxth	r3, r3
		return STATUS_BUSY;
     886:	2205      	movs	r2, #5
	if (module->buffer_remaining > 0) {
     888:	2b00      	cmp	r3, #0
     88a:	d001      	beq.n	890 <i2c_master_read_packet_wait+0x10>
}
     88c:	0010      	movs	r0, r2
     88e:	bd10      	pop	{r4, pc}
	module->send_stop = true;
     890:	3301      	adds	r3, #1
     892:	7283      	strb	r3, [r0, #10]
	module->send_nack = true;
     894:	72c3      	strb	r3, [r0, #11]
	return _i2c_master_read_packet(module, packet);
     896:	4b02      	ldr	r3, [pc, #8]	; (8a0 <i2c_master_read_packet_wait+0x20>)
     898:	4798      	blx	r3
     89a:	0002      	movs	r2, r0
     89c:	e7f6      	b.n	88c <i2c_master_read_packet_wait+0xc>
     89e:	46c0      	nop			; (mov r8, r8)
     8a0:	000005ed 	.word	0x000005ed

000008a4 <i2c_master_write_packet_wait>:
 *                                      last data sent
 */
enum status_code i2c_master_write_packet_wait(
		struct i2c_master_module *const module,
		struct i2c_master_packet *const packet)
{
     8a4:	b510      	push	{r4, lr}
	Assert(module->hw);
	Assert(packet);

#if I2C_MASTER_CALLBACK_MODE == true
	/* Check if the I2C module is busy with a job */
	if (module->buffer_remaining > 0) {
     8a6:	8b83      	ldrh	r3, [r0, #28]
     8a8:	b29b      	uxth	r3, r3
		return STATUS_BUSY;
     8aa:	2205      	movs	r2, #5
	if (module->buffer_remaining > 0) {
     8ac:	2b00      	cmp	r3, #0
     8ae:	d001      	beq.n	8b4 <i2c_master_write_packet_wait+0x10>

	module->send_stop = true;
	module->send_nack = true;

	return _i2c_master_write_packet(module, packet);
}
     8b0:	0010      	movs	r0, r2
     8b2:	bd10      	pop	{r4, pc}
	module->send_stop = true;
     8b4:	3301      	adds	r3, #1
     8b6:	7283      	strb	r3, [r0, #10]
	module->send_nack = true;
     8b8:	72c3      	strb	r3, [r0, #11]
	return _i2c_master_write_packet(module, packet);
     8ba:	4b02      	ldr	r3, [pc, #8]	; (8c4 <i2c_master_write_packet_wait+0x20>)
     8bc:	4798      	blx	r3
     8be:	0002      	movs	r2, r0
     8c0:	e7f6      	b.n	8b0 <i2c_master_write_packet_wait+0xc>
     8c2:	46c0      	nop			; (mov r8, r8)
     8c4:	0000078d 	.word	0x0000078d

000008c8 <_i2c_master_wait_for_sync>:
	SercomI2cm *const i2c_hw = &(module->hw->I2CM);
     8c8:	6801      	ldr	r1, [r0, #0]
	return (i2c_hw->SYNCBUSY.reg & SERCOM_I2CM_SYNCBUSY_MASK);
     8ca:	2207      	movs	r2, #7
     8cc:	69cb      	ldr	r3, [r1, #28]
	while (i2c_master_is_syncing(module)) {
     8ce:	421a      	tst	r2, r3
     8d0:	d1fc      	bne.n	8cc <_i2c_master_wait_for_sync+0x4>
}
     8d2:	4770      	bx	lr

000008d4 <_i2c_master_read>:
 *
 * \param[in,out] module  Pointer to software module structure
 */
static void _i2c_master_read(
		struct i2c_master_module *const module)
{
     8d4:	b570      	push	{r4, r5, r6, lr}
     8d6:	0004      	movs	r4, r0
	/* Sanity check arguments. */
	Assert(module);
	Assert(module->hw);

	SercomI2cm *const i2c_module = &(module->hw->I2CM);
     8d8:	6806      	ldr	r6, [r0, #0]
	bool sclsm_flag = i2c_module->CTRLA.bit.SCLSM;
     8da:	6832      	ldr	r2, [r6, #0]

	/* Find index to save next value in buffer */
	uint16_t buffer_index = module->buffer_length;
     8dc:	8b45      	ldrh	r5, [r0, #26]
	buffer_index -= module->buffer_remaining;
     8de:	8b83      	ldrh	r3, [r0, #28]
     8e0:	1aed      	subs	r5, r5, r3
     8e2:	b2ad      	uxth	r5, r5

	module->buffer_remaining--;
     8e4:	8b83      	ldrh	r3, [r0, #28]
     8e6:	3b01      	subs	r3, #1
     8e8:	b29b      	uxth	r3, r3
     8ea:	8383      	strh	r3, [r0, #28]

	if (sclsm_flag) {
     8ec:	0113      	lsls	r3, r2, #4
     8ee:	d51d      	bpl.n	92c <_i2c_master_read+0x58>
		if (module->send_nack && module->buffer_remaining == 1) {
     8f0:	7ac3      	ldrb	r3, [r0, #11]
     8f2:	2b00      	cmp	r3, #0
     8f4:	d003      	beq.n	8fe <_i2c_master_read+0x2a>
     8f6:	8b83      	ldrh	r3, [r0, #28]
     8f8:	b29b      	uxth	r3, r3
     8fa:	2b01      	cmp	r3, #1
     8fc:	d010      	beq.n	920 <_i2c_master_read+0x4c>
			/* Set action to NACK. */
			i2c_module->CTRLB.reg |= SERCOM_I2CM_CTRLB_ACKACT;
		}
	}

	if (module->buffer_remaining == 0) {
     8fe:	8ba3      	ldrh	r3, [r4, #28]
     900:	b29b      	uxth	r3, r3
     902:	2b00      	cmp	r3, #0
     904:	d102      	bne.n	90c <_i2c_master_read+0x38>
		if (module->send_stop) {
     906:	7aa3      	ldrb	r3, [r4, #10]
     908:	2b00      	cmp	r3, #0
     90a:	d11c      	bne.n	946 <_i2c_master_read+0x72>
			i2c_module->CTRLB.reg |= SERCOM_I2CM_CTRLB_CMD(3);
		}
	}
	
	/* Read byte from slave and put in buffer */
	_i2c_master_wait_for_sync(module);
     90c:	0020      	movs	r0, r4
     90e:	4b12      	ldr	r3, [pc, #72]	; (958 <_i2c_master_read+0x84>)
     910:	4798      	blx	r3
	module->buffer[buffer_index] = i2c_module->DATA.reg;
     912:	6a23      	ldr	r3, [r4, #32]
     914:	195d      	adds	r5, r3, r5
     916:	2328      	movs	r3, #40	; 0x28
     918:	5cf3      	ldrb	r3, [r6, r3]
     91a:	b2db      	uxtb	r3, r3
     91c:	702b      	strb	r3, [r5, #0]
}
     91e:	bd70      	pop	{r4, r5, r6, pc}
			i2c_module->CTRLB.reg |= SERCOM_I2CM_CTRLB_ACKACT;
     920:	6872      	ldr	r2, [r6, #4]
     922:	2380      	movs	r3, #128	; 0x80
     924:	02db      	lsls	r3, r3, #11
     926:	4313      	orrs	r3, r2
     928:	6073      	str	r3, [r6, #4]
     92a:	e7e8      	b.n	8fe <_i2c_master_read+0x2a>
		if (module->send_nack && module->buffer_remaining == 0) {
     92c:	7ac3      	ldrb	r3, [r0, #11]
     92e:	2b00      	cmp	r3, #0
     930:	d0e5      	beq.n	8fe <_i2c_master_read+0x2a>
     932:	8b83      	ldrh	r3, [r0, #28]
     934:	b29b      	uxth	r3, r3
     936:	2b00      	cmp	r3, #0
     938:	d1e1      	bne.n	8fe <_i2c_master_read+0x2a>
			i2c_module->CTRLB.reg |= SERCOM_I2CM_CTRLB_ACKACT;
     93a:	6872      	ldr	r2, [r6, #4]
     93c:	2380      	movs	r3, #128	; 0x80
     93e:	02db      	lsls	r3, r3, #11
     940:	4313      	orrs	r3, r2
     942:	6073      	str	r3, [r6, #4]
     944:	e7db      	b.n	8fe <_i2c_master_read+0x2a>
			_i2c_master_wait_for_sync(module);
     946:	0020      	movs	r0, r4
     948:	4b03      	ldr	r3, [pc, #12]	; (958 <_i2c_master_read+0x84>)
     94a:	4798      	blx	r3
			i2c_module->CTRLB.reg |= SERCOM_I2CM_CTRLB_CMD(3);
     94c:	6872      	ldr	r2, [r6, #4]
     94e:	23c0      	movs	r3, #192	; 0xc0
     950:	029b      	lsls	r3, r3, #10
     952:	4313      	orrs	r3, r2
     954:	6073      	str	r3, [r6, #4]
     956:	e7d9      	b.n	90c <_i2c_master_read+0x38>
     958:	000008c9 	.word	0x000008c9

0000095c <_i2c_master_write>:
 * Write next data. Used by interrupt handler to send next data byte to slave.
 *
 * \param[in,out] module  Pointer to software module structure
 */
static void _i2c_master_write(struct i2c_master_module *const module)
{
     95c:	b570      	push	{r4, r5, r6, lr}
     95e:	0004      	movs	r4, r0
	/* Sanity check arguments. */
	Assert(module);
	Assert(module->hw);

	SercomI2cm *const i2c_module = &(module->hw->I2CM);
     960:	6805      	ldr	r5, [r0, #0]

	/* Check for ack from slave */
	if (i2c_module->STATUS.reg & SERCOM_I2CM_STATUS_RXNACK)
     962:	8b6b      	ldrh	r3, [r5, #26]
     964:	075b      	lsls	r3, r3, #29
     966:	d503      	bpl.n	970 <_i2c_master_write+0x14>
	{
		/* Set status */
		module->status = STATUS_ERR_OVERFLOW;
     968:	221e      	movs	r2, #30
     96a:	2325      	movs	r3, #37	; 0x25
     96c:	54c2      	strb	r2, [r0, r3]
	module->buffer_remaining--;

	/* Write byte from buffer to slave */
	_i2c_master_wait_for_sync(module);
	i2c_module->DATA.reg = module->buffer[buffer_index];
}
     96e:	bd70      	pop	{r4, r5, r6, pc}
	uint16_t buffer_index = module->buffer_length;
     970:	8b46      	ldrh	r6, [r0, #26]
	buffer_index -= module->buffer_remaining;
     972:	8b83      	ldrh	r3, [r0, #28]
     974:	1af6      	subs	r6, r6, r3
     976:	b2b6      	uxth	r6, r6
	module->buffer_remaining--;
     978:	8b83      	ldrh	r3, [r0, #28]
     97a:	3b01      	subs	r3, #1
     97c:	b29b      	uxth	r3, r3
     97e:	8383      	strh	r3, [r0, #28]
	_i2c_master_wait_for_sync(module);
     980:	4b04      	ldr	r3, [pc, #16]	; (994 <_i2c_master_write+0x38>)
     982:	4798      	blx	r3
	i2c_module->DATA.reg = module->buffer[buffer_index];
     984:	6a23      	ldr	r3, [r4, #32]
     986:	199e      	adds	r6, r3, r6
     988:	7833      	ldrb	r3, [r6, #0]
     98a:	b2db      	uxtb	r3, r3
     98c:	2228      	movs	r2, #40	; 0x28
     98e:	54ab      	strb	r3, [r5, r2]
     990:	e7ed      	b.n	96e <_i2c_master_write+0x12>
     992:	46c0      	nop			; (mov r8, r8)
     994:	000008c9 	.word	0x000008c9

00000998 <_i2c_master_interrupt_handler>:
 *
 * \param[in] instance  SERCOM instance that triggered the interrupt
 */
void _i2c_master_interrupt_handler(
		uint8_t instance)
{
     998:	b570      	push	{r4, r5, r6, lr}
	/* Get software module for callback handling */
	struct i2c_master_module *module =
     99a:	0080      	lsls	r0, r0, #2
     99c:	4b75      	ldr	r3, [pc, #468]	; (b74 <_i2c_master_interrupt_handler+0x1dc>)
     99e:	58c4      	ldr	r4, [r0, r3]
			(struct i2c_master_module*)_sercom_instances[instance];

	Assert(module);

	SercomI2cm *const i2c_module = &(module->hw->I2CM);
     9a0:	6825      	ldr	r5, [r4, #0]
	bool sclsm_flag = i2c_module->CTRLA.bit.SCLSM;
     9a2:	682b      	ldr	r3, [r5, #0]
     9a4:	011b      	lsls	r3, r3, #4
     9a6:	0fda      	lsrs	r2, r3, #31

	/* Combine callback registered and enabled masks */
	uint8_t callback_mask = module->enabled_callback;
     9a8:	7e63      	ldrb	r3, [r4, #25]
	callback_mask &= module->registered_callback;
     9aa:	7e26      	ldrb	r6, [r4, #24]
     9ac:	401e      	ands	r6, r3

	/* Check if the module should respond to address ack */
	if ((module->buffer_length <= 0) && (module->buffer_remaining > 0)) {
     9ae:	8b63      	ldrh	r3, [r4, #26]
     9b0:	b29b      	uxth	r3, r3
     9b2:	2b00      	cmp	r3, #0
     9b4:	d103      	bne.n	9be <_i2c_master_interrupt_handler+0x26>
     9b6:	8ba3      	ldrh	r3, [r4, #28]
     9b8:	b29b      	uxth	r3, r3
     9ba:	2b00      	cmp	r3, #0
     9bc:	d123      	bne.n	a06 <_i2c_master_interrupt_handler+0x6e>
		/* Call function for address response */
		_i2c_master_async_address_response(module);

	/* Check if buffer write is done */
	} else if ((module->buffer_length > 0) && (module->buffer_remaining <= 0) &&
     9be:	8b63      	ldrh	r3, [r4, #26]
     9c0:	b29b      	uxth	r3, r3
     9c2:	2b00      	cmp	r3, #0
     9c4:	d008      	beq.n	9d8 <_i2c_master_interrupt_handler+0x40>
     9c6:	8ba3      	ldrh	r3, [r4, #28]
     9c8:	b29b      	uxth	r3, r3
     9ca:	2b00      	cmp	r3, #0
     9cc:	d104      	bne.n	9d8 <_i2c_master_interrupt_handler+0x40>
			(module->status == STATUS_BUSY) &&
     9ce:	3325      	adds	r3, #37	; 0x25
     9d0:	5ce3      	ldrb	r3, [r4, r3]
	} else if ((module->buffer_length > 0) && (module->buffer_remaining <= 0) &&
     9d2:	2b05      	cmp	r3, #5
     9d4:	d100      	bne.n	9d8 <_i2c_master_interrupt_handler+0x40>
     9d6:	e06d      	b.n	ab4 <_i2c_master_interrupt_handler+0x11c>
		if (callback_mask & (1 << I2C_MASTER_CALLBACK_WRITE_COMPLETE)) {
			module->callbacks[I2C_MASTER_CALLBACK_WRITE_COMPLETE](module);
		}

	/* Continue buffer write/read */
	} else if ((module->buffer_length > 0) && (module->buffer_remaining > 0)){
     9d8:	8b63      	ldrh	r3, [r4, #26]
     9da:	b29b      	uxth	r3, r3
     9dc:	2b00      	cmp	r3, #0
     9de:	d024      	beq.n	a2a <_i2c_master_interrupt_handler+0x92>
     9e0:	8ba3      	ldrh	r3, [r4, #28]
     9e2:	b29b      	uxth	r3, r3
     9e4:	2b00      	cmp	r3, #0
     9e6:	d020      	beq.n	a2a <_i2c_master_interrupt_handler+0x92>
		/* Check that bus ownership is not lost */
		if ((!(i2c_module->STATUS.reg & SERCOM_I2CM_STATUS_BUSSTATE(2))) &&
     9e8:	8b6b      	ldrh	r3, [r5, #26]
     9ea:	069b      	lsls	r3, r3, #26
     9ec:	d500      	bpl.n	9f0 <_i2c_master_interrupt_handler+0x58>
     9ee:	e081      	b.n	af4 <_i2c_master_interrupt_handler+0x15c>
     9f0:	2a00      	cmp	r2, #0
     9f2:	d004      	beq.n	9fe <_i2c_master_interrupt_handler+0x66>
				(!(sclsm_flag && (module->buffer_remaining == 1))))	{
     9f4:	8ba3      	ldrh	r3, [r4, #28]
     9f6:	b29b      	uxth	r3, r3
     9f8:	2b01      	cmp	r3, #1
     9fa:	d100      	bne.n	9fe <_i2c_master_interrupt_handler+0x66>
     9fc:	e07a      	b.n	af4 <_i2c_master_interrupt_handler+0x15c>
			module->status = STATUS_ERR_PACKET_COLLISION;
     9fe:	2241      	movs	r2, #65	; 0x41
     a00:	2325      	movs	r3, #37	; 0x25
     a02:	54e2      	strb	r2, [r4, r3]
     a04:	e011      	b.n	a2a <_i2c_master_interrupt_handler+0x92>
	if (i2c_module->INTFLAG.reg & SERCOM_I2CM_INTFLAG_MB)
     a06:	7e2b      	ldrb	r3, [r5, #24]
     a08:	07db      	lsls	r3, r3, #31
     a0a:	d507      	bpl.n	a1c <_i2c_master_interrupt_handler+0x84>
		i2c_module->INTFLAG.reg = SERCOM_I2CM_INTENCLR_MB;
     a0c:	2301      	movs	r3, #1
     a0e:	762b      	strb	r3, [r5, #24]
		if (i2c_module->STATUS.reg & SERCOM_I2CM_STATUS_ARBLOST) {
     a10:	8b6b      	ldrh	r3, [r5, #26]
     a12:	079b      	lsls	r3, r3, #30
     a14:	d52e      	bpl.n	a74 <_i2c_master_interrupt_handler+0xdc>
			module->status = STATUS_ERR_PACKET_COLLISION;
     a16:	2241      	movs	r2, #65	; 0x41
     a18:	2325      	movs	r3, #37	; 0x25
     a1a:	54e2      	strb	r2, [r4, r3]
	module->buffer_length = module->buffer_remaining;
     a1c:	8ba3      	ldrh	r3, [r4, #28]
     a1e:	b29b      	uxth	r3, r3
     a20:	8363      	strh	r3, [r4, #26]
	if (module->status == STATUS_BUSY) {
     a22:	2325      	movs	r3, #37	; 0x25
     a24:	5ce3      	ldrb	r3, [r4, r3]
     a26:	2b05      	cmp	r3, #5
     a28:	d038      	beq.n	a9c <_i2c_master_interrupt_handler+0x104>
			_i2c_master_read(module);
		}
	}

	/* Check if read buffer transfer is complete */
	if ((module->buffer_length > 0) && (module->buffer_remaining <= 0) &&
     a2a:	8b63      	ldrh	r3, [r4, #26]
     a2c:	b29b      	uxth	r3, r3
     a2e:	2b00      	cmp	r3, #0
     a30:	d007      	beq.n	a42 <_i2c_master_interrupt_handler+0xaa>
     a32:	8ba3      	ldrh	r3, [r4, #28]
     a34:	b29b      	uxth	r3, r3
     a36:	2b00      	cmp	r3, #0
     a38:	d103      	bne.n	a42 <_i2c_master_interrupt_handler+0xaa>
			(module->status == STATUS_BUSY) &&
     a3a:	3325      	adds	r3, #37	; 0x25
     a3c:	5ce3      	ldrb	r3, [r4, r3]
	if ((module->buffer_length > 0) && (module->buffer_remaining <= 0) &&
     a3e:	2b05      	cmp	r3, #5
     a40:	d064      	beq.n	b0c <_i2c_master_interrupt_handler+0x174>
			module->callbacks[I2C_MASTER_CALLBACK_WRITE_COMPLETE](module);
		}
	}

	/* Check for error */
	if ((module->status != STATUS_BUSY) && (module->status != STATUS_OK)) {
     a42:	2325      	movs	r3, #37	; 0x25
     a44:	5ce3      	ldrb	r3, [r4, r3]
     a46:	2b05      	cmp	r3, #5
     a48:	d013      	beq.n	a72 <_i2c_master_interrupt_handler+0xda>
     a4a:	2325      	movs	r3, #37	; 0x25
     a4c:	5ce3      	ldrb	r3, [r4, r3]
     a4e:	2b00      	cmp	r3, #0
     a50:	d00f      	beq.n	a72 <_i2c_master_interrupt_handler+0xda>
		/* Stop packet operation */
		i2c_module->INTENCLR.reg = SERCOM_I2CM_INTENCLR_MB |
     a52:	2303      	movs	r3, #3
     a54:	752b      	strb	r3, [r5, #20]
				SERCOM_I2CM_INTENCLR_SB;

		module->buffer_length = 0;
     a56:	2300      	movs	r3, #0
     a58:	8363      	strh	r3, [r4, #26]
		module->buffer_remaining = 0;
     a5a:	83a3      	strh	r3, [r4, #28]

		/* Send nack and stop command unless arbitration is lost */
		if ((module->status != STATUS_ERR_PACKET_COLLISION) &&
     a5c:	3325      	adds	r3, #37	; 0x25
     a5e:	5ce3      	ldrb	r3, [r4, r3]
     a60:	2b41      	cmp	r3, #65	; 0x41
     a62:	d003      	beq.n	a6c <_i2c_master_interrupt_handler+0xd4>
     a64:	7aa3      	ldrb	r3, [r4, #10]
     a66:	2b00      	cmp	r3, #0
     a68:	d000      	beq.n	a6c <_i2c_master_interrupt_handler+0xd4>
     a6a:	e075      	b.n	b58 <_i2c_master_interrupt_handler+0x1c0>
			i2c_module->CTRLB.reg |= SERCOM_I2CM_CTRLB_ACKACT |
					SERCOM_I2CM_CTRLB_CMD(3);
		}

		/* Call error callback if enabled and registered */
		if (callback_mask & (1 << I2C_MASTER_CALLBACK_ERROR)) {
     a6c:	0773      	lsls	r3, r6, #29
     a6e:	d500      	bpl.n	a72 <_i2c_master_interrupt_handler+0xda>
     a70:	e07b      	b.n	b6a <_i2c_master_interrupt_handler+0x1d2>
			module->callbacks[I2C_MASTER_CALLBACK_ERROR](module);
		}
	}
}
     a72:	bd70      	pop	{r4, r5, r6, pc}
		else if (i2c_module->STATUS.reg & SERCOM_I2CM_STATUS_RXNACK) {
     a74:	8b6b      	ldrh	r3, [r5, #26]
     a76:	075b      	lsls	r3, r3, #29
     a78:	d5d0      	bpl.n	a1c <_i2c_master_interrupt_handler+0x84>
			module->status           = STATUS_ERR_BAD_ADDRESS;
     a7a:	2218      	movs	r2, #24
     a7c:	2325      	movs	r3, #37	; 0x25
     a7e:	54e2      	strb	r2, [r4, r3]
			module->buffer_remaining = 0;
     a80:	2300      	movs	r3, #0
     a82:	83a3      	strh	r3, [r4, #28]
			if (module->send_stop) {
     a84:	7aa3      	ldrb	r3, [r4, #10]
     a86:	2b00      	cmp	r3, #0
     a88:	d0c8      	beq.n	a1c <_i2c_master_interrupt_handler+0x84>
				_i2c_master_wait_for_sync(module);
     a8a:	0020      	movs	r0, r4
     a8c:	4b3a      	ldr	r3, [pc, #232]	; (b78 <_i2c_master_interrupt_handler+0x1e0>)
     a8e:	4798      	blx	r3
				i2c_module->CTRLB.reg |= SERCOM_I2CM_CTRLB_CMD(3);
     a90:	686a      	ldr	r2, [r5, #4]
     a92:	23c0      	movs	r3, #192	; 0xc0
     a94:	029b      	lsls	r3, r3, #10
     a96:	4313      	orrs	r3, r2
     a98:	606b      	str	r3, [r5, #4]
     a9a:	e7bf      	b.n	a1c <_i2c_master_interrupt_handler+0x84>
		if (module->transfer_direction == I2C_TRANSFER_WRITE) {
     a9c:	331f      	adds	r3, #31
     a9e:	5ce3      	ldrb	r3, [r4, r3]
     aa0:	2b00      	cmp	r3, #0
     aa2:	d003      	beq.n	aac <_i2c_master_interrupt_handler+0x114>
			_i2c_master_read(module);
     aa4:	0020      	movs	r0, r4
     aa6:	4b35      	ldr	r3, [pc, #212]	; (b7c <_i2c_master_interrupt_handler+0x1e4>)
     aa8:	4798      	blx	r3
     aaa:	e7be      	b.n	a2a <_i2c_master_interrupt_handler+0x92>
			_i2c_master_write(module);
     aac:	0020      	movs	r0, r4
     aae:	4b34      	ldr	r3, [pc, #208]	; (b80 <_i2c_master_interrupt_handler+0x1e8>)
     ab0:	4798      	blx	r3
     ab2:	e7ba      	b.n	a2a <_i2c_master_interrupt_handler+0x92>
			(module->transfer_direction == I2C_TRANSFER_WRITE)) {
     ab4:	331f      	adds	r3, #31
     ab6:	5ce3      	ldrb	r3, [r4, r3]
			(module->status == STATUS_BUSY) &&
     ab8:	2b00      	cmp	r3, #0
     aba:	d000      	beq.n	abe <_i2c_master_interrupt_handler+0x126>
     abc:	e78c      	b.n	9d8 <_i2c_master_interrupt_handler+0x40>
		i2c_module->INTENCLR.reg =
     abe:	3303      	adds	r3, #3
     ac0:	752b      	strb	r3, [r5, #20]
		module->buffer_length = 0;
     ac2:	2300      	movs	r3, #0
     ac4:	8363      	strh	r3, [r4, #26]
		module->status        = STATUS_OK;
     ac6:	3325      	adds	r3, #37	; 0x25
     ac8:	2200      	movs	r2, #0
     aca:	54e2      	strb	r2, [r4, r3]
		if (module->send_stop) {
     acc:	7aa3      	ldrb	r3, [r4, #10]
     ace:	2b00      	cmp	r3, #0
     ad0:	d107      	bne.n	ae2 <_i2c_master_interrupt_handler+0x14a>
			i2c_module->INTFLAG.reg = SERCOM_I2CM_INTFLAG_MB;
     ad2:	2301      	movs	r3, #1
     ad4:	762b      	strb	r3, [r5, #24]
		if (callback_mask & (1 << I2C_MASTER_CALLBACK_WRITE_COMPLETE)) {
     ad6:	07f3      	lsls	r3, r6, #31
     ad8:	d5a7      	bpl.n	a2a <_i2c_master_interrupt_handler+0x92>
			module->callbacks[I2C_MASTER_CALLBACK_WRITE_COMPLETE](module);
     ada:	68e3      	ldr	r3, [r4, #12]
     adc:	0020      	movs	r0, r4
     ade:	4798      	blx	r3
     ae0:	e7a3      	b.n	a2a <_i2c_master_interrupt_handler+0x92>
			_i2c_master_wait_for_sync(module);
     ae2:	0020      	movs	r0, r4
     ae4:	4b24      	ldr	r3, [pc, #144]	; (b78 <_i2c_master_interrupt_handler+0x1e0>)
     ae6:	4798      	blx	r3
			i2c_module->CTRLB.reg |= SERCOM_I2CM_CTRLB_CMD(3);
     ae8:	686a      	ldr	r2, [r5, #4]
     aea:	23c0      	movs	r3, #192	; 0xc0
     aec:	029b      	lsls	r3, r3, #10
     aee:	4313      	orrs	r3, r2
     af0:	606b      	str	r3, [r5, #4]
     af2:	e7f0      	b.n	ad6 <_i2c_master_interrupt_handler+0x13e>
		} else if (module->transfer_direction == I2C_TRANSFER_WRITE) {
     af4:	2324      	movs	r3, #36	; 0x24
     af6:	5ce3      	ldrb	r3, [r4, r3]
     af8:	2b00      	cmp	r3, #0
     afa:	d103      	bne.n	b04 <_i2c_master_interrupt_handler+0x16c>
			_i2c_master_write(module);
     afc:	0020      	movs	r0, r4
     afe:	4b20      	ldr	r3, [pc, #128]	; (b80 <_i2c_master_interrupt_handler+0x1e8>)
     b00:	4798      	blx	r3
     b02:	e792      	b.n	a2a <_i2c_master_interrupt_handler+0x92>
			_i2c_master_read(module);
     b04:	0020      	movs	r0, r4
     b06:	4b1d      	ldr	r3, [pc, #116]	; (b7c <_i2c_master_interrupt_handler+0x1e4>)
     b08:	4798      	blx	r3
     b0a:	e78e      	b.n	a2a <_i2c_master_interrupt_handler+0x92>
			(module->transfer_direction == I2C_TRANSFER_READ)) {
     b0c:	331f      	adds	r3, #31
     b0e:	5ce3      	ldrb	r3, [r4, r3]
			(module->status == STATUS_BUSY) &&
     b10:	2b01      	cmp	r3, #1
     b12:	d196      	bne.n	a42 <_i2c_master_interrupt_handler+0xaa>
		if (i2c_module->INTFLAG.reg & SERCOM_I2CM_INTFLAG_SB) {
     b14:	7e2b      	ldrb	r3, [r5, #24]
     b16:	079b      	lsls	r3, r3, #30
     b18:	d501      	bpl.n	b1e <_i2c_master_interrupt_handler+0x186>
			i2c_module->INTFLAG.reg = SERCOM_I2CM_INTFLAG_SB;
     b1a:	2302      	movs	r3, #2
     b1c:	762b      	strb	r3, [r5, #24]
		i2c_module->INTENCLR.reg =
     b1e:	2303      	movs	r3, #3
     b20:	752b      	strb	r3, [r5, #20]
		module->buffer_length = 0;
     b22:	2300      	movs	r3, #0
     b24:	8363      	strh	r3, [r4, #26]
		module->status        = STATUS_OK;
     b26:	3325      	adds	r3, #37	; 0x25
     b28:	2200      	movs	r2, #0
     b2a:	54e2      	strb	r2, [r4, r3]
		if ((callback_mask & (1 << I2C_MASTER_CALLBACK_READ_COMPLETE))
     b2c:	07b3      	lsls	r3, r6, #30
     b2e:	d503      	bpl.n	b38 <_i2c_master_interrupt_handler+0x1a0>
				&& (module->transfer_direction == I2C_TRANSFER_READ)) {
     b30:	2324      	movs	r3, #36	; 0x24
     b32:	5ce3      	ldrb	r3, [r4, r3]
     b34:	2b01      	cmp	r3, #1
     b36:	d00b      	beq.n	b50 <_i2c_master_interrupt_handler+0x1b8>
		} else if ((callback_mask & (1 << I2C_MASTER_CALLBACK_WRITE_COMPLETE))
     b38:	07f3      	lsls	r3, r6, #31
     b3a:	d400      	bmi.n	b3e <_i2c_master_interrupt_handler+0x1a6>
     b3c:	e781      	b.n	a42 <_i2c_master_interrupt_handler+0xaa>
				&& (module->transfer_direction == I2C_TRANSFER_WRITE)) {
     b3e:	2324      	movs	r3, #36	; 0x24
     b40:	5ce3      	ldrb	r3, [r4, r3]
     b42:	2b00      	cmp	r3, #0
     b44:	d000      	beq.n	b48 <_i2c_master_interrupt_handler+0x1b0>
     b46:	e77c      	b.n	a42 <_i2c_master_interrupt_handler+0xaa>
			module->callbacks[I2C_MASTER_CALLBACK_WRITE_COMPLETE](module);
     b48:	68e3      	ldr	r3, [r4, #12]
     b4a:	0020      	movs	r0, r4
     b4c:	4798      	blx	r3
     b4e:	e778      	b.n	a42 <_i2c_master_interrupt_handler+0xaa>
			module->callbacks[I2C_MASTER_CALLBACK_READ_COMPLETE](module);
     b50:	6923      	ldr	r3, [r4, #16]
     b52:	0020      	movs	r0, r4
     b54:	4798      	blx	r3
     b56:	e774      	b.n	a42 <_i2c_master_interrupt_handler+0xaa>
			_i2c_master_wait_for_sync(module);
     b58:	0020      	movs	r0, r4
     b5a:	4b07      	ldr	r3, [pc, #28]	; (b78 <_i2c_master_interrupt_handler+0x1e0>)
     b5c:	4798      	blx	r3
			i2c_module->CTRLB.reg |= SERCOM_I2CM_CTRLB_ACKACT |
     b5e:	686a      	ldr	r2, [r5, #4]
     b60:	23e0      	movs	r3, #224	; 0xe0
     b62:	02db      	lsls	r3, r3, #11
     b64:	4313      	orrs	r3, r2
     b66:	606b      	str	r3, [r5, #4]
     b68:	e780      	b.n	a6c <_i2c_master_interrupt_handler+0xd4>
			module->callbacks[I2C_MASTER_CALLBACK_ERROR](module);
     b6a:	6963      	ldr	r3, [r4, #20]
     b6c:	0020      	movs	r0, r4
     b6e:	4798      	blx	r3
}
     b70:	e77f      	b.n	a72 <_i2c_master_interrupt_handler+0xda>
     b72:	46c0      	nop			; (mov r8, r8)
     b74:	20003d5c 	.word	0x20003d5c
     b78:	000008c9 	.word	0x000008c9
     b7c:	000008d5 	.word	0x000008d5
     b80:	0000095d 	.word	0x0000095d

00000b84 <_sercom_get_sync_baud_val>:
 */
enum status_code _sercom_get_sync_baud_val(
		const uint32_t baudrate,
		const uint32_t external_clock,
		uint16_t *const baudvalue)
{
     b84:	b510      	push	{r4, lr}
	uint16_t baud_calculated = 0;
	uint32_t clock_value = external_clock;


	/* Check if baudrate is outside of valid range */
	if (baudrate > (external_clock / 2)) {
     b86:	0849      	lsrs	r1, r1, #1
		/* Return with error code */
		return STATUS_ERR_BAUDRATE_UNAVAILABLE;
     b88:	2340      	movs	r3, #64	; 0x40
     b8a:	2400      	movs	r4, #0
	if (baudrate > (external_clock / 2)) {
     b8c:	4281      	cmp	r1, r0
     b8e:	d202      	bcs.n	b96 <_sercom_get_sync_baud_val+0x12>
		return STATUS_ERR_BAUDRATE_UNAVAILABLE;
	} else {
		*baudvalue = baud_calculated;
		return STATUS_OK;
	}
}
     b90:	0018      	movs	r0, r3
     b92:	bd10      	pop	{r4, pc}
		baud_calculated++;
     b94:	001c      	movs	r4, r3
		clock_value = clock_value - baudrate;
     b96:	1a09      	subs	r1, r1, r0
		baud_calculated++;
     b98:	1c63      	adds	r3, r4, #1
     b9a:	b29b      	uxth	r3, r3
	while (clock_value >= baudrate) {
     b9c:	4288      	cmp	r0, r1
     b9e:	d9f9      	bls.n	b94 <_sercom_get_sync_baud_val+0x10>
		return STATUS_ERR_BAUDRATE_UNAVAILABLE;
     ba0:	2340      	movs	r3, #64	; 0x40
	if (baud_calculated > 0xFF) {
     ba2:	2cff      	cmp	r4, #255	; 0xff
     ba4:	d8f4      	bhi.n	b90 <_sercom_get_sync_baud_val+0xc>
		*baudvalue = baud_calculated;
     ba6:	8014      	strh	r4, [r2, #0]
		return STATUS_OK;
     ba8:	2300      	movs	r3, #0
     baa:	e7f1      	b.n	b90 <_sercom_get_sync_baud_val+0xc>

00000bac <_sercom_get_async_baud_val>:
		const uint32_t baudrate,
		const uint32_t peripheral_clock,
		uint16_t *const baudval,
		enum sercom_asynchronous_operation_mode mode,
		enum sercom_asynchronous_sample_num sample_num)
{
     bac:	b5f0      	push	{r4, r5, r6, r7, lr}
     bae:	46de      	mov	lr, fp
     bb0:	4657      	mov	r7, sl
     bb2:	464e      	mov	r6, r9
     bb4:	4645      	mov	r5, r8
     bb6:	b5e0      	push	{r5, r6, r7, lr}
     bb8:	b089      	sub	sp, #36	; 0x24
     bba:	000c      	movs	r4, r1
     bbc:	9205      	str	r2, [sp, #20]
     bbe:	aa12      	add	r2, sp, #72	; 0x48
     bc0:	7811      	ldrb	r1, [r2, #0]
	uint8_t baud_fp;
	uint32_t baud_int = 0;
	uint64_t temp1, temp2;

	/* Check if the baudrate is outside of valid range */
	if ((baudrate * sample_num) > peripheral_clock) {
     bc2:	0005      	movs	r5, r0
     bc4:	434d      	muls	r5, r1
		/* Return with error code */
		return STATUS_ERR_BAUDRATE_UNAVAILABLE;
     bc6:	2240      	movs	r2, #64	; 0x40
	if ((baudrate * sample_num) > peripheral_clock) {
     bc8:	42a5      	cmp	r5, r4
     bca:	d907      	bls.n	bdc <_sercom_get_async_baud_val+0x30>
		baud_calculated = baud_int | (baud_fp << 13);
	}

	*baudval = baud_calculated;
	return STATUS_OK;
}
     bcc:	0010      	movs	r0, r2
     bce:	b009      	add	sp, #36	; 0x24
     bd0:	bc3c      	pop	{r2, r3, r4, r5}
     bd2:	4690      	mov	r8, r2
     bd4:	4699      	mov	r9, r3
     bd6:	46a2      	mov	sl, r4
     bd8:	46ab      	mov	fp, r5
     bda:	bdf0      	pop	{r4, r5, r6, r7, pc}
	if(mode == SERCOM_ASYNC_OPERATION_MODE_ARITHMETIC) {
     bdc:	2b00      	cmp	r3, #0
     bde:	d155      	bne.n	c8c <_sercom_get_async_baud_val+0xe0>
		temp1 = ((sample_num * (uint64_t)baudrate) << SHIFT);
     be0:	0002      	movs	r2, r0
     be2:	0008      	movs	r0, r1
     be4:	2100      	movs	r1, #0
     be6:	4d63      	ldr	r5, [pc, #396]	; (d74 <_sercom_get_async_baud_val+0x1c8>)
     be8:	47a8      	blx	r5
     bea:	4683      	mov	fp, r0
		ratio = long_division(temp1, peripheral_clock);
     bec:	0026      	movs	r6, r4
     bee:	2700      	movs	r7, #0
	uint64_t q = 0, r = 0, bit_shift;
     bf0:	2300      	movs	r3, #0
     bf2:	2400      	movs	r4, #0
     bf4:	9300      	str	r3, [sp, #0]
     bf6:	9401      	str	r4, [sp, #4]
     bf8:	2200      	movs	r2, #0
     bfa:	2300      	movs	r3, #0
	for (i = 63; i >= 0; i--) {
     bfc:	203f      	movs	r0, #63	; 0x3f
		bit_shift = (uint64_t)1 << i;
     bfe:	2120      	movs	r1, #32
     c00:	468c      	mov	ip, r1
     c02:	391f      	subs	r1, #31
     c04:	9602      	str	r6, [sp, #8]
     c06:	9703      	str	r7, [sp, #12]
     c08:	e014      	b.n	c34 <_sercom_get_async_baud_val+0x88>
     c0a:	4664      	mov	r4, ip
     c0c:	1a24      	subs	r4, r4, r0
     c0e:	000d      	movs	r5, r1
     c10:	40e5      	lsrs	r5, r4
     c12:	46a8      	mov	r8, r5
     c14:	e015      	b.n	c42 <_sercom_get_async_baud_val+0x96>
			r = r - d;
     c16:	9c02      	ldr	r4, [sp, #8]
     c18:	9d03      	ldr	r5, [sp, #12]
     c1a:	1b12      	subs	r2, r2, r4
     c1c:	41ab      	sbcs	r3, r5
			q |= bit_shift;
     c1e:	464d      	mov	r5, r9
     c20:	9e00      	ldr	r6, [sp, #0]
     c22:	9f01      	ldr	r7, [sp, #4]
     c24:	4335      	orrs	r5, r6
     c26:	003c      	movs	r4, r7
     c28:	4646      	mov	r6, r8
     c2a:	4334      	orrs	r4, r6
     c2c:	9500      	str	r5, [sp, #0]
     c2e:	9401      	str	r4, [sp, #4]
	for (i = 63; i >= 0; i--) {
     c30:	3801      	subs	r0, #1
     c32:	d31d      	bcc.n	c70 <_sercom_get_async_baud_val+0xc4>
		bit_shift = (uint64_t)1 << i;
     c34:	2420      	movs	r4, #32
     c36:	4264      	negs	r4, r4
     c38:	1904      	adds	r4, r0, r4
     c3a:	d4e6      	bmi.n	c0a <_sercom_get_async_baud_val+0x5e>
     c3c:	000d      	movs	r5, r1
     c3e:	40a5      	lsls	r5, r4
     c40:	46a8      	mov	r8, r5
     c42:	000c      	movs	r4, r1
     c44:	4084      	lsls	r4, r0
     c46:	46a1      	mov	r9, r4
		r = r << 1;
     c48:	1892      	adds	r2, r2, r2
     c4a:	415b      	adcs	r3, r3
     c4c:	0014      	movs	r4, r2
     c4e:	001d      	movs	r5, r3
		if (n & bit_shift) {
     c50:	4646      	mov	r6, r8
     c52:	465f      	mov	r7, fp
     c54:	423e      	tst	r6, r7
     c56:	d003      	beq.n	c60 <_sercom_get_async_baud_val+0xb4>
			r |= 0x01;
     c58:	000e      	movs	r6, r1
     c5a:	4326      	orrs	r6, r4
     c5c:	0032      	movs	r2, r6
     c5e:	002b      	movs	r3, r5
		if (r >= d) {
     c60:	9c02      	ldr	r4, [sp, #8]
     c62:	9d03      	ldr	r5, [sp, #12]
     c64:	429d      	cmp	r5, r3
     c66:	d8e3      	bhi.n	c30 <_sercom_get_async_baud_val+0x84>
     c68:	d1d5      	bne.n	c16 <_sercom_get_async_baud_val+0x6a>
     c6a:	4294      	cmp	r4, r2
     c6c:	d8e0      	bhi.n	c30 <_sercom_get_async_baud_val+0x84>
     c6e:	e7d2      	b.n	c16 <_sercom_get_async_baud_val+0x6a>
		scale = ((uint64_t)1 << SHIFT) - ratio;
     c70:	2200      	movs	r2, #0
     c72:	2301      	movs	r3, #1
     c74:	9800      	ldr	r0, [sp, #0]
     c76:	9901      	ldr	r1, [sp, #4]
     c78:	1a12      	subs	r2, r2, r0
     c7a:	418b      	sbcs	r3, r1
     c7c:	0019      	movs	r1, r3
		baud_calculated = (65536 * scale) >> SHIFT;
     c7e:	0c13      	lsrs	r3, r2, #16
     c80:	040a      	lsls	r2, r1, #16
     c82:	431a      	orrs	r2, r3
	*baudval = baud_calculated;
     c84:	9b05      	ldr	r3, [sp, #20]
     c86:	801a      	strh	r2, [r3, #0]
	return STATUS_OK;
     c88:	2200      	movs	r2, #0
     c8a:	e79f      	b.n	bcc <_sercom_get_async_baud_val+0x20>
	uint64_t baud_calculated = 0;
     c8c:	2200      	movs	r2, #0
	} else if(mode == SERCOM_ASYNC_OPERATION_MODE_FRACTIONAL) {
     c8e:	2b01      	cmp	r3, #1
     c90:	d1f8      	bne.n	c84 <_sercom_get_async_baud_val+0xd8>
			temp1 = BAUD_FP_MAX * (uint64_t)peripheral_clock;
     c92:	0f63      	lsrs	r3, r4, #29
     c94:	9304      	str	r3, [sp, #16]
     c96:	00e3      	lsls	r3, r4, #3
     c98:	4698      	mov	r8, r3
			temp2 = ((uint64_t)baudrate * sample_num);
     c9a:	000a      	movs	r2, r1
     c9c:	2300      	movs	r3, #0
     c9e:	2100      	movs	r1, #0
     ca0:	4c34      	ldr	r4, [pc, #208]	; (d74 <_sercom_get_async_baud_val+0x1c8>)
     ca2:	47a0      	blx	r4
     ca4:	0004      	movs	r4, r0
     ca6:	000d      	movs	r5, r1
     ca8:	2300      	movs	r3, #0
     caa:	469c      	mov	ip, r3
     cac:	9306      	str	r3, [sp, #24]
		bit_shift = (uint64_t)1 << i;
     cae:	3320      	adds	r3, #32
     cb0:	469b      	mov	fp, r3
     cb2:	2601      	movs	r6, #1
			if(baud_int < BAUD_INT_MAX) {
     cb4:	4663      	mov	r3, ip
     cb6:	9307      	str	r3, [sp, #28]
     cb8:	e048      	b.n	d4c <_sercom_get_async_baud_val+0x1a0>
		bit_shift = (uint64_t)1 << i;
     cba:	4659      	mov	r1, fp
     cbc:	1bc9      	subs	r1, r1, r7
     cbe:	0030      	movs	r0, r6
     cc0:	40c8      	lsrs	r0, r1
     cc2:	4682      	mov	sl, r0
     cc4:	e010      	b.n	ce8 <_sercom_get_async_baud_val+0x13c>
			r = r - d;
     cc6:	9800      	ldr	r0, [sp, #0]
     cc8:	9901      	ldr	r1, [sp, #4]
     cca:	1a12      	subs	r2, r2, r0
     ccc:	418b      	sbcs	r3, r1
			q |= bit_shift;
     cce:	9902      	ldr	r1, [sp, #8]
     cd0:	4648      	mov	r0, r9
     cd2:	4301      	orrs	r1, r0
     cd4:	9102      	str	r1, [sp, #8]
	for (i = 63; i >= 0; i--) {
     cd6:	3f01      	subs	r7, #1
     cd8:	d325      	bcc.n	d26 <_sercom_get_async_baud_val+0x17a>
		bit_shift = (uint64_t)1 << i;
     cda:	2120      	movs	r1, #32
     cdc:	4249      	negs	r1, r1
     cde:	1879      	adds	r1, r7, r1
     ce0:	d4eb      	bmi.n	cba <_sercom_get_async_baud_val+0x10e>
     ce2:	0030      	movs	r0, r6
     ce4:	4088      	lsls	r0, r1
     ce6:	4682      	mov	sl, r0
     ce8:	0031      	movs	r1, r6
     cea:	40b9      	lsls	r1, r7
     cec:	4689      	mov	r9, r1
		r = r << 1;
     cee:	1892      	adds	r2, r2, r2
     cf0:	415b      	adcs	r3, r3
     cf2:	0010      	movs	r0, r2
     cf4:	0019      	movs	r1, r3
		if (n & bit_shift) {
     cf6:	4644      	mov	r4, r8
     cf8:	464d      	mov	r5, r9
     cfa:	402c      	ands	r4, r5
     cfc:	46a4      	mov	ip, r4
     cfe:	4654      	mov	r4, sl
     d00:	9d04      	ldr	r5, [sp, #16]
     d02:	402c      	ands	r4, r5
     d04:	46a2      	mov	sl, r4
     d06:	4664      	mov	r4, ip
     d08:	4655      	mov	r5, sl
     d0a:	432c      	orrs	r4, r5
     d0c:	d003      	beq.n	d16 <_sercom_get_async_baud_val+0x16a>
			r |= 0x01;
     d0e:	0034      	movs	r4, r6
     d10:	4304      	orrs	r4, r0
     d12:	0022      	movs	r2, r4
     d14:	000b      	movs	r3, r1
		if (r >= d) {
     d16:	9800      	ldr	r0, [sp, #0]
     d18:	9901      	ldr	r1, [sp, #4]
     d1a:	4299      	cmp	r1, r3
     d1c:	d8db      	bhi.n	cd6 <_sercom_get_async_baud_val+0x12a>
     d1e:	d1d2      	bne.n	cc6 <_sercom_get_async_baud_val+0x11a>
     d20:	4290      	cmp	r0, r2
     d22:	d8d8      	bhi.n	cd6 <_sercom_get_async_baud_val+0x12a>
     d24:	e7cf      	b.n	cc6 <_sercom_get_async_baud_val+0x11a>
     d26:	9c00      	ldr	r4, [sp, #0]
     d28:	9d01      	ldr	r5, [sp, #4]
			baud_int -= baud_fp;
     d2a:	9902      	ldr	r1, [sp, #8]
     d2c:	9a07      	ldr	r2, [sp, #28]
     d2e:	1a8b      	subs	r3, r1, r2
			baud_int = baud_int / BAUD_FP_MAX;
     d30:	08db      	lsrs	r3, r3, #3
			if(baud_int < BAUD_INT_MAX) {
     d32:	4911      	ldr	r1, [pc, #68]	; (d78 <_sercom_get_async_baud_val+0x1cc>)
     d34:	428b      	cmp	r3, r1
     d36:	d914      	bls.n	d62 <_sercom_get_async_baud_val+0x1b6>
		for(baud_fp = 0; baud_fp < BAUD_FP_MAX; baud_fp++) {
     d38:	9b06      	ldr	r3, [sp, #24]
     d3a:	3301      	adds	r3, #1
     d3c:	b2db      	uxtb	r3, r3
     d3e:	0019      	movs	r1, r3
     d40:	9306      	str	r3, [sp, #24]
     d42:	0013      	movs	r3, r2
     d44:	3301      	adds	r3, #1
     d46:	9307      	str	r3, [sp, #28]
     d48:	2908      	cmp	r1, #8
     d4a:	d008      	beq.n	d5e <_sercom_get_async_baud_val+0x1b2>
	uint64_t q = 0, r = 0, bit_shift;
     d4c:	2300      	movs	r3, #0
     d4e:	9302      	str	r3, [sp, #8]
     d50:	2200      	movs	r2, #0
     d52:	2300      	movs	r3, #0
	for (i = 63; i >= 0; i--) {
     d54:	213f      	movs	r1, #63	; 0x3f
     d56:	9400      	str	r4, [sp, #0]
     d58:	9501      	str	r5, [sp, #4]
     d5a:	000f      	movs	r7, r1
     d5c:	e7bd      	b.n	cda <_sercom_get_async_baud_val+0x12e>
			return STATUS_ERR_BAUDRATE_UNAVAILABLE;
     d5e:	2240      	movs	r2, #64	; 0x40
     d60:	e734      	b.n	bcc <_sercom_get_async_baud_val+0x20>
     d62:	2240      	movs	r2, #64	; 0x40
		if(baud_fp == BAUD_FP_MAX) {
     d64:	9906      	ldr	r1, [sp, #24]
     d66:	2908      	cmp	r1, #8
     d68:	d100      	bne.n	d6c <_sercom_get_async_baud_val+0x1c0>
     d6a:	e72f      	b.n	bcc <_sercom_get_async_baud_val+0x20>
		baud_calculated = baud_int | (baud_fp << 13);
     d6c:	034a      	lsls	r2, r1, #13
     d6e:	431a      	orrs	r2, r3
     d70:	e788      	b.n	c84 <_sercom_get_async_baud_val+0xd8>
     d72:	46c0      	nop			; (mov r8, r8)
     d74:	000049c5 	.word	0x000049c5
     d78:	00001fff 	.word	0x00001fff

00000d7c <sercom_set_gclk_generator>:
 *                                         forced.
 */
enum status_code sercom_set_gclk_generator(
		const enum gclk_generator generator_source,
		const bool force_change)
{
     d7c:	b510      	push	{r4, lr}
     d7e:	b082      	sub	sp, #8
     d80:	0004      	movs	r4, r0
	/* Check if valid option */
	if (!_sercom_config.generator_is_set || force_change) {
     d82:	4b0e      	ldr	r3, [pc, #56]	; (dbc <sercom_set_gclk_generator+0x40>)
     d84:	781b      	ldrb	r3, [r3, #0]
     d86:	2b00      	cmp	r3, #0
     d88:	d007      	beq.n	d9a <sercom_set_gclk_generator+0x1e>
     d8a:	2900      	cmp	r1, #0
     d8c:	d105      	bne.n	d9a <sercom_set_gclk_generator+0x1e>
		/* Save config */
		_sercom_config.generator_source = generator_source;
		_sercom_config.generator_is_set = true;

		return STATUS_OK;
	} else if (generator_source == _sercom_config.generator_source) {
     d8e:	4b0b      	ldr	r3, [pc, #44]	; (dbc <sercom_set_gclk_generator+0x40>)
     d90:	785b      	ldrb	r3, [r3, #1]
     d92:	4283      	cmp	r3, r0
     d94:	d010      	beq.n	db8 <sercom_set_gclk_generator+0x3c>
		/* Return status OK if same config */
		return STATUS_OK;
	}

	/* Return invalid config to already initialized GCLK */
	return STATUS_ERR_ALREADY_INITIALIZED;
     d96:	201d      	movs	r0, #29
     d98:	e00c      	b.n	db4 <sercom_set_gclk_generator+0x38>
		gclk_chan_conf.source_generator = generator_source;
     d9a:	a901      	add	r1, sp, #4
     d9c:	700c      	strb	r4, [r1, #0]
		system_gclk_chan_set_config(SERCOM_GCLK_ID, &gclk_chan_conf);
     d9e:	2011      	movs	r0, #17
     da0:	4b07      	ldr	r3, [pc, #28]	; (dc0 <sercom_set_gclk_generator+0x44>)
     da2:	4798      	blx	r3
		system_gclk_chan_enable(SERCOM_GCLK_ID);
     da4:	2011      	movs	r0, #17
     da6:	4b07      	ldr	r3, [pc, #28]	; (dc4 <sercom_set_gclk_generator+0x48>)
     da8:	4798      	blx	r3
		_sercom_config.generator_source = generator_source;
     daa:	4b04      	ldr	r3, [pc, #16]	; (dbc <sercom_set_gclk_generator+0x40>)
     dac:	705c      	strb	r4, [r3, #1]
		_sercom_config.generator_is_set = true;
     dae:	2201      	movs	r2, #1
     db0:	701a      	strb	r2, [r3, #0]
		return STATUS_OK;
     db2:	2000      	movs	r0, #0
}
     db4:	b002      	add	sp, #8
     db6:	bd10      	pop	{r4, pc}
		return STATUS_OK;
     db8:	2000      	movs	r0, #0
     dba:	e7fb      	b.n	db4 <sercom_set_gclk_generator+0x38>
     dbc:	200000d0 	.word	0x200000d0
     dc0:	00003899 	.word	0x00003899
     dc4:	00003829 	.word	0x00003829

00000dc8 <_sercom_get_default_pad>:
 */
uint32_t _sercom_get_default_pad(
		Sercom *const sercom_module,
		const uint8_t pad)
{
	switch ((uintptr_t)sercom_module) {
     dc8:	4b40      	ldr	r3, [pc, #256]	; (ecc <_sercom_get_default_pad+0x104>)
     dca:	4298      	cmp	r0, r3
     dcc:	d032      	beq.n	e34 <_sercom_get_default_pad+0x6c>
     dce:	d90a      	bls.n	de6 <_sercom_get_default_pad+0x1e>
     dd0:	4b3f      	ldr	r3, [pc, #252]	; (ed0 <_sercom_get_default_pad+0x108>)
     dd2:	4298      	cmp	r0, r3
     dd4:	d04e      	beq.n	e74 <_sercom_get_default_pad+0xac>
     dd6:	4b3f      	ldr	r3, [pc, #252]	; (ed4 <_sercom_get_default_pad+0x10c>)
     dd8:	4298      	cmp	r0, r3
     dda:	d05b      	beq.n	e94 <_sercom_get_default_pad+0xcc>
     ddc:	4b3e      	ldr	r3, [pc, #248]	; (ed8 <_sercom_get_default_pad+0x110>)
     dde:	4298      	cmp	r0, r3
     de0:	d038      	beq.n	e54 <_sercom_get_default_pad+0x8c>
		/* Auto-generate a lookup table for the default SERCOM pad defaults */
		MREPEAT(SERCOM_INST_NUM, _SERCOM_PAD_DEFAULTS_CASE, pad)
	}

	Assert(false);
	return 0;
     de2:	2000      	movs	r0, #0
}
     de4:	4770      	bx	lr
	switch ((uintptr_t)sercom_module) {
     de6:	2384      	movs	r3, #132	; 0x84
     de8:	05db      	lsls	r3, r3, #23
     dea:	4298      	cmp	r0, r3
     dec:	d00c      	beq.n	e08 <_sercom_get_default_pad+0x40>
     dee:	4b3b      	ldr	r3, [pc, #236]	; (edc <_sercom_get_default_pad+0x114>)
     df0:	4298      	cmp	r0, r3
     df2:	d1f6      	bne.n	de2 <_sercom_get_default_pad+0x1a>
		MREPEAT(SERCOM_INST_NUM, _SERCOM_PAD_DEFAULTS_CASE, pad)
     df4:	2901      	cmp	r1, #1
     df6:	d017      	beq.n	e28 <_sercom_get_default_pad+0x60>
     df8:	2900      	cmp	r1, #0
     dfa:	d05d      	beq.n	eb8 <_sercom_get_default_pad+0xf0>
     dfc:	2902      	cmp	r1, #2
     dfe:	d015      	beq.n	e2c <_sercom_get_default_pad+0x64>
     e00:	2903      	cmp	r1, #3
     e02:	d015      	beq.n	e30 <_sercom_get_default_pad+0x68>
	return 0;
     e04:	2000      	movs	r0, #0
     e06:	e7ed      	b.n	de4 <_sercom_get_default_pad+0x1c>
		MREPEAT(SERCOM_INST_NUM, _SERCOM_PAD_DEFAULTS_CASE, pad)
     e08:	2901      	cmp	r1, #1
     e0a:	d007      	beq.n	e1c <_sercom_get_default_pad+0x54>
     e0c:	2900      	cmp	r1, #0
     e0e:	d051      	beq.n	eb4 <_sercom_get_default_pad+0xec>
     e10:	2902      	cmp	r1, #2
     e12:	d005      	beq.n	e20 <_sercom_get_default_pad+0x58>
     e14:	2903      	cmp	r1, #3
     e16:	d005      	beq.n	e24 <_sercom_get_default_pad+0x5c>
	return 0;
     e18:	2000      	movs	r0, #0
     e1a:	e7e3      	b.n	de4 <_sercom_get_default_pad+0x1c>
		MREPEAT(SERCOM_INST_NUM, _SERCOM_PAD_DEFAULTS_CASE, pad)
     e1c:	4830      	ldr	r0, [pc, #192]	; (ee0 <_sercom_get_default_pad+0x118>)
     e1e:	e7e1      	b.n	de4 <_sercom_get_default_pad+0x1c>
     e20:	4830      	ldr	r0, [pc, #192]	; (ee4 <_sercom_get_default_pad+0x11c>)
     e22:	e7df      	b.n	de4 <_sercom_get_default_pad+0x1c>
     e24:	4830      	ldr	r0, [pc, #192]	; (ee8 <_sercom_get_default_pad+0x120>)
     e26:	e7dd      	b.n	de4 <_sercom_get_default_pad+0x1c>
     e28:	4830      	ldr	r0, [pc, #192]	; (eec <_sercom_get_default_pad+0x124>)
     e2a:	e7db      	b.n	de4 <_sercom_get_default_pad+0x1c>
     e2c:	4830      	ldr	r0, [pc, #192]	; (ef0 <_sercom_get_default_pad+0x128>)
     e2e:	e7d9      	b.n	de4 <_sercom_get_default_pad+0x1c>
     e30:	4830      	ldr	r0, [pc, #192]	; (ef4 <_sercom_get_default_pad+0x12c>)
     e32:	e7d7      	b.n	de4 <_sercom_get_default_pad+0x1c>
     e34:	2901      	cmp	r1, #1
     e36:	d007      	beq.n	e48 <_sercom_get_default_pad+0x80>
     e38:	2900      	cmp	r1, #0
     e3a:	d03f      	beq.n	ebc <_sercom_get_default_pad+0xf4>
     e3c:	2902      	cmp	r1, #2
     e3e:	d005      	beq.n	e4c <_sercom_get_default_pad+0x84>
     e40:	2903      	cmp	r1, #3
     e42:	d005      	beq.n	e50 <_sercom_get_default_pad+0x88>
	return 0;
     e44:	2000      	movs	r0, #0
     e46:	e7cd      	b.n	de4 <_sercom_get_default_pad+0x1c>
		MREPEAT(SERCOM_INST_NUM, _SERCOM_PAD_DEFAULTS_CASE, pad)
     e48:	482b      	ldr	r0, [pc, #172]	; (ef8 <_sercom_get_default_pad+0x130>)
     e4a:	e7cb      	b.n	de4 <_sercom_get_default_pad+0x1c>
     e4c:	482b      	ldr	r0, [pc, #172]	; (efc <_sercom_get_default_pad+0x134>)
     e4e:	e7c9      	b.n	de4 <_sercom_get_default_pad+0x1c>
     e50:	482b      	ldr	r0, [pc, #172]	; (f00 <_sercom_get_default_pad+0x138>)
     e52:	e7c7      	b.n	de4 <_sercom_get_default_pad+0x1c>
     e54:	2901      	cmp	r1, #1
     e56:	d007      	beq.n	e68 <_sercom_get_default_pad+0xa0>
     e58:	2900      	cmp	r1, #0
     e5a:	d031      	beq.n	ec0 <_sercom_get_default_pad+0xf8>
     e5c:	2902      	cmp	r1, #2
     e5e:	d005      	beq.n	e6c <_sercom_get_default_pad+0xa4>
     e60:	2903      	cmp	r1, #3
     e62:	d005      	beq.n	e70 <_sercom_get_default_pad+0xa8>
	return 0;
     e64:	2000      	movs	r0, #0
     e66:	e7bd      	b.n	de4 <_sercom_get_default_pad+0x1c>
		MREPEAT(SERCOM_INST_NUM, _SERCOM_PAD_DEFAULTS_CASE, pad)
     e68:	4826      	ldr	r0, [pc, #152]	; (f04 <_sercom_get_default_pad+0x13c>)
     e6a:	e7bb      	b.n	de4 <_sercom_get_default_pad+0x1c>
     e6c:	4826      	ldr	r0, [pc, #152]	; (f08 <_sercom_get_default_pad+0x140>)
     e6e:	e7b9      	b.n	de4 <_sercom_get_default_pad+0x1c>
     e70:	4826      	ldr	r0, [pc, #152]	; (f0c <_sercom_get_default_pad+0x144>)
     e72:	e7b7      	b.n	de4 <_sercom_get_default_pad+0x1c>
     e74:	2901      	cmp	r1, #1
     e76:	d007      	beq.n	e88 <_sercom_get_default_pad+0xc0>
     e78:	2900      	cmp	r1, #0
     e7a:	d023      	beq.n	ec4 <_sercom_get_default_pad+0xfc>
     e7c:	2902      	cmp	r1, #2
     e7e:	d005      	beq.n	e8c <_sercom_get_default_pad+0xc4>
     e80:	2903      	cmp	r1, #3
     e82:	d005      	beq.n	e90 <_sercom_get_default_pad+0xc8>
	return 0;
     e84:	2000      	movs	r0, #0
     e86:	e7ad      	b.n	de4 <_sercom_get_default_pad+0x1c>
		MREPEAT(SERCOM_INST_NUM, _SERCOM_PAD_DEFAULTS_CASE, pad)
     e88:	4821      	ldr	r0, [pc, #132]	; (f10 <_sercom_get_default_pad+0x148>)
     e8a:	e7ab      	b.n	de4 <_sercom_get_default_pad+0x1c>
     e8c:	4821      	ldr	r0, [pc, #132]	; (f14 <_sercom_get_default_pad+0x14c>)
     e8e:	e7a9      	b.n	de4 <_sercom_get_default_pad+0x1c>
     e90:	4821      	ldr	r0, [pc, #132]	; (f18 <_sercom_get_default_pad+0x150>)
     e92:	e7a7      	b.n	de4 <_sercom_get_default_pad+0x1c>
     e94:	2901      	cmp	r1, #1
     e96:	d007      	beq.n	ea8 <_sercom_get_default_pad+0xe0>
     e98:	2900      	cmp	r1, #0
     e9a:	d015      	beq.n	ec8 <_sercom_get_default_pad+0x100>
     e9c:	2902      	cmp	r1, #2
     e9e:	d005      	beq.n	eac <_sercom_get_default_pad+0xe4>
     ea0:	2903      	cmp	r1, #3
     ea2:	d005      	beq.n	eb0 <_sercom_get_default_pad+0xe8>
	return 0;
     ea4:	2000      	movs	r0, #0
     ea6:	e79d      	b.n	de4 <_sercom_get_default_pad+0x1c>
		MREPEAT(SERCOM_INST_NUM, _SERCOM_PAD_DEFAULTS_CASE, pad)
     ea8:	481c      	ldr	r0, [pc, #112]	; (f1c <_sercom_get_default_pad+0x154>)
     eaa:	e79b      	b.n	de4 <_sercom_get_default_pad+0x1c>
     eac:	481c      	ldr	r0, [pc, #112]	; (f20 <_sercom_get_default_pad+0x158>)
     eae:	e799      	b.n	de4 <_sercom_get_default_pad+0x1c>
     eb0:	481c      	ldr	r0, [pc, #112]	; (f24 <_sercom_get_default_pad+0x15c>)
     eb2:	e797      	b.n	de4 <_sercom_get_default_pad+0x1c>
     eb4:	481c      	ldr	r0, [pc, #112]	; (f28 <_sercom_get_default_pad+0x160>)
     eb6:	e795      	b.n	de4 <_sercom_get_default_pad+0x1c>
     eb8:	2003      	movs	r0, #3
     eba:	e793      	b.n	de4 <_sercom_get_default_pad+0x1c>
     ebc:	481b      	ldr	r0, [pc, #108]	; (f2c <_sercom_get_default_pad+0x164>)
     ebe:	e791      	b.n	de4 <_sercom_get_default_pad+0x1c>
     ec0:	481b      	ldr	r0, [pc, #108]	; (f30 <_sercom_get_default_pad+0x168>)
     ec2:	e78f      	b.n	de4 <_sercom_get_default_pad+0x1c>
     ec4:	481b      	ldr	r0, [pc, #108]	; (f34 <_sercom_get_default_pad+0x16c>)
     ec6:	e78d      	b.n	de4 <_sercom_get_default_pad+0x1c>
     ec8:	481b      	ldr	r0, [pc, #108]	; (f38 <_sercom_get_default_pad+0x170>)
     eca:	e78b      	b.n	de4 <_sercom_get_default_pad+0x1c>
     ecc:	42000800 	.word	0x42000800
     ed0:	42001000 	.word	0x42001000
     ed4:	43000400 	.word	0x43000400
     ed8:	42000c00 	.word	0x42000c00
     edc:	42000400 	.word	0x42000400
     ee0:	00050003 	.word	0x00050003
     ee4:	00060003 	.word	0x00060003
     ee8:	00070003 	.word	0x00070003
     eec:	00010003 	.word	0x00010003
     ef0:	001e0003 	.word	0x001e0003
     ef4:	001f0003 	.word	0x001f0003
     ef8:	00090003 	.word	0x00090003
     efc:	000a0003 	.word	0x000a0003
     f00:	000b0003 	.word	0x000b0003
     f04:	00110003 	.word	0x00110003
     f08:	00120003 	.word	0x00120003
     f0c:	00130003 	.word	0x00130003
     f10:	000d0003 	.word	0x000d0003
     f14:	000e0003 	.word	0x000e0003
     f18:	000f0003 	.word	0x000f0003
     f1c:	00170003 	.word	0x00170003
     f20:	00180003 	.word	0x00180003
     f24:	00190003 	.word	0x00190003
     f28:	00040003 	.word	0x00040003
     f2c:	00080003 	.word	0x00080003
     f30:	00100003 	.word	0x00100003
     f34:	000c0003 	.word	0x000c0003
     f38:	00160003 	.word	0x00160003

00000f3c <_sercom_get_sercom_inst_index>:
 *
 * \return Index of given instance.
 */
uint8_t _sercom_get_sercom_inst_index(
		Sercom *const sercom_instance)
{
     f3c:	b530      	push	{r4, r5, lr}
     f3e:	b087      	sub	sp, #28
	/* Save all available SERCOM instances for compare */
	Sercom *sercom_instances[SERCOM_INST_NUM] = SERCOM_INSTS;
     f40:	4b0b      	ldr	r3, [pc, #44]	; (f70 <_sercom_get_sercom_inst_index+0x34>)
     f42:	466a      	mov	r2, sp
     f44:	cb32      	ldmia	r3!, {r1, r4, r5}
     f46:	c232      	stmia	r2!, {r1, r4, r5}
     f48:	cb32      	ldmia	r3!, {r1, r4, r5}
     f4a:	c232      	stmia	r2!, {r1, r4, r5}

	/* Find index for sercom instance */
	for (uint32_t i = 0; i < SERCOM_INST_NUM; i++) {
		if ((uintptr_t)sercom_instance == (uintptr_t)sercom_instances[i]) {
     f4c:	9b00      	ldr	r3, [sp, #0]
     f4e:	4283      	cmp	r3, r0
     f50:	d00b      	beq.n	f6a <_sercom_get_sercom_inst_index+0x2e>
     f52:	2301      	movs	r3, #1
     f54:	009a      	lsls	r2, r3, #2
     f56:	4669      	mov	r1, sp
     f58:	5852      	ldr	r2, [r2, r1]
     f5a:	4282      	cmp	r2, r0
     f5c:	d006      	beq.n	f6c <_sercom_get_sercom_inst_index+0x30>
	for (uint32_t i = 0; i < SERCOM_INST_NUM; i++) {
     f5e:	3301      	adds	r3, #1
     f60:	2b06      	cmp	r3, #6
     f62:	d1f7      	bne.n	f54 <_sercom_get_sercom_inst_index+0x18>
		}
	}

	/* Invalid data given */
	Assert(false);
	return 0;
     f64:	2000      	movs	r0, #0
}
     f66:	b007      	add	sp, #28
     f68:	bd30      	pop	{r4, r5, pc}
	for (uint32_t i = 0; i < SERCOM_INST_NUM; i++) {
     f6a:	2300      	movs	r3, #0
			return i;
     f6c:	b2d8      	uxtb	r0, r3
     f6e:	e7fa      	b.n	f66 <_sercom_get_sercom_inst_index+0x2a>
     f70:	00006b28 	.word	0x00006b28

00000f74 <_read>:
int __attribute__((weak))
_read (int file, char * ptr, int len); // Remove GCC compiler warning

int __attribute__((weak))
_read (int file, char * ptr, int len)
{
     f74:	b5f0      	push	{r4, r5, r6, r7, lr}
     f76:	46c6      	mov	lr, r8
     f78:	b500      	push	{lr}
     f7a:	000c      	movs	r4, r1
     f7c:	4690      	mov	r8, r2
	int nChars = 0;

	if (file != 0) {
     f7e:	2800      	cmp	r0, #0
     f80:	d10f      	bne.n	fa2 <_read+0x2e>
		return -1;
	}

	for (; len > 0; --len) {
     f82:	2a00      	cmp	r2, #0
     f84:	dd11      	ble.n	faa <_read+0x36>
     f86:	188f      	adds	r7, r1, r2
		ptr_get(stdio_base, ptr);
     f88:	4e09      	ldr	r6, [pc, #36]	; (fb0 <_read+0x3c>)
     f8a:	4d0a      	ldr	r5, [pc, #40]	; (fb4 <_read+0x40>)
     f8c:	6830      	ldr	r0, [r6, #0]
     f8e:	0021      	movs	r1, r4
     f90:	682b      	ldr	r3, [r5, #0]
     f92:	4798      	blx	r3
		ptr++;
     f94:	3401      	adds	r4, #1
	for (; len > 0; --len) {
     f96:	42bc      	cmp	r4, r7
     f98:	d1f8      	bne.n	f8c <_read+0x18>
		nChars++;
	}
	return nChars;
}
     f9a:	4640      	mov	r0, r8
     f9c:	bc04      	pop	{r2}
     f9e:	4690      	mov	r8, r2
     fa0:	bdf0      	pop	{r4, r5, r6, r7, pc}
		return -1;
     fa2:	2301      	movs	r3, #1
     fa4:	425b      	negs	r3, r3
     fa6:	4698      	mov	r8, r3
     fa8:	e7f7      	b.n	f9a <_read+0x26>
	for (; len > 0; --len) {
     faa:	4680      	mov	r8, r0
     fac:	e7f5      	b.n	f9a <_read+0x26>
     fae:	46c0      	nop			; (mov r8, r8)
     fb0:	20003d58 	.word	0x20003d58
     fb4:	20003d50 	.word	0x20003d50

00000fb8 <_write>:
int __attribute__((weak))
_write (int file, char * ptr, int len);

int __attribute__((weak))
_write (int file, char * ptr, int len)
{
     fb8:	b5f0      	push	{r4, r5, r6, r7, lr}
     fba:	46c6      	mov	lr, r8
     fbc:	b500      	push	{lr}
     fbe:	000e      	movs	r6, r1
     fc0:	0015      	movs	r5, r2
	int nChars = 0;

	if ((file != 1) && (file != 2) && (file!=3)) {
     fc2:	3801      	subs	r0, #1
     fc4:	2802      	cmp	r0, #2
     fc6:	d810      	bhi.n	fea <_write+0x32>
		return -1;
	}

	for (; len != 0; --len) {
     fc8:	2a00      	cmp	r2, #0
     fca:	d011      	beq.n	ff0 <_write+0x38>
     fcc:	2400      	movs	r4, #0
		if (ptr_put(stdio_base, *ptr++) < 0) {
     fce:	4b0c      	ldr	r3, [pc, #48]	; (1000 <_write+0x48>)
     fd0:	4698      	mov	r8, r3
     fd2:	4f0c      	ldr	r7, [pc, #48]	; (1004 <_write+0x4c>)
     fd4:	4643      	mov	r3, r8
     fd6:	6818      	ldr	r0, [r3, #0]
     fd8:	5d31      	ldrb	r1, [r6, r4]
     fda:	683b      	ldr	r3, [r7, #0]
     fdc:	4798      	blx	r3
     fde:	2800      	cmp	r0, #0
     fe0:	db08      	blt.n	ff4 <_write+0x3c>
			return -1;
		}
		++nChars;
     fe2:	3401      	adds	r4, #1
	for (; len != 0; --len) {
     fe4:	42a5      	cmp	r5, r4
     fe6:	d1f5      	bne.n	fd4 <_write+0x1c>
     fe8:	e006      	b.n	ff8 <_write+0x40>
		return -1;
     fea:	2401      	movs	r4, #1
     fec:	4264      	negs	r4, r4
     fee:	e003      	b.n	ff8 <_write+0x40>
	for (; len != 0; --len) {
     ff0:	0014      	movs	r4, r2
     ff2:	e001      	b.n	ff8 <_write+0x40>
			return -1;
     ff4:	2401      	movs	r4, #1
     ff6:	4264      	negs	r4, r4
	}
	return nChars;
}
     ff8:	0020      	movs	r0, r4
     ffa:	bc04      	pop	{r2}
     ffc:	4690      	mov	r8, r2
     ffe:	bdf0      	pop	{r4, r5, r6, r7, pc}
    1000:	20003d58 	.word	0x20003d58
    1004:	20003d54 	.word	0x20003d54

00001008 <prvTaskExitError>:
	its caller as there is nothing to return to.  If a task wants to exit it
	should instead call vTaskDelete( NULL ).

	Artificially force an assert() to be triggered if configASSERT() is
	defined, then stop here so application writers can catch the error. */
	configASSERT( uxCriticalNesting == ~0UL );
    1008:	4b03      	ldr	r3, [pc, #12]	; (1018 <prvTaskExitError+0x10>)
    100a:	681b      	ldr	r3, [r3, #0]
    100c:	3301      	adds	r3, #1
    100e:	d001      	beq.n	1014 <prvTaskExitError+0xc>
    1010:	b672      	cpsid	i
    1012:	e7fe      	b.n	1012 <prvTaskExitError+0xa>
	portDISABLE_INTERRUPTS();
    1014:	b672      	cpsid	i
    1016:	e7fe      	b.n	1016 <prvTaskExitError+0xe>
    1018:	20000024 	.word	0x20000024

0000101c <vPortStartFirstTask>:
void vPortStartFirstTask( void )
{
	/* The MSP stack is not reset as, unlike on M3/4 parts, there is no vector
	table offset register that can be used to locate the initial stack value.
	Not all M0 parts have the application vector table at address 0. */
	__asm volatile(
    101c:	4a06      	ldr	r2, [pc, #24]	; (1038 <pxCurrentTCBConst2>)
    101e:	6813      	ldr	r3, [r2, #0]
    1020:	6818      	ldr	r0, [r3, #0]
    1022:	3020      	adds	r0, #32
    1024:	f380 8809 	msr	PSP, r0
    1028:	2002      	movs	r0, #2
    102a:	f380 8814 	msr	CONTROL, r0
    102e:	bc3f      	pop	{r0, r1, r2, r3, r4, r5}
    1030:	46ae      	mov	lr, r5
    1032:	b662      	cpsie	i
    1034:	bd00      	pop	{pc}
    1036:	46c0      	nop			; (mov r8, r8)

00001038 <pxCurrentTCBConst2>:
    1038:	20003b74 	.word	0x20003b74

0000103c <pxPortInitialiseStack>:
{
    103c:	b510      	push	{r4, lr}
	*pxTopOfStack = portINITIAL_XPSR;	/* xPSR */
    103e:	1f03      	subs	r3, r0, #4
    1040:	2480      	movs	r4, #128	; 0x80
    1042:	0464      	lsls	r4, r4, #17
    1044:	601c      	str	r4, [r3, #0]
	*pxTopOfStack = ( StackType_t ) pxCode;	/* PC */
    1046:	3b04      	subs	r3, #4
    1048:	6019      	str	r1, [r3, #0]
	*pxTopOfStack = ( StackType_t ) portTASK_RETURN_ADDRESS;	/* LR */
    104a:	3b04      	subs	r3, #4
    104c:	4902      	ldr	r1, [pc, #8]	; (1058 <pxPortInitialiseStack+0x1c>)
    104e:	6019      	str	r1, [r3, #0]
	*pxTopOfStack = ( StackType_t ) pvParameters;	/* R0 */
    1050:	3b14      	subs	r3, #20
    1052:	601a      	str	r2, [r3, #0]
	pxTopOfStack -= 8; /* R11..R4. */
    1054:	3840      	subs	r0, #64	; 0x40
}
    1056:	bd10      	pop	{r4, pc}
    1058:	00001009 	.word	0x00001009

0000105c <SVC_Handler>:
}
    105c:	4770      	bx	lr
	...

00001060 <vPortYield>:
/*-----------------------------------------------------------*/

void vPortYield( void )
{
	/* Set a PendSV to request a context switch. */
	*( portNVIC_INT_CTRL ) = portNVIC_PENDSVSET;
    1060:	2280      	movs	r2, #128	; 0x80
    1062:	0552      	lsls	r2, r2, #21
    1064:	4b03      	ldr	r3, [pc, #12]	; (1074 <vPortYield+0x14>)
    1066:	601a      	str	r2, [r3, #0]

	/* Barriers are normally not required but do ensure the code is completely
	within the specified behaviour for the architecture. */
	__asm volatile( "dsb" );
    1068:	f3bf 8f4f 	dsb	sy
	__asm volatile( "isb" );
    106c:	f3bf 8f6f 	isb	sy
}
    1070:	4770      	bx	lr
    1072:	46c0      	nop			; (mov r8, r8)
    1074:	e000ed04 	.word	0xe000ed04

00001078 <vPortEnterCritical>:
/*-----------------------------------------------------------*/

void vPortEnterCritical( void )
{
    portDISABLE_INTERRUPTS();
    1078:	b672      	cpsid	i
    uxCriticalNesting++;
    107a:	4a04      	ldr	r2, [pc, #16]	; (108c <vPortEnterCritical+0x14>)
    107c:	6813      	ldr	r3, [r2, #0]
    107e:	3301      	adds	r3, #1
    1080:	6013      	str	r3, [r2, #0]
	__asm volatile( "dsb" );
    1082:	f3bf 8f4f 	dsb	sy
	__asm volatile( "isb" );
    1086:	f3bf 8f6f 	isb	sy
}
    108a:	4770      	bx	lr
    108c:	20000024 	.word	0x20000024

00001090 <vPortExitCritical>:
/*-----------------------------------------------------------*/

void vPortExitCritical( void )
{
	configASSERT( uxCriticalNesting );
    1090:	4b06      	ldr	r3, [pc, #24]	; (10ac <vPortExitCritical+0x1c>)
    1092:	681b      	ldr	r3, [r3, #0]
    1094:	2b00      	cmp	r3, #0
    1096:	d101      	bne.n	109c <vPortExitCritical+0xc>
    1098:	b672      	cpsid	i
    109a:	e7fe      	b.n	109a <vPortExitCritical+0xa>
    uxCriticalNesting--;
    109c:	3b01      	subs	r3, #1
    109e:	4a03      	ldr	r2, [pc, #12]	; (10ac <vPortExitCritical+0x1c>)
    10a0:	6013      	str	r3, [r2, #0]
    if( uxCriticalNesting == 0 )
    10a2:	2b00      	cmp	r3, #0
    10a4:	d100      	bne.n	10a8 <vPortExitCritical+0x18>
    {
        portENABLE_INTERRUPTS();
    10a6:	b662      	cpsie	i
    }
}
    10a8:	4770      	bx	lr
    10aa:	46c0      	nop			; (mov r8, r8)
    10ac:	20000024 	.word	0x20000024

000010b0 <ulSetInterruptMaskFromISR>:
/*-----------------------------------------------------------*/

uint32_t ulSetInterruptMaskFromISR( void )
{
	__asm volatile(
    10b0:	f3ef 8010 	mrs	r0, PRIMASK
    10b4:	b672      	cpsid	i
    10b6:	4770      	bx	lr
					" bx lr				  "
				  );

	/* To avoid compiler warnings.  This line will never be reached. */
	return 0;
}
    10b8:	2000      	movs	r0, #0

000010ba <vClearInterruptMaskFromISR>:
/*-----------------------------------------------------------*/

void vClearInterruptMaskFromISR( uint32_t ulMask )
{
	__asm volatile(
    10ba:	f380 8810 	msr	PRIMASK, r0
    10be:	4770      	bx	lr

000010c0 <PendSV_Handler>:

void xPortPendSVHandler( void )
{
	/* This is a naked function. */

	__asm volatile
    10c0:	f3ef 8009 	mrs	r0, PSP
    10c4:	4b0e      	ldr	r3, [pc, #56]	; (1100 <pxCurrentTCBConst>)
    10c6:	681a      	ldr	r2, [r3, #0]
    10c8:	3820      	subs	r0, #32
    10ca:	6010      	str	r0, [r2, #0]
    10cc:	c0f0      	stmia	r0!, {r4, r5, r6, r7}
    10ce:	4644      	mov	r4, r8
    10d0:	464d      	mov	r5, r9
    10d2:	4656      	mov	r6, sl
    10d4:	465f      	mov	r7, fp
    10d6:	c0f0      	stmia	r0!, {r4, r5, r6, r7}
    10d8:	b508      	push	{r3, lr}
    10da:	b672      	cpsid	i
    10dc:	f000 ff26 	bl	1f2c <vTaskSwitchContext>
    10e0:	b662      	cpsie	i
    10e2:	bc0c      	pop	{r2, r3}
    10e4:	6811      	ldr	r1, [r2, #0]
    10e6:	6808      	ldr	r0, [r1, #0]
    10e8:	3010      	adds	r0, #16
    10ea:	c8f0      	ldmia	r0!, {r4, r5, r6, r7}
    10ec:	46a0      	mov	r8, r4
    10ee:	46a9      	mov	r9, r5
    10f0:	46b2      	mov	sl, r6
    10f2:	46bb      	mov	fp, r7
    10f4:	f380 8809 	msr	PSP, r0
    10f8:	3820      	subs	r0, #32
    10fa:	c8f0      	ldmia	r0!, {r4, r5, r6, r7}
    10fc:	4718      	bx	r3
    10fe:	46c0      	nop			; (mov r8, r8)

00001100 <pxCurrentTCBConst>:
    1100:	20003b74 	.word	0x20003b74

00001104 <SysTick_Handler>:
	);
}
/*-----------------------------------------------------------*/

void xPortSysTickHandler( void )
{
    1104:	b510      	push	{r4, lr}
uint32_t ulPreviousMask;

	ulPreviousMask = portSET_INTERRUPT_MASK_FROM_ISR();
    1106:	4b07      	ldr	r3, [pc, #28]	; (1124 <SysTick_Handler+0x20>)
    1108:	4798      	blx	r3
    110a:	0004      	movs	r4, r0
	{
		/* Increment the RTOS tick. */
		if( xTaskIncrementTick() != pdFALSE )
    110c:	4b06      	ldr	r3, [pc, #24]	; (1128 <SysTick_Handler+0x24>)
    110e:	4798      	blx	r3
    1110:	2800      	cmp	r0, #0
    1112:	d003      	beq.n	111c <SysTick_Handler+0x18>
		{
			/* Pend a context switch. */
			*(portNVIC_INT_CTRL) = portNVIC_PENDSVSET;
    1114:	2280      	movs	r2, #128	; 0x80
    1116:	0552      	lsls	r2, r2, #21
    1118:	4b04      	ldr	r3, [pc, #16]	; (112c <SysTick_Handler+0x28>)
    111a:	601a      	str	r2, [r3, #0]
		}
	}
	portCLEAR_INTERRUPT_MASK_FROM_ISR( ulPreviousMask );
    111c:	0020      	movs	r0, r4
    111e:	4b04      	ldr	r3, [pc, #16]	; (1130 <SysTick_Handler+0x2c>)
    1120:	4798      	blx	r3
}
    1122:	bd10      	pop	{r4, pc}
    1124:	000010b1 	.word	0x000010b1
    1128:	00001c1d 	.word	0x00001c1d
    112c:	e000ed04 	.word	0xe000ed04
    1130:	000010bb 	.word	0x000010bb

00001134 <vPortSetupTimerInterrupt>:
 * frequency.
 */
__attribute__(( weak )) void vPortSetupTimerInterrupt( void )
{
	/* Configure SysTick to interrupt at the requested rate. */
	*(portNVIC_SYSTICK_VAL)  = 0; /* Load the SysTick Counter Value */
    1134:	2200      	movs	r2, #0
    1136:	4b04      	ldr	r3, [pc, #16]	; (1148 <vPortSetupTimerInterrupt+0x14>)
    1138:	601a      	str	r2, [r3, #0]
	*(portNVIC_SYSTICK_LOAD) = ( configCPU_CLOCK_HZ / configTICK_RATE_HZ ) - 1UL;
    113a:	4a04      	ldr	r2, [pc, #16]	; (114c <vPortSetupTimerInterrupt+0x18>)
    113c:	4b04      	ldr	r3, [pc, #16]	; (1150 <vPortSetupTimerInterrupt+0x1c>)
    113e:	601a      	str	r2, [r3, #0]
	*(portNVIC_SYSTICK_CTRL) = portNVIC_SYSTICK_CLK | portNVIC_SYSTICK_INT | portNVIC_SYSTICK_ENABLE;
    1140:	2207      	movs	r2, #7
    1142:	4b04      	ldr	r3, [pc, #16]	; (1154 <vPortSetupTimerInterrupt+0x20>)
    1144:	601a      	str	r2, [r3, #0]
}
    1146:	4770      	bx	lr
    1148:	e000e018 	.word	0xe000e018
    114c:	00001f3f 	.word	0x00001f3f
    1150:	e000e014 	.word	0xe000e014
    1154:	e000e010 	.word	0xe000e010

00001158 <xPortStartScheduler>:
{
    1158:	b510      	push	{r4, lr}
	*(portNVIC_SYSPRI2) |= portNVIC_PENDSV_PRI;
    115a:	4b0a      	ldr	r3, [pc, #40]	; (1184 <xPortStartScheduler+0x2c>)
    115c:	6819      	ldr	r1, [r3, #0]
    115e:	22ff      	movs	r2, #255	; 0xff
    1160:	0412      	lsls	r2, r2, #16
    1162:	430a      	orrs	r2, r1
    1164:	601a      	str	r2, [r3, #0]
	*(portNVIC_SYSPRI2) |= portNVIC_SYSTICK_PRI;
    1166:	6819      	ldr	r1, [r3, #0]
    1168:	22ff      	movs	r2, #255	; 0xff
    116a:	0612      	lsls	r2, r2, #24
    116c:	430a      	orrs	r2, r1
    116e:	601a      	str	r2, [r3, #0]
	vPortSetupTimerInterrupt();
    1170:	4b05      	ldr	r3, [pc, #20]	; (1188 <xPortStartScheduler+0x30>)
    1172:	4798      	blx	r3
	uxCriticalNesting = 0;
    1174:	2200      	movs	r2, #0
    1176:	4b05      	ldr	r3, [pc, #20]	; (118c <xPortStartScheduler+0x34>)
    1178:	601a      	str	r2, [r3, #0]
	vPortStartFirstTask();
    117a:	4b05      	ldr	r3, [pc, #20]	; (1190 <xPortStartScheduler+0x38>)
    117c:	4798      	blx	r3
	prvTaskExitError();
    117e:	4b05      	ldr	r3, [pc, #20]	; (1194 <xPortStartScheduler+0x3c>)
    1180:	4798      	blx	r3
    1182:	46c0      	nop			; (mov r8, r8)
    1184:	e000ed20 	.word	0xe000ed20
    1188:	00001135 	.word	0x00001135
    118c:	20000024 	.word	0x20000024
    1190:	0000101d 	.word	0x0000101d
    1194:	00001009 	.word	0x00001009

00001198 <pvPortMalloc>:
static size_t xNextFreeByte = ( size_t ) 0;

/*-----------------------------------------------------------*/

void *pvPortMalloc( size_t xWantedSize )
{
    1198:	b570      	push	{r4, r5, r6, lr}
    119a:	0004      	movs	r4, r0
void *pvReturn = NULL;
static uint8_t *pucAlignedHeap = NULL;

	/* Ensure that blocks are always aligned to the required number of bytes. */
	#if portBYTE_ALIGNMENT != 1
		if( xWantedSize & portBYTE_ALIGNMENT_MASK )
    119c:	0743      	lsls	r3, r0, #29
    119e:	d002      	beq.n	11a6 <pvPortMalloc+0xe>
		{
			/* Byte alignment required. */
			xWantedSize += ( portBYTE_ALIGNMENT - ( xWantedSize & portBYTE_ALIGNMENT_MASK ) );
    11a0:	2307      	movs	r3, #7
    11a2:	439c      	bics	r4, r3
    11a4:	3408      	adds	r4, #8
		}
	#endif

	vTaskSuspendAll();
    11a6:	4b11      	ldr	r3, [pc, #68]	; (11ec <pvPortMalloc+0x54>)
    11a8:	4798      	blx	r3
	{
		if( pucAlignedHeap == NULL )
    11aa:	4b11      	ldr	r3, [pc, #68]	; (11f0 <pvPortMalloc+0x58>)
    11ac:	681b      	ldr	r3, [r3, #0]
    11ae:	2b00      	cmp	r3, #0
    11b0:	d010      	beq.n	11d4 <pvPortMalloc+0x3c>
			/* Ensure the heap starts on a correctly aligned boundary. */
			pucAlignedHeap = ( uint8_t * ) ( ( ( portPOINTER_SIZE_TYPE ) &ucHeap[ portBYTE_ALIGNMENT ] ) & ( ( portPOINTER_SIZE_TYPE ) ~portBYTE_ALIGNMENT_MASK ) );
		}

		/* Check there is enough room left for the allocation. */
		if( ( ( xNextFreeByte + xWantedSize ) < configADJUSTED_HEAP_SIZE ) &&
    11b2:	4b10      	ldr	r3, [pc, #64]	; (11f4 <pvPortMalloc+0x5c>)
    11b4:	681b      	ldr	r3, [r3, #0]
    11b6:	18e4      	adds	r4, r4, r3
    11b8:	4a0f      	ldr	r2, [pc, #60]	; (11f8 <pvPortMalloc+0x60>)
    11ba:	4294      	cmp	r4, r2
    11bc:	d811      	bhi.n	11e2 <pvPortMalloc+0x4a>
    11be:	42a3      	cmp	r3, r4
    11c0:	d211      	bcs.n	11e6 <pvPortMalloc+0x4e>
			( ( xNextFreeByte + xWantedSize ) > xNextFreeByte )	)/* Check for overflow. */
		{
			/* Return the next free byte then increment the index past this
			block. */
			pvReturn = pucAlignedHeap + xNextFreeByte;
    11c2:	4a0b      	ldr	r2, [pc, #44]	; (11f0 <pvPortMalloc+0x58>)
    11c4:	6815      	ldr	r5, [r2, #0]
    11c6:	18ed      	adds	r5, r5, r3
			xNextFreeByte += xWantedSize;
    11c8:	4b0a      	ldr	r3, [pc, #40]	; (11f4 <pvPortMalloc+0x5c>)
    11ca:	601c      	str	r4, [r3, #0]
		}

		traceMALLOC( pvReturn, xWantedSize );
	}
	( void ) xTaskResumeAll();
    11cc:	4b0b      	ldr	r3, [pc, #44]	; (11fc <pvPortMalloc+0x64>)
    11ce:	4798      	blx	r3
		}
	}
	#endif

	return pvReturn;
}
    11d0:	0028      	movs	r0, r5
    11d2:	bd70      	pop	{r4, r5, r6, pc}
			pucAlignedHeap = ( uint8_t * ) ( ( ( portPOINTER_SIZE_TYPE ) &ucHeap[ portBYTE_ALIGNMENT ] ) & ( ( portPOINTER_SIZE_TYPE ) ~portBYTE_ALIGNMENT_MASK ) );
    11d4:	2207      	movs	r2, #7
    11d6:	4b0a      	ldr	r3, [pc, #40]	; (1200 <pvPortMalloc+0x68>)
    11d8:	3308      	adds	r3, #8
    11da:	4393      	bics	r3, r2
    11dc:	4a04      	ldr	r2, [pc, #16]	; (11f0 <pvPortMalloc+0x58>)
    11de:	6013      	str	r3, [r2, #0]
    11e0:	e7e7      	b.n	11b2 <pvPortMalloc+0x1a>
void *pvReturn = NULL;
    11e2:	2500      	movs	r5, #0
    11e4:	e7f2      	b.n	11cc <pvPortMalloc+0x34>
    11e6:	2500      	movs	r5, #0
    11e8:	e7f0      	b.n	11cc <pvPortMalloc+0x34>
    11ea:	46c0      	nop			; (mov r8, r8)
    11ec:	00001bed 	.word	0x00001bed
    11f0:	200000d4 	.word	0x200000d4
    11f4:	20003b70 	.word	0x20003b70
    11f8:	00003a8f 	.word	0x00003a8f
    11fc:	00001d41 	.word	0x00001d41
    1200:	200000d8 	.word	0x200000d8

00001204 <vPortFree>:
	heap_4.c for alternative implementations, and the memory management pages of
	http://www.FreeRTOS.org for more information. */
	( void ) pv;

	/* Force an assert as it is invalid to call this function. */
	configASSERT( pv == NULL );
    1204:	2800      	cmp	r0, #0
    1206:	d001      	beq.n	120c <vPortFree+0x8>
    1208:	b672      	cpsid	i
    120a:	e7fe      	b.n	120a <vPortFree+0x6>
}
    120c:	4770      	bx	lr

0000120e <vListInitialise>:
void vListInitialise( List_t * const pxList )
{
	/* The list structure contains a list item which is used to mark the
	end of the list.  To initialise the list the list end is inserted
	as the only list entry. */
	pxList->pxIndex = ( ListItem_t * ) &( pxList->xListEnd );			/*lint !e826 !e740 The mini list structure is used as the list end to save RAM.  This is checked and valid. */
    120e:	0003      	movs	r3, r0
    1210:	3308      	adds	r3, #8
    1212:	6043      	str	r3, [r0, #4]

	/* The list end value is the highest possible value in the list to
	ensure it remains at the end of the list. */
	pxList->xListEnd.xItemValue = portMAX_DELAY;
    1214:	2201      	movs	r2, #1
    1216:	4252      	negs	r2, r2
    1218:	6082      	str	r2, [r0, #8]

	/* The list end next and previous pointers point to itself so we know
	when the list is empty. */
	pxList->xListEnd.pxNext = ( ListItem_t * ) &( pxList->xListEnd );	/*lint !e826 !e740 The mini list structure is used as the list end to save RAM.  This is checked and valid. */
    121a:	60c3      	str	r3, [r0, #12]
	pxList->xListEnd.pxPrevious = ( ListItem_t * ) &( pxList->xListEnd );/*lint !e826 !e740 The mini list structure is used as the list end to save RAM.  This is checked and valid. */
    121c:	6103      	str	r3, [r0, #16]

	pxList->uxNumberOfItems = ( UBaseType_t ) 0U;
    121e:	2300      	movs	r3, #0
    1220:	6003      	str	r3, [r0, #0]
}
    1222:	4770      	bx	lr

00001224 <vListInitialiseItem>:
/*-----------------------------------------------------------*/

void vListInitialiseItem( ListItem_t * const pxItem )
{
	/* Make sure the list item is not recorded as being on a list. */
	pxItem->pvContainer = NULL;
    1224:	2300      	movs	r3, #0
    1226:	6103      	str	r3, [r0, #16]
}
    1228:	4770      	bx	lr

0000122a <vListInsertEnd>:
/*-----------------------------------------------------------*/

void vListInsertEnd( List_t * const pxList, ListItem_t * const pxNewListItem )
{
ListItem_t * const pxIndex = pxList->pxIndex;
    122a:	6843      	ldr	r3, [r0, #4]

	/* Insert a new list item into pxList, but rather than sort the list,
	makes the new list item the last item to be removed by a call to
	listGET_OWNER_OF_NEXT_ENTRY(). */
	pxNewListItem->pxNext = pxIndex;
    122c:	604b      	str	r3, [r1, #4]
	pxNewListItem->pxPrevious = pxIndex->pxPrevious;
    122e:	689a      	ldr	r2, [r3, #8]
    1230:	608a      	str	r2, [r1, #8]
	pxIndex->pxPrevious->pxNext = pxNewListItem;
    1232:	689a      	ldr	r2, [r3, #8]
    1234:	6051      	str	r1, [r2, #4]
	pxIndex->pxPrevious = pxNewListItem;
    1236:	6099      	str	r1, [r3, #8]

	/* Remember which list the item is in. */
	pxNewListItem->pvContainer = ( void * ) pxList;
    1238:	6108      	str	r0, [r1, #16]

	( pxList->uxNumberOfItems )++;
    123a:	6803      	ldr	r3, [r0, #0]
    123c:	3301      	adds	r3, #1
    123e:	6003      	str	r3, [r0, #0]
}
    1240:	4770      	bx	lr

00001242 <vListInsert>:
/*-----------------------------------------------------------*/

void vListInsert( List_t * const pxList, ListItem_t * const pxNewListItem )
{
    1242:	b530      	push	{r4, r5, lr}
ListItem_t *pxIterator;
const TickType_t xValueOfInsertion = pxNewListItem->xItemValue;
    1244:	680c      	ldr	r4, [r1, #0]
			   before vTaskStartScheduler() has been called?).
		See http://www.freertos.org/FAQHelp.html for more tips, and ensure
		configASSERT() is defined!  http://www.freertos.org/a00110.html#configASSERT
		**********************************************************************/

		for( pxIterator = ( ListItem_t * ) &( pxList->xListEnd ); pxIterator->pxNext->xItemValue <= xValueOfInsertion; pxIterator = pxIterator->pxNext ) /*lint !e826 !e740 The mini list structure is used as the list end to save RAM.  This is checked and valid. */
    1246:	0002      	movs	r2, r0
    1248:	3208      	adds	r2, #8
	if( xValueOfInsertion == portMAX_DELAY )
    124a:	1c63      	adds	r3, r4, #1
    124c:	d102      	bne.n	1254 <vListInsert+0x12>
		pxIterator = pxList->xListEnd.pxPrevious;
    124e:	6902      	ldr	r2, [r0, #16]
    1250:	e004      	b.n	125c <vListInsert+0x1a>
		for( pxIterator = ( ListItem_t * ) &( pxList->xListEnd ); pxIterator->pxNext->xItemValue <= xValueOfInsertion; pxIterator = pxIterator->pxNext ) /*lint !e826 !e740 The mini list structure is used as the list end to save RAM.  This is checked and valid. */
    1252:	001a      	movs	r2, r3
    1254:	6853      	ldr	r3, [r2, #4]
    1256:	681d      	ldr	r5, [r3, #0]
    1258:	42ac      	cmp	r4, r5
    125a:	d2fa      	bcs.n	1252 <vListInsert+0x10>
			/* There is nothing to do here, we are just iterating to the
			wanted insertion position. */
		}
	}

	pxNewListItem->pxNext = pxIterator->pxNext;
    125c:	6853      	ldr	r3, [r2, #4]
    125e:	604b      	str	r3, [r1, #4]
	pxNewListItem->pxNext->pxPrevious = pxNewListItem;
    1260:	6099      	str	r1, [r3, #8]
	pxNewListItem->pxPrevious = pxIterator;
    1262:	608a      	str	r2, [r1, #8]
	pxIterator->pxNext = pxNewListItem;
    1264:	6051      	str	r1, [r2, #4]

	/* Remember which list the item is in.  This allows fast removal of the
	item later. */
	pxNewListItem->pvContainer = ( void * ) pxList;
    1266:	6108      	str	r0, [r1, #16]

	( pxList->uxNumberOfItems )++;
    1268:	6803      	ldr	r3, [r0, #0]
    126a:	3301      	adds	r3, #1
    126c:	6003      	str	r3, [r0, #0]
}
    126e:	bd30      	pop	{r4, r5, pc}

00001270 <uxListRemove>:

UBaseType_t uxListRemove( ListItem_t * const pxItemToRemove )
{
/* The list item knows which list it is in.  Obtain the list from the list
item. */
List_t * const pxList = ( List_t * ) pxItemToRemove->pvContainer;
    1270:	6903      	ldr	r3, [r0, #16]

	pxItemToRemove->pxNext->pxPrevious = pxItemToRemove->pxPrevious;
    1272:	6842      	ldr	r2, [r0, #4]
    1274:	6881      	ldr	r1, [r0, #8]
    1276:	6091      	str	r1, [r2, #8]
	pxItemToRemove->pxPrevious->pxNext = pxItemToRemove->pxNext;
    1278:	6882      	ldr	r2, [r0, #8]
    127a:	6841      	ldr	r1, [r0, #4]
    127c:	6051      	str	r1, [r2, #4]

	/* Make sure the index is left pointing to a valid item. */
	if( pxList->pxIndex == pxItemToRemove )
    127e:	685a      	ldr	r2, [r3, #4]
    1280:	4290      	cmp	r0, r2
    1282:	d005      	beq.n	1290 <uxListRemove+0x20>
	else
	{
		mtCOVERAGE_TEST_MARKER();
	}

	pxItemToRemove->pvContainer = NULL;
    1284:	2200      	movs	r2, #0
    1286:	6102      	str	r2, [r0, #16]
	( pxList->uxNumberOfItems )--;
    1288:	681a      	ldr	r2, [r3, #0]
    128a:	1e50      	subs	r0, r2, #1
    128c:	6018      	str	r0, [r3, #0]

	return pxList->uxNumberOfItems;
}
    128e:	4770      	bx	lr
		pxList->pxIndex = pxItemToRemove->pxPrevious;
    1290:	6882      	ldr	r2, [r0, #8]
    1292:	605a      	str	r2, [r3, #4]
    1294:	e7f6      	b.n	1284 <uxListRemove+0x14>
	...

00001298 <prvCopyDataToQueue>:

#endif /* configUSE_TRACE_FACILITY */
/*-----------------------------------------------------------*/

static void prvCopyDataToQueue( Queue_t * const pxQueue, const void *pvItemToQueue, const BaseType_t xPosition )
{
    1298:	b570      	push	{r4, r5, r6, lr}
    129a:	0004      	movs	r4, r0
    129c:	0015      	movs	r5, r2
	if( pxQueue->uxItemSize == ( UBaseType_t ) 0 )
    129e:	6c02      	ldr	r2, [r0, #64]	; 0x40
    12a0:	2a00      	cmp	r2, #0
    12a2:	d10b      	bne.n	12bc <prvCopyDataToQueue+0x24>
	{
		#if ( configUSE_MUTEXES == 1 )
		{
			if( pxQueue->uxQueueType == queueQUEUE_IS_MUTEX )
    12a4:	6803      	ldr	r3, [r0, #0]
    12a6:	2b00      	cmp	r3, #0
    12a8:	d104      	bne.n	12b4 <prvCopyDataToQueue+0x1c>
			{
				/* The mutex is no longer being held. */
				vTaskPriorityDisinherit( ( void * ) pxQueue->pxMutexHolder );
    12aa:	6840      	ldr	r0, [r0, #4]
    12ac:	4b17      	ldr	r3, [pc, #92]	; (130c <prvCopyDataToQueue+0x74>)
    12ae:	4798      	blx	r3
				pxQueue->pxMutexHolder = NULL;
    12b0:	2300      	movs	r3, #0
    12b2:	6063      	str	r3, [r4, #4]
		{
			mtCOVERAGE_TEST_MARKER();
		}
	}

	++( pxQueue->uxMessagesWaiting );
    12b4:	6ba3      	ldr	r3, [r4, #56]	; 0x38
    12b6:	3301      	adds	r3, #1
    12b8:	63a3      	str	r3, [r4, #56]	; 0x38
}
    12ba:	bd70      	pop	{r4, r5, r6, pc}
	else if( xPosition == queueSEND_TO_BACK )
    12bc:	2d00      	cmp	r5, #0
    12be:	d10d      	bne.n	12dc <prvCopyDataToQueue+0x44>
		( void ) memcpy( ( void * ) pxQueue->pcWriteTo, pvItemToQueue, ( size_t ) pxQueue->uxItemSize ); /*lint !e961 !e418 MISRA exception as the casts are only redundant for some ports, plus previous logic ensures a null pointer can only be passed to memcpy() if the copy size is 0. */
    12c0:	6880      	ldr	r0, [r0, #8]
    12c2:	4b13      	ldr	r3, [pc, #76]	; (1310 <prvCopyDataToQueue+0x78>)
    12c4:	4798      	blx	r3
		pxQueue->pcWriteTo += pxQueue->uxItemSize;
    12c6:	68a3      	ldr	r3, [r4, #8]
    12c8:	6c22      	ldr	r2, [r4, #64]	; 0x40
    12ca:	4694      	mov	ip, r2
    12cc:	4463      	add	r3, ip
    12ce:	60a3      	str	r3, [r4, #8]
		if( pxQueue->pcWriteTo >= pxQueue->pcTail ) /*lint !e946 MISRA exception justified as comparison of pointers is the cleanest solution. */
    12d0:	6862      	ldr	r2, [r4, #4]
    12d2:	4293      	cmp	r3, r2
    12d4:	d3ee      	bcc.n	12b4 <prvCopyDataToQueue+0x1c>
			pxQueue->pcWriteTo = pxQueue->pcHead;
    12d6:	6823      	ldr	r3, [r4, #0]
    12d8:	60a3      	str	r3, [r4, #8]
    12da:	e7eb      	b.n	12b4 <prvCopyDataToQueue+0x1c>
		( void ) memcpy( ( void * ) pxQueue->u.pcReadFrom, pvItemToQueue, ( size_t ) pxQueue->uxItemSize ); /*lint !e961 MISRA exception as the casts are only redundant for some ports. */
    12dc:	68c0      	ldr	r0, [r0, #12]
    12de:	4b0c      	ldr	r3, [pc, #48]	; (1310 <prvCopyDataToQueue+0x78>)
    12e0:	4798      	blx	r3
		pxQueue->u.pcReadFrom -= pxQueue->uxItemSize;
    12e2:	6c23      	ldr	r3, [r4, #64]	; 0x40
    12e4:	425b      	negs	r3, r3
    12e6:	68e2      	ldr	r2, [r4, #12]
    12e8:	18d2      	adds	r2, r2, r3
    12ea:	60e2      	str	r2, [r4, #12]
		if( pxQueue->u.pcReadFrom < pxQueue->pcHead ) /*lint !e946 MISRA exception justified as comparison of pointers is the cleanest solution. */
    12ec:	6821      	ldr	r1, [r4, #0]
    12ee:	428a      	cmp	r2, r1
    12f0:	d203      	bcs.n	12fa <prvCopyDataToQueue+0x62>
			pxQueue->u.pcReadFrom = ( pxQueue->pcTail - pxQueue->uxItemSize );
    12f2:	6862      	ldr	r2, [r4, #4]
    12f4:	4694      	mov	ip, r2
    12f6:	4463      	add	r3, ip
    12f8:	60e3      	str	r3, [r4, #12]
		if( xPosition == queueOVERWRITE )
    12fa:	2d02      	cmp	r5, #2
    12fc:	d1da      	bne.n	12b4 <prvCopyDataToQueue+0x1c>
			if( pxQueue->uxMessagesWaiting > ( UBaseType_t ) 0 )
    12fe:	6ba3      	ldr	r3, [r4, #56]	; 0x38
    1300:	2b00      	cmp	r3, #0
    1302:	d0d7      	beq.n	12b4 <prvCopyDataToQueue+0x1c>
				--( pxQueue->uxMessagesWaiting );
    1304:	6ba3      	ldr	r3, [r4, #56]	; 0x38
    1306:	3b01      	subs	r3, #1
    1308:	63a3      	str	r3, [r4, #56]	; 0x38
    130a:	e7d3      	b.n	12b4 <prvCopyDataToQueue+0x1c>
    130c:	00002245 	.word	0x00002245
    1310:	00006329 	.word	0x00006329

00001314 <prvNotifyQueueSetContainer>:
/*-----------------------------------------------------------*/

#if ( configUSE_QUEUE_SETS == 1 )

	static BaseType_t prvNotifyQueueSetContainer( const Queue_t * const pxQueue, const BaseType_t xCopyPosition )
	{
    1314:	b510      	push	{r4, lr}
    1316:	b082      	sub	sp, #8
    1318:	9001      	str	r0, [sp, #4]
    131a:	000a      	movs	r2, r1
	Queue_t *pxQueueSetContainer = pxQueue->pxQueueSetContainer;
    131c:	6cc4      	ldr	r4, [r0, #76]	; 0x4c
	BaseType_t xReturn = pdFALSE;

		/* This function must be called form a critical section. */

		configASSERT( pxQueueSetContainer );
    131e:	2c00      	cmp	r4, #0
    1320:	d005      	beq.n	132e <prvNotifyQueueSetContainer+0x1a>
		configASSERT( pxQueueSetContainer->uxMessagesWaiting < pxQueueSetContainer->uxLength );
    1322:	6ba1      	ldr	r1, [r4, #56]	; 0x38
    1324:	6be3      	ldr	r3, [r4, #60]	; 0x3c
    1326:	4299      	cmp	r1, r3
    1328:	d303      	bcc.n	1332 <prvNotifyQueueSetContainer+0x1e>
    132a:	b672      	cpsid	i
    132c:	e7fe      	b.n	132c <prvNotifyQueueSetContainer+0x18>
		configASSERT( pxQueueSetContainer );
    132e:	b672      	cpsid	i
    1330:	e7fe      	b.n	1330 <prvNotifyQueueSetContainer+0x1c>

		if( pxQueueSetContainer->uxMessagesWaiting < pxQueueSetContainer->uxLength )
    1332:	6ba1      	ldr	r1, [r4, #56]	; 0x38
	BaseType_t xReturn = pdFALSE;
    1334:	2000      	movs	r0, #0
		if( pxQueueSetContainer->uxMessagesWaiting < pxQueueSetContainer->uxLength )
    1336:	428b      	cmp	r3, r1
    1338:	d801      	bhi.n	133e <prvNotifyQueueSetContainer+0x2a>
		{
			mtCOVERAGE_TEST_MARKER();
		}

		return xReturn;
	}
    133a:	b002      	add	sp, #8
    133c:	bd10      	pop	{r4, pc}
			prvCopyDataToQueue( pxQueueSetContainer, &pxQueue, xCopyPosition );
    133e:	a901      	add	r1, sp, #4
    1340:	0020      	movs	r0, r4
    1342:	4b06      	ldr	r3, [pc, #24]	; (135c <prvNotifyQueueSetContainer+0x48>)
    1344:	4798      	blx	r3
	BaseType_t xReturn = pdFALSE;
    1346:	2000      	movs	r0, #0
			if( listLIST_IS_EMPTY( &( pxQueueSetContainer->xTasksWaitingToReceive ) ) == pdFALSE )
    1348:	6a63      	ldr	r3, [r4, #36]	; 0x24
    134a:	2b00      	cmp	r3, #0
    134c:	d0f5      	beq.n	133a <prvNotifyQueueSetContainer+0x26>
				if( xTaskRemoveFromEventList( &( pxQueueSetContainer->xTasksWaitingToReceive ) ) != pdFALSE )
    134e:	0020      	movs	r0, r4
    1350:	3024      	adds	r0, #36	; 0x24
    1352:	4b03      	ldr	r3, [pc, #12]	; (1360 <prvNotifyQueueSetContainer+0x4c>)
    1354:	4798      	blx	r3
	BaseType_t xReturn = pdFALSE;
    1356:	1e43      	subs	r3, r0, #1
    1358:	4198      	sbcs	r0, r3
    135a:	e7ee      	b.n	133a <prvNotifyQueueSetContainer+0x26>
    135c:	00001299 	.word	0x00001299
    1360:	00002075 	.word	0x00002075

00001364 <prvCopyDataFromQueue>:
{
    1364:	b570      	push	{r4, r5, r6, lr}
    1366:	000c      	movs	r4, r1
	if( pxQueue->uxQueueType != queueQUEUE_IS_MUTEX )
    1368:	6801      	ldr	r1, [r0, #0]
    136a:	2900      	cmp	r1, #0
    136c:	d00b      	beq.n	1386 <prvCopyDataFromQueue+0x22>
		pxQueue->u.pcReadFrom += pxQueue->uxItemSize;
    136e:	6c02      	ldr	r2, [r0, #64]	; 0x40
    1370:	68c3      	ldr	r3, [r0, #12]
    1372:	189b      	adds	r3, r3, r2
    1374:	60c3      	str	r3, [r0, #12]
		if( pxQueue->u.pcReadFrom >= pxQueue->pcTail ) /*lint !e946 MISRA exception justified as use of the relational operator is the cleanest solutions. */
    1376:	6845      	ldr	r5, [r0, #4]
    1378:	42ab      	cmp	r3, r5
    137a:	d300      	bcc.n	137e <prvCopyDataFromQueue+0x1a>
			pxQueue->u.pcReadFrom = pxQueue->pcHead;
    137c:	60c1      	str	r1, [r0, #12]
		( void ) memcpy( ( void * ) pvBuffer, ( void * ) pxQueue->u.pcReadFrom, ( size_t ) pxQueue->uxItemSize ); /*lint !e961 !e418 MISRA exception as the casts are only redundant for some ports.  Also previous logic ensures a null pointer can only be passed to memcpy() when the count is 0. */
    137e:	68c1      	ldr	r1, [r0, #12]
    1380:	0020      	movs	r0, r4
    1382:	4b01      	ldr	r3, [pc, #4]	; (1388 <prvCopyDataFromQueue+0x24>)
    1384:	4798      	blx	r3
}
    1386:	bd70      	pop	{r4, r5, r6, pc}
    1388:	00006329 	.word	0x00006329

0000138c <prvUnlockQueue>:
{
    138c:	b5f8      	push	{r3, r4, r5, r6, r7, lr}
    138e:	0004      	movs	r4, r0
	taskENTER_CRITICAL();
    1390:	4b25      	ldr	r3, [pc, #148]	; (1428 <prvUnlockQueue+0x9c>)
    1392:	4798      	blx	r3
		while( pxQueue->xTxLock > queueLOCKED_UNMODIFIED )
    1394:	6ca3      	ldr	r3, [r4, #72]	; 0x48
    1396:	2b00      	cmp	r3, #0
    1398:	dd1e      	ble.n	13d8 <prvUnlockQueue+0x4c>
					if( prvNotifyQueueSetContainer( pxQueue, queueSEND_TO_BACK ) == pdTRUE )
    139a:	4d24      	ldr	r5, [pc, #144]	; (142c <prvUnlockQueue+0xa0>)
						if( xTaskRemoveFromEventList( &( pxQueue->xTasksWaitingToReceive ) ) != pdFALSE )
    139c:	4e24      	ldr	r6, [pc, #144]	; (1430 <prvUnlockQueue+0xa4>)
    139e:	e00d      	b.n	13bc <prvUnlockQueue+0x30>
					if( listLIST_IS_EMPTY( &( pxQueue->xTasksWaitingToReceive ) ) == pdFALSE )
    13a0:	6a63      	ldr	r3, [r4, #36]	; 0x24
    13a2:	2b00      	cmp	r3, #0
    13a4:	d018      	beq.n	13d8 <prvUnlockQueue+0x4c>
						if( xTaskRemoveFromEventList( &( pxQueue->xTasksWaitingToReceive ) ) != pdFALSE )
    13a6:	0020      	movs	r0, r4
    13a8:	3024      	adds	r0, #36	; 0x24
    13aa:	47b0      	blx	r6
    13ac:	2800      	cmp	r0, #0
    13ae:	d110      	bne.n	13d2 <prvUnlockQueue+0x46>
			--( pxQueue->xTxLock );
    13b0:	6ca3      	ldr	r3, [r4, #72]	; 0x48
    13b2:	3b01      	subs	r3, #1
    13b4:	64a3      	str	r3, [r4, #72]	; 0x48
		while( pxQueue->xTxLock > queueLOCKED_UNMODIFIED )
    13b6:	6ca3      	ldr	r3, [r4, #72]	; 0x48
    13b8:	2b00      	cmp	r3, #0
    13ba:	dd0d      	ble.n	13d8 <prvUnlockQueue+0x4c>
				if( pxQueue->pxQueueSetContainer != NULL )
    13bc:	6ce3      	ldr	r3, [r4, #76]	; 0x4c
    13be:	2b00      	cmp	r3, #0
    13c0:	d0ee      	beq.n	13a0 <prvUnlockQueue+0x14>
					if( prvNotifyQueueSetContainer( pxQueue, queueSEND_TO_BACK ) == pdTRUE )
    13c2:	2100      	movs	r1, #0
    13c4:	0020      	movs	r0, r4
    13c6:	47a8      	blx	r5
    13c8:	2801      	cmp	r0, #1
    13ca:	d1f1      	bne.n	13b0 <prvUnlockQueue+0x24>
						vTaskMissedYield();
    13cc:	4b19      	ldr	r3, [pc, #100]	; (1434 <prvUnlockQueue+0xa8>)
    13ce:	4798      	blx	r3
    13d0:	e7ee      	b.n	13b0 <prvUnlockQueue+0x24>
							vTaskMissedYield();
    13d2:	4b18      	ldr	r3, [pc, #96]	; (1434 <prvUnlockQueue+0xa8>)
    13d4:	4798      	blx	r3
    13d6:	e7eb      	b.n	13b0 <prvUnlockQueue+0x24>
		pxQueue->xTxLock = queueUNLOCKED;
    13d8:	2301      	movs	r3, #1
    13da:	425b      	negs	r3, r3
    13dc:	64a3      	str	r3, [r4, #72]	; 0x48
	taskEXIT_CRITICAL();
    13de:	4b16      	ldr	r3, [pc, #88]	; (1438 <prvUnlockQueue+0xac>)
    13e0:	4798      	blx	r3
	taskENTER_CRITICAL();
    13e2:	4b11      	ldr	r3, [pc, #68]	; (1428 <prvUnlockQueue+0x9c>)
    13e4:	4798      	blx	r3
		while( pxQueue->xRxLock > queueLOCKED_UNMODIFIED )
    13e6:	6c63      	ldr	r3, [r4, #68]	; 0x44
    13e8:	2b00      	cmp	r3, #0
    13ea:	dd16      	ble.n	141a <prvUnlockQueue+0x8e>
			if( listLIST_IS_EMPTY( &( pxQueue->xTasksWaitingToSend ) ) == pdFALSE )
    13ec:	6923      	ldr	r3, [r4, #16]
    13ee:	2b00      	cmp	r3, #0
    13f0:	d013      	beq.n	141a <prvUnlockQueue+0x8e>
				if( xTaskRemoveFromEventList( &( pxQueue->xTasksWaitingToSend ) ) != pdFALSE )
    13f2:	0025      	movs	r5, r4
    13f4:	3510      	adds	r5, #16
    13f6:	4f0e      	ldr	r7, [pc, #56]	; (1430 <prvUnlockQueue+0xa4>)
					vTaskMissedYield();
    13f8:	4e0e      	ldr	r6, [pc, #56]	; (1434 <prvUnlockQueue+0xa8>)
    13fa:	e008      	b.n	140e <prvUnlockQueue+0x82>
				--( pxQueue->xRxLock );
    13fc:	6c63      	ldr	r3, [r4, #68]	; 0x44
    13fe:	3b01      	subs	r3, #1
    1400:	6463      	str	r3, [r4, #68]	; 0x44
		while( pxQueue->xRxLock > queueLOCKED_UNMODIFIED )
    1402:	6c63      	ldr	r3, [r4, #68]	; 0x44
    1404:	2b00      	cmp	r3, #0
    1406:	dd08      	ble.n	141a <prvUnlockQueue+0x8e>
			if( listLIST_IS_EMPTY( &( pxQueue->xTasksWaitingToSend ) ) == pdFALSE )
    1408:	6923      	ldr	r3, [r4, #16]
    140a:	2b00      	cmp	r3, #0
    140c:	d005      	beq.n	141a <prvUnlockQueue+0x8e>
				if( xTaskRemoveFromEventList( &( pxQueue->xTasksWaitingToSend ) ) != pdFALSE )
    140e:	0028      	movs	r0, r5
    1410:	47b8      	blx	r7
    1412:	2800      	cmp	r0, #0
    1414:	d0f2      	beq.n	13fc <prvUnlockQueue+0x70>
					vTaskMissedYield();
    1416:	47b0      	blx	r6
    1418:	e7f0      	b.n	13fc <prvUnlockQueue+0x70>
		pxQueue->xRxLock = queueUNLOCKED;
    141a:	2301      	movs	r3, #1
    141c:	425b      	negs	r3, r3
    141e:	6463      	str	r3, [r4, #68]	; 0x44
	taskEXIT_CRITICAL();
    1420:	4b05      	ldr	r3, [pc, #20]	; (1438 <prvUnlockQueue+0xac>)
    1422:	4798      	blx	r3
}
    1424:	bdf8      	pop	{r3, r4, r5, r6, r7, pc}
    1426:	46c0      	nop			; (mov r8, r8)
    1428:	00001079 	.word	0x00001079
    142c:	00001315 	.word	0x00001315
    1430:	00002075 	.word	0x00002075
    1434:	0000218d 	.word	0x0000218d
    1438:	00001091 	.word	0x00001091

0000143c <xQueueGenericReset>:
{
    143c:	b570      	push	{r4, r5, r6, lr}
    143e:	0004      	movs	r4, r0
    1440:	000d      	movs	r5, r1
	configASSERT( pxQueue );
    1442:	2800      	cmp	r0, #0
    1444:	d020      	beq.n	1488 <xQueueGenericReset+0x4c>
	taskENTER_CRITICAL();
    1446:	4b17      	ldr	r3, [pc, #92]	; (14a4 <xQueueGenericReset+0x68>)
    1448:	4798      	blx	r3
		pxQueue->pcTail = pxQueue->pcHead + ( pxQueue->uxLength * pxQueue->uxItemSize );
    144a:	6822      	ldr	r2, [r4, #0]
    144c:	6c21      	ldr	r1, [r4, #64]	; 0x40
    144e:	6be3      	ldr	r3, [r4, #60]	; 0x3c
    1450:	434b      	muls	r3, r1
    1452:	18d0      	adds	r0, r2, r3
    1454:	6060      	str	r0, [r4, #4]
		pxQueue->uxMessagesWaiting = ( UBaseType_t ) 0U;
    1456:	2000      	movs	r0, #0
    1458:	63a0      	str	r0, [r4, #56]	; 0x38
		pxQueue->pcWriteTo = pxQueue->pcHead;
    145a:	60a2      	str	r2, [r4, #8]
		pxQueue->u.pcReadFrom = pxQueue->pcHead + ( ( pxQueue->uxLength - ( UBaseType_t ) 1U ) * pxQueue->uxItemSize );
    145c:	1a5b      	subs	r3, r3, r1
    145e:	18d3      	adds	r3, r2, r3
    1460:	60e3      	str	r3, [r4, #12]
		pxQueue->xRxLock = queueUNLOCKED;
    1462:	2301      	movs	r3, #1
    1464:	425b      	negs	r3, r3
    1466:	6463      	str	r3, [r4, #68]	; 0x44
		pxQueue->xTxLock = queueUNLOCKED;
    1468:	64a3      	str	r3, [r4, #72]	; 0x48
		if( xNewQueue == pdFALSE )
    146a:	2d00      	cmp	r5, #0
    146c:	d111      	bne.n	1492 <xQueueGenericReset+0x56>
			if( listLIST_IS_EMPTY( &( pxQueue->xTasksWaitingToSend ) ) == pdFALSE )
    146e:	6923      	ldr	r3, [r4, #16]
    1470:	2b00      	cmp	r3, #0
    1472:	d005      	beq.n	1480 <xQueueGenericReset+0x44>
				if( xTaskRemoveFromEventList( &( pxQueue->xTasksWaitingToSend ) ) == pdTRUE )
    1474:	0020      	movs	r0, r4
    1476:	3010      	adds	r0, #16
    1478:	4b0b      	ldr	r3, [pc, #44]	; (14a8 <xQueueGenericReset+0x6c>)
    147a:	4798      	blx	r3
    147c:	2801      	cmp	r0, #1
    147e:	d005      	beq.n	148c <xQueueGenericReset+0x50>
	taskEXIT_CRITICAL();
    1480:	4b0a      	ldr	r3, [pc, #40]	; (14ac <xQueueGenericReset+0x70>)
    1482:	4798      	blx	r3
}
    1484:	2001      	movs	r0, #1
    1486:	bd70      	pop	{r4, r5, r6, pc}
	configASSERT( pxQueue );
    1488:	b672      	cpsid	i
    148a:	e7fe      	b.n	148a <xQueueGenericReset+0x4e>
					queueYIELD_IF_USING_PREEMPTION();
    148c:	4b08      	ldr	r3, [pc, #32]	; (14b0 <xQueueGenericReset+0x74>)
    148e:	4798      	blx	r3
    1490:	e7f6      	b.n	1480 <xQueueGenericReset+0x44>
			vListInitialise( &( pxQueue->xTasksWaitingToSend ) );
    1492:	0020      	movs	r0, r4
    1494:	3010      	adds	r0, #16
    1496:	4d07      	ldr	r5, [pc, #28]	; (14b4 <xQueueGenericReset+0x78>)
    1498:	47a8      	blx	r5
			vListInitialise( &( pxQueue->xTasksWaitingToReceive ) );
    149a:	0020      	movs	r0, r4
    149c:	3024      	adds	r0, #36	; 0x24
    149e:	47a8      	blx	r5
    14a0:	e7ee      	b.n	1480 <xQueueGenericReset+0x44>
    14a2:	46c0      	nop			; (mov r8, r8)
    14a4:	00001079 	.word	0x00001079
    14a8:	00002075 	.word	0x00002075
    14ac:	00001091 	.word	0x00001091
    14b0:	00001061 	.word	0x00001061
    14b4:	0000120f 	.word	0x0000120f

000014b8 <xQueueGenericCreate>:
{
    14b8:	b570      	push	{r4, r5, r6, lr}
    14ba:	0005      	movs	r5, r0
    14bc:	000e      	movs	r6, r1
	if( uxQueueLength > ( UBaseType_t ) 0 )
    14be:	2800      	cmp	r0, #0
    14c0:	d019      	beq.n	14f6 <xQueueGenericCreate+0x3e>
		pxNewQueue = ( Queue_t * ) pvPortMalloc( sizeof( Queue_t ) );
    14c2:	2050      	movs	r0, #80	; 0x50
    14c4:	4b0d      	ldr	r3, [pc, #52]	; (14fc <xQueueGenericCreate+0x44>)
    14c6:	4798      	blx	r3
    14c8:	1e04      	subs	r4, r0, #0
		if( pxNewQueue != NULL )
    14ca:	d014      	beq.n	14f6 <xQueueGenericCreate+0x3e>
			xQueueSizeInBytes = ( size_t ) ( uxQueueLength * uxItemSize ) + ( size_t ) 1; /*lint !e961 MISRA exception as the casts are only redundant for some ports. */
    14cc:	0030      	movs	r0, r6
    14ce:	4368      	muls	r0, r5
    14d0:	3001      	adds	r0, #1
			pxNewQueue->pcHead = ( int8_t * ) pvPortMalloc( xQueueSizeInBytes );
    14d2:	4b0a      	ldr	r3, [pc, #40]	; (14fc <xQueueGenericCreate+0x44>)
    14d4:	4798      	blx	r3
    14d6:	6020      	str	r0, [r4, #0]
			if( pxNewQueue->pcHead != NULL )
    14d8:	2800      	cmp	r0, #0
    14da:	d009      	beq.n	14f0 <xQueueGenericCreate+0x38>
				pxNewQueue->uxLength = uxQueueLength;
    14dc:	63e5      	str	r5, [r4, #60]	; 0x3c
				pxNewQueue->uxItemSize = uxItemSize;
    14de:	6426      	str	r6, [r4, #64]	; 0x40
				( void ) xQueueGenericReset( pxNewQueue, pdTRUE );
    14e0:	2101      	movs	r1, #1
    14e2:	0020      	movs	r0, r4
    14e4:	4b06      	ldr	r3, [pc, #24]	; (1500 <xQueueGenericCreate+0x48>)
    14e6:	4798      	blx	r3
					pxNewQueue->pxQueueSetContainer = NULL;
    14e8:	2300      	movs	r3, #0
    14ea:	64e3      	str	r3, [r4, #76]	; 0x4c
}
    14ec:	0020      	movs	r0, r4
    14ee:	bd70      	pop	{r4, r5, r6, pc}
				vPortFree( pxNewQueue );
    14f0:	0020      	movs	r0, r4
    14f2:	4b04      	ldr	r3, [pc, #16]	; (1504 <xQueueGenericCreate+0x4c>)
    14f4:	4798      	blx	r3
	configASSERT( xReturn );
    14f6:	b672      	cpsid	i
    14f8:	e7fe      	b.n	14f8 <xQueueGenericCreate+0x40>
    14fa:	46c0      	nop			; (mov r8, r8)
    14fc:	00001199 	.word	0x00001199
    1500:	0000143d 	.word	0x0000143d
    1504:	00001205 	.word	0x00001205

00001508 <xQueueGenericSend>:
{
    1508:	b5f0      	push	{r4, r5, r6, r7, lr}
    150a:	46ce      	mov	lr, r9
    150c:	4647      	mov	r7, r8
    150e:	b580      	push	{r7, lr}
    1510:	b085      	sub	sp, #20
    1512:	0004      	movs	r4, r0
    1514:	000f      	movs	r7, r1
    1516:	9201      	str	r2, [sp, #4]
    1518:	001d      	movs	r5, r3
	configASSERT( pxQueue );
    151a:	2800      	cmp	r0, #0
    151c:	d00c      	beq.n	1538 <xQueueGenericSend+0x30>
	configASSERT( !( ( pvItemToQueue == NULL ) && ( pxQueue->uxItemSize != ( UBaseType_t ) 0U ) ) );
    151e:	2900      	cmp	r1, #0
    1520:	d00c      	beq.n	153c <xQueueGenericSend+0x34>
	configASSERT( !( ( xCopyPosition == queueOVERWRITE ) && ( pxQueue->uxLength != 1 ) ) );
    1522:	2d02      	cmp	r5, #2
    1524:	d00f      	beq.n	1546 <xQueueGenericSend+0x3e>
		configASSERT( !( ( xTaskGetSchedulerState() == taskSCHEDULER_SUSPENDED ) && ( xTicksToWait != 0 ) ) );
    1526:	4b48      	ldr	r3, [pc, #288]	; (1648 <xQueueGenericSend+0x140>)
    1528:	4798      	blx	r3
    152a:	2800      	cmp	r0, #0
    152c:	d110      	bne.n	1550 <xQueueGenericSend+0x48>
    152e:	9b01      	ldr	r3, [sp, #4]
    1530:	2b00      	cmp	r3, #0
    1532:	d011      	beq.n	1558 <xQueueGenericSend+0x50>
    1534:	b672      	cpsid	i
    1536:	e7fe      	b.n	1536 <xQueueGenericSend+0x2e>
	configASSERT( pxQueue );
    1538:	b672      	cpsid	i
    153a:	e7fe      	b.n	153a <xQueueGenericSend+0x32>
	configASSERT( !( ( pvItemToQueue == NULL ) && ( pxQueue->uxItemSize != ( UBaseType_t ) 0U ) ) );
    153c:	6c03      	ldr	r3, [r0, #64]	; 0x40
    153e:	2b00      	cmp	r3, #0
    1540:	d0ef      	beq.n	1522 <xQueueGenericSend+0x1a>
    1542:	b672      	cpsid	i
    1544:	e7fe      	b.n	1544 <xQueueGenericSend+0x3c>
	configASSERT( !( ( xCopyPosition == queueOVERWRITE ) && ( pxQueue->uxLength != 1 ) ) );
    1546:	6be3      	ldr	r3, [r4, #60]	; 0x3c
    1548:	2b01      	cmp	r3, #1
    154a:	d0ec      	beq.n	1526 <xQueueGenericSend+0x1e>
    154c:	b672      	cpsid	i
    154e:	e7fe      	b.n	154e <xQueueGenericSend+0x46>
    1550:	2600      	movs	r6, #0
		taskENTER_CRITICAL();
    1552:	4b3e      	ldr	r3, [pc, #248]	; (164c <xQueueGenericSend+0x144>)
    1554:	4698      	mov	r8, r3
    1556:	e047      	b.n	15e8 <xQueueGenericSend+0xe0>
    1558:	2600      	movs	r6, #0
    155a:	e7fa      	b.n	1552 <xQueueGenericSend+0x4a>
				prvCopyDataToQueue( pxQueue, pvItemToQueue, xCopyPosition );
    155c:	002a      	movs	r2, r5
    155e:	0039      	movs	r1, r7
    1560:	0020      	movs	r0, r4
    1562:	4b3b      	ldr	r3, [pc, #236]	; (1650 <xQueueGenericSend+0x148>)
    1564:	4798      	blx	r3
					if( pxQueue->pxQueueSetContainer != NULL )
    1566:	6ce3      	ldr	r3, [r4, #76]	; 0x4c
    1568:	2b00      	cmp	r3, #0
    156a:	d00f      	beq.n	158c <xQueueGenericSend+0x84>
						if( prvNotifyQueueSetContainer( pxQueue, xCopyPosition ) == pdTRUE )
    156c:	0029      	movs	r1, r5
    156e:	0020      	movs	r0, r4
    1570:	4b38      	ldr	r3, [pc, #224]	; (1654 <xQueueGenericSend+0x14c>)
    1572:	4798      	blx	r3
    1574:	2801      	cmp	r0, #1
    1576:	d101      	bne.n	157c <xQueueGenericSend+0x74>
							queueYIELD_IF_USING_PREEMPTION();
    1578:	4b37      	ldr	r3, [pc, #220]	; (1658 <xQueueGenericSend+0x150>)
    157a:	4798      	blx	r3
				taskEXIT_CRITICAL();
    157c:	4b37      	ldr	r3, [pc, #220]	; (165c <xQueueGenericSend+0x154>)
    157e:	4798      	blx	r3
				return pdPASS;
    1580:	2001      	movs	r0, #1
}
    1582:	b005      	add	sp, #20
    1584:	bc0c      	pop	{r2, r3}
    1586:	4690      	mov	r8, r2
    1588:	4699      	mov	r9, r3
    158a:	bdf0      	pop	{r4, r5, r6, r7, pc}
						if( listLIST_IS_EMPTY( &( pxQueue->xTasksWaitingToReceive ) ) == pdFALSE )
    158c:	6a63      	ldr	r3, [r4, #36]	; 0x24
    158e:	2b00      	cmp	r3, #0
    1590:	d0f4      	beq.n	157c <xQueueGenericSend+0x74>
							if( xTaskRemoveFromEventList( &( pxQueue->xTasksWaitingToReceive ) ) == pdTRUE )
    1592:	0020      	movs	r0, r4
    1594:	3024      	adds	r0, #36	; 0x24
    1596:	4b32      	ldr	r3, [pc, #200]	; (1660 <xQueueGenericSend+0x158>)
    1598:	4798      	blx	r3
    159a:	2801      	cmp	r0, #1
    159c:	d1ee      	bne.n	157c <xQueueGenericSend+0x74>
								queueYIELD_IF_USING_PREEMPTION();
    159e:	4b2e      	ldr	r3, [pc, #184]	; (1658 <xQueueGenericSend+0x150>)
    15a0:	4798      	blx	r3
    15a2:	e7eb      	b.n	157c <xQueueGenericSend+0x74>
					taskEXIT_CRITICAL();
    15a4:	4b2d      	ldr	r3, [pc, #180]	; (165c <xQueueGenericSend+0x154>)
    15a6:	4798      	blx	r3
					return errQUEUE_FULL;
    15a8:	2000      	movs	r0, #0
    15aa:	e7ea      	b.n	1582 <xQueueGenericSend+0x7a>
		prvLockQueue( pxQueue );
    15ac:	4b2b      	ldr	r3, [pc, #172]	; (165c <xQueueGenericSend+0x154>)
    15ae:	4798      	blx	r3
		if( xTaskCheckForTimeOut( &xTimeOut, &xTicksToWait ) == pdFALSE )
    15b0:	a901      	add	r1, sp, #4
    15b2:	a802      	add	r0, sp, #8
    15b4:	4b2b      	ldr	r3, [pc, #172]	; (1664 <xQueueGenericSend+0x15c>)
    15b6:	4798      	blx	r3
    15b8:	2800      	cmp	r0, #0
    15ba:	d13e      	bne.n	163a <xQueueGenericSend+0x132>
	taskENTER_CRITICAL();
    15bc:	4b23      	ldr	r3, [pc, #140]	; (164c <xQueueGenericSend+0x144>)
    15be:	4798      	blx	r3
		if( pxQueue->uxMessagesWaiting == pxQueue->uxLength )
    15c0:	6ba3      	ldr	r3, [r4, #56]	; 0x38
    15c2:	4699      	mov	r9, r3
    15c4:	6be6      	ldr	r6, [r4, #60]	; 0x3c
	taskEXIT_CRITICAL();
    15c6:	4b25      	ldr	r3, [pc, #148]	; (165c <xQueueGenericSend+0x154>)
    15c8:	4798      	blx	r3
			if( prvIsQueueFull( pxQueue ) != pdFALSE )
    15ca:	45b1      	cmp	r9, r6
    15cc:	d12f      	bne.n	162e <xQueueGenericSend+0x126>
				vTaskPlaceOnEventList( &( pxQueue->xTasksWaitingToSend ), xTicksToWait );
    15ce:	0020      	movs	r0, r4
    15d0:	3010      	adds	r0, #16
    15d2:	9901      	ldr	r1, [sp, #4]
    15d4:	4b24      	ldr	r3, [pc, #144]	; (1668 <xQueueGenericSend+0x160>)
    15d6:	4798      	blx	r3
				prvUnlockQueue( pxQueue );
    15d8:	0020      	movs	r0, r4
    15da:	4b24      	ldr	r3, [pc, #144]	; (166c <xQueueGenericSend+0x164>)
    15dc:	4798      	blx	r3
				if( xTaskResumeAll() == pdFALSE )
    15de:	4b24      	ldr	r3, [pc, #144]	; (1670 <xQueueGenericSend+0x168>)
    15e0:	4798      	blx	r3
    15e2:	2800      	cmp	r0, #0
    15e4:	d020      	beq.n	1628 <xQueueGenericSend+0x120>
    15e6:	2601      	movs	r6, #1
		taskENTER_CRITICAL();
    15e8:	47c0      	blx	r8
			if( ( pxQueue->uxMessagesWaiting < pxQueue->uxLength ) || ( xCopyPosition == queueOVERWRITE ) )
    15ea:	6ba3      	ldr	r3, [r4, #56]	; 0x38
    15ec:	6be2      	ldr	r2, [r4, #60]	; 0x3c
    15ee:	4293      	cmp	r3, r2
    15f0:	d3b4      	bcc.n	155c <xQueueGenericSend+0x54>
    15f2:	2d02      	cmp	r5, #2
    15f4:	d0b2      	beq.n	155c <xQueueGenericSend+0x54>
				if( xTicksToWait == ( TickType_t ) 0 )
    15f6:	9b01      	ldr	r3, [sp, #4]
    15f8:	2b00      	cmp	r3, #0
    15fa:	d0d3      	beq.n	15a4 <xQueueGenericSend+0x9c>
				else if( xEntryTimeSet == pdFALSE )
    15fc:	2e00      	cmp	r6, #0
    15fe:	d102      	bne.n	1606 <xQueueGenericSend+0xfe>
					vTaskSetTimeOutState( &xTimeOut );
    1600:	a802      	add	r0, sp, #8
    1602:	4b1c      	ldr	r3, [pc, #112]	; (1674 <xQueueGenericSend+0x16c>)
    1604:	4798      	blx	r3
		taskEXIT_CRITICAL();
    1606:	4b15      	ldr	r3, [pc, #84]	; (165c <xQueueGenericSend+0x154>)
    1608:	4798      	blx	r3
		vTaskSuspendAll();
    160a:	4b1b      	ldr	r3, [pc, #108]	; (1678 <xQueueGenericSend+0x170>)
    160c:	4798      	blx	r3
		prvLockQueue( pxQueue );
    160e:	4b0f      	ldr	r3, [pc, #60]	; (164c <xQueueGenericSend+0x144>)
    1610:	4798      	blx	r3
    1612:	6c63      	ldr	r3, [r4, #68]	; 0x44
    1614:	3301      	adds	r3, #1
    1616:	d101      	bne.n	161c <xQueueGenericSend+0x114>
    1618:	2300      	movs	r3, #0
    161a:	6463      	str	r3, [r4, #68]	; 0x44
    161c:	6ca3      	ldr	r3, [r4, #72]	; 0x48
    161e:	3301      	adds	r3, #1
    1620:	d1c4      	bne.n	15ac <xQueueGenericSend+0xa4>
    1622:	2300      	movs	r3, #0
    1624:	64a3      	str	r3, [r4, #72]	; 0x48
    1626:	e7c1      	b.n	15ac <xQueueGenericSend+0xa4>
					portYIELD_WITHIN_API();
    1628:	4b0b      	ldr	r3, [pc, #44]	; (1658 <xQueueGenericSend+0x150>)
    162a:	4798      	blx	r3
    162c:	e7db      	b.n	15e6 <xQueueGenericSend+0xde>
				prvUnlockQueue( pxQueue );
    162e:	0020      	movs	r0, r4
    1630:	4b0e      	ldr	r3, [pc, #56]	; (166c <xQueueGenericSend+0x164>)
    1632:	4798      	blx	r3
				( void ) xTaskResumeAll();
    1634:	4b0e      	ldr	r3, [pc, #56]	; (1670 <xQueueGenericSend+0x168>)
    1636:	4798      	blx	r3
    1638:	e7d5      	b.n	15e6 <xQueueGenericSend+0xde>
			prvUnlockQueue( pxQueue );
    163a:	0020      	movs	r0, r4
    163c:	4b0b      	ldr	r3, [pc, #44]	; (166c <xQueueGenericSend+0x164>)
    163e:	4798      	blx	r3
			( void ) xTaskResumeAll();
    1640:	4b0b      	ldr	r3, [pc, #44]	; (1670 <xQueueGenericSend+0x168>)
    1642:	4798      	blx	r3
			return errQUEUE_FULL;
    1644:	2000      	movs	r0, #0
    1646:	e79c      	b.n	1582 <xQueueGenericSend+0x7a>
    1648:	000021a5 	.word	0x000021a5
    164c:	00001079 	.word	0x00001079
    1650:	00001299 	.word	0x00001299
    1654:	00001315 	.word	0x00001315
    1658:	00001061 	.word	0x00001061
    165c:	00001091 	.word	0x00001091
    1660:	00002075 	.word	0x00002075
    1664:	0000211d 	.word	0x0000211d
    1668:	00001fdd 	.word	0x00001fdd
    166c:	0000138d 	.word	0x0000138d
    1670:	00001d41 	.word	0x00001d41
    1674:	000020fd 	.word	0x000020fd
    1678:	00001bed 	.word	0x00001bed

0000167c <xQueueGenericSendFromISR>:
{
    167c:	b5f0      	push	{r4, r5, r6, r7, lr}
    167e:	b083      	sub	sp, #12
    1680:	0004      	movs	r4, r0
    1682:	000f      	movs	r7, r1
    1684:	0016      	movs	r6, r2
    1686:	001d      	movs	r5, r3
	configASSERT( pxQueue );
    1688:	2800      	cmp	r0, #0
    168a:	d011      	beq.n	16b0 <xQueueGenericSendFromISR+0x34>
	configASSERT( !( ( pvItemToQueue == NULL ) && ( pxQueue->uxItemSize != ( UBaseType_t ) 0U ) ) );
    168c:	2900      	cmp	r1, #0
    168e:	d011      	beq.n	16b4 <xQueueGenericSendFromISR+0x38>
	configASSERT( !( ( xCopyPosition == queueOVERWRITE ) && ( pxQueue->uxLength != 1 ) ) );
    1690:	2d02      	cmp	r5, #2
    1692:	d014      	beq.n	16be <xQueueGenericSendFromISR+0x42>
	uxSavedInterruptStatus = portSET_INTERRUPT_MASK_FROM_ISR();
    1694:	4b26      	ldr	r3, [pc, #152]	; (1730 <xQueueGenericSendFromISR+0xb4>)
    1696:	4798      	blx	r3
    1698:	9001      	str	r0, [sp, #4]
		if( ( pxQueue->uxMessagesWaiting < pxQueue->uxLength ) || ( xCopyPosition == queueOVERWRITE ) )
    169a:	6ba3      	ldr	r3, [r4, #56]	; 0x38
    169c:	6be2      	ldr	r2, [r4, #60]	; 0x3c
    169e:	429a      	cmp	r2, r3
    16a0:	d82e      	bhi.n	1700 <xQueueGenericSendFromISR+0x84>
			xReturn = errQUEUE_FULL;
    16a2:	2500      	movs	r5, #0
	portCLEAR_INTERRUPT_MASK_FROM_ISR( uxSavedInterruptStatus );
    16a4:	9801      	ldr	r0, [sp, #4]
    16a6:	4b23      	ldr	r3, [pc, #140]	; (1734 <xQueueGenericSendFromISR+0xb8>)
    16a8:	4798      	blx	r3
}
    16aa:	0028      	movs	r0, r5
    16ac:	b003      	add	sp, #12
    16ae:	bdf0      	pop	{r4, r5, r6, r7, pc}
	configASSERT( pxQueue );
    16b0:	b672      	cpsid	i
    16b2:	e7fe      	b.n	16b2 <xQueueGenericSendFromISR+0x36>
	configASSERT( !( ( pvItemToQueue == NULL ) && ( pxQueue->uxItemSize != ( UBaseType_t ) 0U ) ) );
    16b4:	6c03      	ldr	r3, [r0, #64]	; 0x40
    16b6:	2b00      	cmp	r3, #0
    16b8:	d0ea      	beq.n	1690 <xQueueGenericSendFromISR+0x14>
    16ba:	b672      	cpsid	i
    16bc:	e7fe      	b.n	16bc <xQueueGenericSendFromISR+0x40>
	configASSERT( !( ( xCopyPosition == queueOVERWRITE ) && ( pxQueue->uxLength != 1 ) ) );
    16be:	6be3      	ldr	r3, [r4, #60]	; 0x3c
    16c0:	2b01      	cmp	r3, #1
    16c2:	d019      	beq.n	16f8 <xQueueGenericSendFromISR+0x7c>
    16c4:	b672      	cpsid	i
    16c6:	e7fe      	b.n	16c6 <xQueueGenericSendFromISR+0x4a>
			xReturn = pdPASS;
    16c8:	2501      	movs	r5, #1
						if( listLIST_IS_EMPTY( &( pxQueue->xTasksWaitingToReceive ) ) == pdFALSE )
    16ca:	6a63      	ldr	r3, [r4, #36]	; 0x24
    16cc:	2b00      	cmp	r3, #0
    16ce:	d0e9      	beq.n	16a4 <xQueueGenericSendFromISR+0x28>
							if( xTaskRemoveFromEventList( &( pxQueue->xTasksWaitingToReceive ) ) != pdFALSE )
    16d0:	0020      	movs	r0, r4
    16d2:	3024      	adds	r0, #36	; 0x24
    16d4:	4b18      	ldr	r3, [pc, #96]	; (1738 <xQueueGenericSendFromISR+0xbc>)
    16d6:	4798      	blx	r3
    16d8:	2800      	cmp	r0, #0
    16da:	d0e3      	beq.n	16a4 <xQueueGenericSendFromISR+0x28>
								if( pxHigherPriorityTaskWoken != NULL )
    16dc:	2e00      	cmp	r6, #0
    16de:	d009      	beq.n	16f4 <xQueueGenericSendFromISR+0x78>
									*pxHigherPriorityTaskWoken = pdTRUE;
    16e0:	2301      	movs	r3, #1
    16e2:	6033      	str	r3, [r6, #0]
    16e4:	e7de      	b.n	16a4 <xQueueGenericSendFromISR+0x28>
				++( pxQueue->xTxLock );
    16e6:	6ca3      	ldr	r3, [r4, #72]	; 0x48
    16e8:	3301      	adds	r3, #1
    16ea:	64a3      	str	r3, [r4, #72]	; 0x48
			xReturn = pdPASS;
    16ec:	2501      	movs	r5, #1
    16ee:	e7d9      	b.n	16a4 <xQueueGenericSendFromISR+0x28>
    16f0:	2501      	movs	r5, #1
    16f2:	e7d7      	b.n	16a4 <xQueueGenericSendFromISR+0x28>
    16f4:	2501      	movs	r5, #1
    16f6:	e7d5      	b.n	16a4 <xQueueGenericSendFromISR+0x28>
	uxSavedInterruptStatus = portSET_INTERRUPT_MASK_FROM_ISR();
    16f8:	4b0d      	ldr	r3, [pc, #52]	; (1730 <xQueueGenericSendFromISR+0xb4>)
    16fa:	4798      	blx	r3
    16fc:	9001      	str	r0, [sp, #4]
		if( ( pxQueue->uxMessagesWaiting < pxQueue->uxLength ) || ( xCopyPosition == queueOVERWRITE ) )
    16fe:	6ba3      	ldr	r3, [r4, #56]	; 0x38
			prvCopyDataToQueue( pxQueue, pvItemToQueue, xCopyPosition );
    1700:	002a      	movs	r2, r5
    1702:	0039      	movs	r1, r7
    1704:	0020      	movs	r0, r4
    1706:	4b0d      	ldr	r3, [pc, #52]	; (173c <xQueueGenericSendFromISR+0xc0>)
    1708:	4798      	blx	r3
			if( pxQueue->xTxLock == queueUNLOCKED )
    170a:	6ca3      	ldr	r3, [r4, #72]	; 0x48
    170c:	3301      	adds	r3, #1
    170e:	d1ea      	bne.n	16e6 <xQueueGenericSendFromISR+0x6a>
					if( pxQueue->pxQueueSetContainer != NULL )
    1710:	6ce3      	ldr	r3, [r4, #76]	; 0x4c
    1712:	2b00      	cmp	r3, #0
    1714:	d0d8      	beq.n	16c8 <xQueueGenericSendFromISR+0x4c>
						if( prvNotifyQueueSetContainer( pxQueue, xCopyPosition ) == pdTRUE )
    1716:	0029      	movs	r1, r5
    1718:	0020      	movs	r0, r4
    171a:	4b09      	ldr	r3, [pc, #36]	; (1740 <xQueueGenericSendFromISR+0xc4>)
    171c:	4798      	blx	r3
			xReturn = pdPASS;
    171e:	2501      	movs	r5, #1
						if( prvNotifyQueueSetContainer( pxQueue, xCopyPosition ) == pdTRUE )
    1720:	2801      	cmp	r0, #1
    1722:	d1bf      	bne.n	16a4 <xQueueGenericSendFromISR+0x28>
							if( pxHigherPriorityTaskWoken != NULL )
    1724:	2e00      	cmp	r6, #0
    1726:	d0e3      	beq.n	16f0 <xQueueGenericSendFromISR+0x74>
								*pxHigherPriorityTaskWoken = pdTRUE;
    1728:	2301      	movs	r3, #1
    172a:	6033      	str	r3, [r6, #0]
    172c:	e7ba      	b.n	16a4 <xQueueGenericSendFromISR+0x28>
    172e:	46c0      	nop			; (mov r8, r8)
    1730:	000010b1 	.word	0x000010b1
    1734:	000010bb 	.word	0x000010bb
    1738:	00002075 	.word	0x00002075
    173c:	00001299 	.word	0x00001299
    1740:	00001315 	.word	0x00001315

00001744 <xQueueGenericReceive>:
{
    1744:	b5f0      	push	{r4, r5, r6, r7, lr}
    1746:	46c6      	mov	lr, r8
    1748:	b500      	push	{lr}
    174a:	b084      	sub	sp, #16
    174c:	0004      	movs	r4, r0
    174e:	000e      	movs	r6, r1
    1750:	9201      	str	r2, [sp, #4]
    1752:	001f      	movs	r7, r3
	configASSERT( pxQueue );
    1754:	2800      	cmp	r0, #0
    1756:	d00a      	beq.n	176e <xQueueGenericReceive+0x2a>
	configASSERT( !( ( pvBuffer == NULL ) && ( pxQueue->uxItemSize != ( UBaseType_t ) 0U ) ) );
    1758:	2900      	cmp	r1, #0
    175a:	d00a      	beq.n	1772 <xQueueGenericReceive+0x2e>
		configASSERT( !( ( xTaskGetSchedulerState() == taskSCHEDULER_SUSPENDED ) && ( xTicksToWait != 0 ) ) );
    175c:	4b4d      	ldr	r3, [pc, #308]	; (1894 <xQueueGenericReceive+0x150>)
    175e:	4798      	blx	r3
    1760:	2800      	cmp	r0, #0
    1762:	d10b      	bne.n	177c <xQueueGenericReceive+0x38>
    1764:	9b01      	ldr	r3, [sp, #4]
    1766:	2b00      	cmp	r3, #0
    1768:	d00c      	beq.n	1784 <xQueueGenericReceive+0x40>
    176a:	b672      	cpsid	i
    176c:	e7fe      	b.n	176c <xQueueGenericReceive+0x28>
	configASSERT( pxQueue );
    176e:	b672      	cpsid	i
    1770:	e7fe      	b.n	1770 <xQueueGenericReceive+0x2c>
	configASSERT( !( ( pvBuffer == NULL ) && ( pxQueue->uxItemSize != ( UBaseType_t ) 0U ) ) );
    1772:	6c03      	ldr	r3, [r0, #64]	; 0x40
    1774:	2b00      	cmp	r3, #0
    1776:	d0f1      	beq.n	175c <xQueueGenericReceive+0x18>
    1778:	b672      	cpsid	i
    177a:	e7fe      	b.n	177a <xQueueGenericReceive+0x36>
    177c:	2500      	movs	r5, #0
		taskENTER_CRITICAL();
    177e:	4b46      	ldr	r3, [pc, #280]	; (1898 <xQueueGenericReceive+0x154>)
    1780:	4698      	mov	r8, r3
    1782:	e042      	b.n	180a <xQueueGenericReceive+0xc6>
    1784:	2500      	movs	r5, #0
    1786:	e7fa      	b.n	177e <xQueueGenericReceive+0x3a>
				pcOriginalReadPosition = pxQueue->u.pcReadFrom;
    1788:	68e5      	ldr	r5, [r4, #12]
				prvCopyDataFromQueue( pxQueue, pvBuffer );
    178a:	0031      	movs	r1, r6
    178c:	0020      	movs	r0, r4
    178e:	4b43      	ldr	r3, [pc, #268]	; (189c <xQueueGenericReceive+0x158>)
    1790:	4798      	blx	r3
				if( xJustPeeking == pdFALSE )
    1792:	2f00      	cmp	r7, #0
    1794:	d11a      	bne.n	17cc <xQueueGenericReceive+0x88>
					--( pxQueue->uxMessagesWaiting );
    1796:	6ba3      	ldr	r3, [r4, #56]	; 0x38
    1798:	3b01      	subs	r3, #1
    179a:	63a3      	str	r3, [r4, #56]	; 0x38
						if( pxQueue->uxQueueType == queueQUEUE_IS_MUTEX )
    179c:	6823      	ldr	r3, [r4, #0]
    179e:	2b00      	cmp	r3, #0
    17a0:	d102      	bne.n	17a8 <xQueueGenericReceive+0x64>
							pxQueue->pxMutexHolder = ( int8_t * ) xTaskGetCurrentTaskHandle(); /*lint !e961 Cast is not redundant as TaskHandle_t is a typedef. */
    17a2:	4b3f      	ldr	r3, [pc, #252]	; (18a0 <xQueueGenericReceive+0x15c>)
    17a4:	4798      	blx	r3
    17a6:	6060      	str	r0, [r4, #4]
					if( listLIST_IS_EMPTY( &( pxQueue->xTasksWaitingToSend ) ) == pdFALSE )
    17a8:	6923      	ldr	r3, [r4, #16]
    17aa:	2b00      	cmp	r3, #0
    17ac:	d007      	beq.n	17be <xQueueGenericReceive+0x7a>
						if( xTaskRemoveFromEventList( &( pxQueue->xTasksWaitingToSend ) ) == pdTRUE )
    17ae:	0020      	movs	r0, r4
    17b0:	3010      	adds	r0, #16
    17b2:	4b3c      	ldr	r3, [pc, #240]	; (18a4 <xQueueGenericReceive+0x160>)
    17b4:	4798      	blx	r3
    17b6:	2801      	cmp	r0, #1
    17b8:	d101      	bne.n	17be <xQueueGenericReceive+0x7a>
							queueYIELD_IF_USING_PREEMPTION();
    17ba:	4b3b      	ldr	r3, [pc, #236]	; (18a8 <xQueueGenericReceive+0x164>)
    17bc:	4798      	blx	r3
				taskEXIT_CRITICAL();
    17be:	4b3b      	ldr	r3, [pc, #236]	; (18ac <xQueueGenericReceive+0x168>)
    17c0:	4798      	blx	r3
				return pdPASS;
    17c2:	2001      	movs	r0, #1
}
    17c4:	b004      	add	sp, #16
    17c6:	bc04      	pop	{r2}
    17c8:	4690      	mov	r8, r2
    17ca:	bdf0      	pop	{r4, r5, r6, r7, pc}
					pxQueue->u.pcReadFrom = pcOriginalReadPosition;
    17cc:	60e5      	str	r5, [r4, #12]
					if( listLIST_IS_EMPTY( &( pxQueue->xTasksWaitingToReceive ) ) == pdFALSE )
    17ce:	6a63      	ldr	r3, [r4, #36]	; 0x24
    17d0:	2b00      	cmp	r3, #0
    17d2:	d0f4      	beq.n	17be <xQueueGenericReceive+0x7a>
						if( xTaskRemoveFromEventList( &( pxQueue->xTasksWaitingToReceive ) ) != pdFALSE )
    17d4:	0020      	movs	r0, r4
    17d6:	3024      	adds	r0, #36	; 0x24
    17d8:	4b32      	ldr	r3, [pc, #200]	; (18a4 <xQueueGenericReceive+0x160>)
    17da:	4798      	blx	r3
    17dc:	2800      	cmp	r0, #0
    17de:	d0ee      	beq.n	17be <xQueueGenericReceive+0x7a>
							queueYIELD_IF_USING_PREEMPTION();
    17e0:	4b31      	ldr	r3, [pc, #196]	; (18a8 <xQueueGenericReceive+0x164>)
    17e2:	4798      	blx	r3
    17e4:	e7eb      	b.n	17be <xQueueGenericReceive+0x7a>
					taskEXIT_CRITICAL();
    17e6:	4b31      	ldr	r3, [pc, #196]	; (18ac <xQueueGenericReceive+0x168>)
    17e8:	4798      	blx	r3
					return errQUEUE_EMPTY;
    17ea:	2000      	movs	r0, #0
    17ec:	e7ea      	b.n	17c4 <xQueueGenericReceive+0x80>
						taskENTER_CRITICAL();
    17ee:	4b2a      	ldr	r3, [pc, #168]	; (1898 <xQueueGenericReceive+0x154>)
    17f0:	4798      	blx	r3
							vTaskPriorityInherit( ( void * ) pxQueue->pxMutexHolder );
    17f2:	6860      	ldr	r0, [r4, #4]
    17f4:	4b2e      	ldr	r3, [pc, #184]	; (18b0 <xQueueGenericReceive+0x16c>)
    17f6:	4798      	blx	r3
						taskEXIT_CRITICAL();
    17f8:	4b2c      	ldr	r3, [pc, #176]	; (18ac <xQueueGenericReceive+0x168>)
    17fa:	4798      	blx	r3
    17fc:	e033      	b.n	1866 <xQueueGenericReceive+0x122>
				prvUnlockQueue( pxQueue );
    17fe:	0020      	movs	r0, r4
    1800:	4b2c      	ldr	r3, [pc, #176]	; (18b4 <xQueueGenericReceive+0x170>)
    1802:	4798      	blx	r3
				( void ) xTaskResumeAll();
    1804:	4b2c      	ldr	r3, [pc, #176]	; (18b8 <xQueueGenericReceive+0x174>)
    1806:	4798      	blx	r3
    1808:	2501      	movs	r5, #1
		taskENTER_CRITICAL();
    180a:	47c0      	blx	r8
			if( pxQueue->uxMessagesWaiting > ( UBaseType_t ) 0 )
    180c:	6ba3      	ldr	r3, [r4, #56]	; 0x38
    180e:	2b00      	cmp	r3, #0
    1810:	d1ba      	bne.n	1788 <xQueueGenericReceive+0x44>
				if( xTicksToWait == ( TickType_t ) 0 )
    1812:	9b01      	ldr	r3, [sp, #4]
    1814:	2b00      	cmp	r3, #0
    1816:	d0e6      	beq.n	17e6 <xQueueGenericReceive+0xa2>
				else if( xEntryTimeSet == pdFALSE )
    1818:	2d00      	cmp	r5, #0
    181a:	d102      	bne.n	1822 <xQueueGenericReceive+0xde>
					vTaskSetTimeOutState( &xTimeOut );
    181c:	a802      	add	r0, sp, #8
    181e:	4b27      	ldr	r3, [pc, #156]	; (18bc <xQueueGenericReceive+0x178>)
    1820:	4798      	blx	r3
		taskEXIT_CRITICAL();
    1822:	4b22      	ldr	r3, [pc, #136]	; (18ac <xQueueGenericReceive+0x168>)
    1824:	4798      	blx	r3
		vTaskSuspendAll();
    1826:	4b26      	ldr	r3, [pc, #152]	; (18c0 <xQueueGenericReceive+0x17c>)
    1828:	4798      	blx	r3
		prvLockQueue( pxQueue );
    182a:	4b1b      	ldr	r3, [pc, #108]	; (1898 <xQueueGenericReceive+0x154>)
    182c:	4798      	blx	r3
    182e:	6c63      	ldr	r3, [r4, #68]	; 0x44
    1830:	3301      	adds	r3, #1
    1832:	d101      	bne.n	1838 <xQueueGenericReceive+0xf4>
    1834:	2300      	movs	r3, #0
    1836:	6463      	str	r3, [r4, #68]	; 0x44
    1838:	6ca3      	ldr	r3, [r4, #72]	; 0x48
    183a:	3301      	adds	r3, #1
    183c:	d101      	bne.n	1842 <xQueueGenericReceive+0xfe>
    183e:	2300      	movs	r3, #0
    1840:	64a3      	str	r3, [r4, #72]	; 0x48
    1842:	4b1a      	ldr	r3, [pc, #104]	; (18ac <xQueueGenericReceive+0x168>)
    1844:	4798      	blx	r3
		if( xTaskCheckForTimeOut( &xTimeOut, &xTicksToWait ) == pdFALSE )
    1846:	a901      	add	r1, sp, #4
    1848:	a802      	add	r0, sp, #8
    184a:	4b1e      	ldr	r3, [pc, #120]	; (18c4 <xQueueGenericReceive+0x180>)
    184c:	4798      	blx	r3
    184e:	2800      	cmp	r0, #0
    1850:	d118      	bne.n	1884 <xQueueGenericReceive+0x140>
	taskENTER_CRITICAL();
    1852:	4b11      	ldr	r3, [pc, #68]	; (1898 <xQueueGenericReceive+0x154>)
    1854:	4798      	blx	r3
		if( pxQueue->uxMessagesWaiting == ( UBaseType_t )  0 )
    1856:	6ba5      	ldr	r5, [r4, #56]	; 0x38
	taskEXIT_CRITICAL();
    1858:	4b14      	ldr	r3, [pc, #80]	; (18ac <xQueueGenericReceive+0x168>)
    185a:	4798      	blx	r3
			if( prvIsQueueEmpty( pxQueue ) != pdFALSE )
    185c:	2d00      	cmp	r5, #0
    185e:	d1ce      	bne.n	17fe <xQueueGenericReceive+0xba>
					if( pxQueue->uxQueueType == queueQUEUE_IS_MUTEX )
    1860:	6823      	ldr	r3, [r4, #0]
    1862:	2b00      	cmp	r3, #0
    1864:	d0c3      	beq.n	17ee <xQueueGenericReceive+0xaa>
				vTaskPlaceOnEventList( &( pxQueue->xTasksWaitingToReceive ), xTicksToWait );
    1866:	0020      	movs	r0, r4
    1868:	3024      	adds	r0, #36	; 0x24
    186a:	9901      	ldr	r1, [sp, #4]
    186c:	4b16      	ldr	r3, [pc, #88]	; (18c8 <xQueueGenericReceive+0x184>)
    186e:	4798      	blx	r3
				prvUnlockQueue( pxQueue );
    1870:	0020      	movs	r0, r4
    1872:	4b10      	ldr	r3, [pc, #64]	; (18b4 <xQueueGenericReceive+0x170>)
    1874:	4798      	blx	r3
				if( xTaskResumeAll() == pdFALSE )
    1876:	4b10      	ldr	r3, [pc, #64]	; (18b8 <xQueueGenericReceive+0x174>)
    1878:	4798      	blx	r3
    187a:	2800      	cmp	r0, #0
    187c:	d1c4      	bne.n	1808 <xQueueGenericReceive+0xc4>
					portYIELD_WITHIN_API();
    187e:	4b0a      	ldr	r3, [pc, #40]	; (18a8 <xQueueGenericReceive+0x164>)
    1880:	4798      	blx	r3
    1882:	e7c1      	b.n	1808 <xQueueGenericReceive+0xc4>
			prvUnlockQueue( pxQueue );
    1884:	0020      	movs	r0, r4
    1886:	4b0b      	ldr	r3, [pc, #44]	; (18b4 <xQueueGenericReceive+0x170>)
    1888:	4798      	blx	r3
			( void ) xTaskResumeAll();
    188a:	4b0b      	ldr	r3, [pc, #44]	; (18b8 <xQueueGenericReceive+0x174>)
    188c:	4798      	blx	r3
			return errQUEUE_EMPTY;
    188e:	2000      	movs	r0, #0
    1890:	e798      	b.n	17c4 <xQueueGenericReceive+0x80>
    1892:	46c0      	nop			; (mov r8, r8)
    1894:	000021a5 	.word	0x000021a5
    1898:	00001079 	.word	0x00001079
    189c:	00001365 	.word	0x00001365
    18a0:	00002199 	.word	0x00002199
    18a4:	00002075 	.word	0x00002075
    18a8:	00001061 	.word	0x00001061
    18ac:	00001091 	.word	0x00001091
    18b0:	000021c5 	.word	0x000021c5
    18b4:	0000138d 	.word	0x0000138d
    18b8:	00001d41 	.word	0x00001d41
    18bc:	000020fd 	.word	0x000020fd
    18c0:	00001bed 	.word	0x00001bed
    18c4:	0000211d 	.word	0x0000211d
    18c8:	00001fdd 	.word	0x00001fdd

000018cc <vQueueWaitForMessageRestricted>:
	{
    18cc:	b570      	push	{r4, r5, r6, lr}
    18ce:	0004      	movs	r4, r0
    18d0:	000d      	movs	r5, r1
		prvLockQueue( pxQueue );
    18d2:	4b0e      	ldr	r3, [pc, #56]	; (190c <vQueueWaitForMessageRestricted+0x40>)
    18d4:	4798      	blx	r3
    18d6:	6c63      	ldr	r3, [r4, #68]	; 0x44
    18d8:	3301      	adds	r3, #1
    18da:	d00b      	beq.n	18f4 <vQueueWaitForMessageRestricted+0x28>
    18dc:	6ca3      	ldr	r3, [r4, #72]	; 0x48
    18de:	3301      	adds	r3, #1
    18e0:	d00b      	beq.n	18fa <vQueueWaitForMessageRestricted+0x2e>
    18e2:	4b0b      	ldr	r3, [pc, #44]	; (1910 <vQueueWaitForMessageRestricted+0x44>)
    18e4:	4798      	blx	r3
		if( pxQueue->uxMessagesWaiting == ( UBaseType_t ) 0U )
    18e6:	6ba3      	ldr	r3, [r4, #56]	; 0x38
    18e8:	2b00      	cmp	r3, #0
    18ea:	d009      	beq.n	1900 <vQueueWaitForMessageRestricted+0x34>
		prvUnlockQueue( pxQueue );
    18ec:	0020      	movs	r0, r4
    18ee:	4b09      	ldr	r3, [pc, #36]	; (1914 <vQueueWaitForMessageRestricted+0x48>)
    18f0:	4798      	blx	r3
	}
    18f2:	bd70      	pop	{r4, r5, r6, pc}
		prvLockQueue( pxQueue );
    18f4:	2300      	movs	r3, #0
    18f6:	6463      	str	r3, [r4, #68]	; 0x44
    18f8:	e7f0      	b.n	18dc <vQueueWaitForMessageRestricted+0x10>
    18fa:	2300      	movs	r3, #0
    18fc:	64a3      	str	r3, [r4, #72]	; 0x48
    18fe:	e7f0      	b.n	18e2 <vQueueWaitForMessageRestricted+0x16>
			vTaskPlaceOnEventListRestricted( &( pxQueue->xTasksWaitingToReceive ), xTicksToWait );
    1900:	0020      	movs	r0, r4
    1902:	3024      	adds	r0, #36	; 0x24
    1904:	0029      	movs	r1, r5
    1906:	4b04      	ldr	r3, [pc, #16]	; (1918 <vQueueWaitForMessageRestricted+0x4c>)
    1908:	4798      	blx	r3
    190a:	e7ef      	b.n	18ec <vQueueWaitForMessageRestricted+0x20>
    190c:	00001079 	.word	0x00001079
    1910:	00001091 	.word	0x00001091
    1914:	0000138d 	.word	0x0000138d
    1918:	00002035 	.word	0x00002035

0000191c <prvResetNextTaskUnblockTime>:

static void prvResetNextTaskUnblockTime( void )
{
TCB_t *pxTCB;

	if( listLIST_IS_EMPTY( pxDelayedTaskList ) != pdFALSE )
    191c:	4b08      	ldr	r3, [pc, #32]	; (1940 <prvResetNextTaskUnblockTime+0x24>)
    191e:	681b      	ldr	r3, [r3, #0]
    1920:	681b      	ldr	r3, [r3, #0]
    1922:	2b00      	cmp	r3, #0
    1924:	d007      	beq.n	1936 <prvResetNextTaskUnblockTime+0x1a>
	{
		/* The new current delayed list is not empty, get the value of
		the item at the head of the delayed list.  This is the time at
		which the task at the head of the delayed list should be removed
		from the Blocked state. */
		( pxTCB ) = ( TCB_t * ) listGET_OWNER_OF_HEAD_ENTRY( pxDelayedTaskList );
    1926:	4b06      	ldr	r3, [pc, #24]	; (1940 <prvResetNextTaskUnblockTime+0x24>)
    1928:	681b      	ldr	r3, [r3, #0]
    192a:	68db      	ldr	r3, [r3, #12]
		xNextTaskUnblockTime = listGET_LIST_ITEM_VALUE( &( ( pxTCB )->xGenericListItem ) );
    192c:	68db      	ldr	r3, [r3, #12]
    192e:	685a      	ldr	r2, [r3, #4]
    1930:	4b04      	ldr	r3, [pc, #16]	; (1944 <prvResetNextTaskUnblockTime+0x28>)
    1932:	601a      	str	r2, [r3, #0]
	}
}
    1934:	4770      	bx	lr
		xNextTaskUnblockTime = portMAX_DELAY;
    1936:	2201      	movs	r2, #1
    1938:	4252      	negs	r2, r2
    193a:	4b02      	ldr	r3, [pc, #8]	; (1944 <prvResetNextTaskUnblockTime+0x28>)
    193c:	601a      	str	r2, [r3, #0]
    193e:	e7f9      	b.n	1934 <prvResetNextTaskUnblockTime+0x18>
    1940:	20003b78 	.word	0x20003b78
    1944:	20000028 	.word	0x20000028

00001948 <prvAddCurrentTaskToDelayedList>:
{
    1948:	b510      	push	{r4, lr}
    194a:	0004      	movs	r4, r0
	listSET_LIST_ITEM_VALUE( &( pxCurrentTCB->xGenericListItem ), xTimeToWake );
    194c:	4b0e      	ldr	r3, [pc, #56]	; (1988 <prvAddCurrentTaskToDelayedList+0x40>)
    194e:	681b      	ldr	r3, [r3, #0]
    1950:	6058      	str	r0, [r3, #4]
	if( xTimeToWake < xTickCount )
    1952:	4b0e      	ldr	r3, [pc, #56]	; (198c <prvAddCurrentTaskToDelayedList+0x44>)
    1954:	681b      	ldr	r3, [r3, #0]
    1956:	4298      	cmp	r0, r3
    1958:	d30d      	bcc.n	1976 <prvAddCurrentTaskToDelayedList+0x2e>
		vListInsert( pxDelayedTaskList, &( pxCurrentTCB->xGenericListItem ) );
    195a:	4b0d      	ldr	r3, [pc, #52]	; (1990 <prvAddCurrentTaskToDelayedList+0x48>)
    195c:	6818      	ldr	r0, [r3, #0]
    195e:	4b0a      	ldr	r3, [pc, #40]	; (1988 <prvAddCurrentTaskToDelayedList+0x40>)
    1960:	6819      	ldr	r1, [r3, #0]
    1962:	3104      	adds	r1, #4
    1964:	4b0b      	ldr	r3, [pc, #44]	; (1994 <prvAddCurrentTaskToDelayedList+0x4c>)
    1966:	4798      	blx	r3
		if( xTimeToWake < xNextTaskUnblockTime )
    1968:	4b0b      	ldr	r3, [pc, #44]	; (1998 <prvAddCurrentTaskToDelayedList+0x50>)
    196a:	681b      	ldr	r3, [r3, #0]
    196c:	429c      	cmp	r4, r3
    196e:	d209      	bcs.n	1984 <prvAddCurrentTaskToDelayedList+0x3c>
			xNextTaskUnblockTime = xTimeToWake;
    1970:	4b09      	ldr	r3, [pc, #36]	; (1998 <prvAddCurrentTaskToDelayedList+0x50>)
    1972:	601c      	str	r4, [r3, #0]
}
    1974:	e006      	b.n	1984 <prvAddCurrentTaskToDelayedList+0x3c>
		vListInsert( pxOverflowDelayedTaskList, &( pxCurrentTCB->xGenericListItem ) );
    1976:	4b09      	ldr	r3, [pc, #36]	; (199c <prvAddCurrentTaskToDelayedList+0x54>)
    1978:	6818      	ldr	r0, [r3, #0]
    197a:	4b03      	ldr	r3, [pc, #12]	; (1988 <prvAddCurrentTaskToDelayedList+0x40>)
    197c:	6819      	ldr	r1, [r3, #0]
    197e:	3104      	adds	r1, #4
    1980:	4b04      	ldr	r3, [pc, #16]	; (1994 <prvAddCurrentTaskToDelayedList+0x4c>)
    1982:	4798      	blx	r3
}
    1984:	bd10      	pop	{r4, pc}
    1986:	46c0      	nop			; (mov r8, r8)
    1988:	20003b74 	.word	0x20003b74
    198c:	20003c68 	.word	0x20003c68
    1990:	20003b78 	.word	0x20003b78
    1994:	00001243 	.word	0x00001243
    1998:	20000028 	.word	0x20000028
    199c:	20003b7c 	.word	0x20003b7c

000019a0 <xTaskGenericCreate>:
{
    19a0:	b5f0      	push	{r4, r5, r6, r7, lr}
    19a2:	46d6      	mov	lr, sl
    19a4:	b500      	push	{lr}
    19a6:	b082      	sub	sp, #8
    19a8:	0005      	movs	r5, r0
    19aa:	000f      	movs	r7, r1
    19ac:	0016      	movs	r6, r2
    19ae:	9301      	str	r3, [sp, #4]
    19b0:	9b08      	ldr	r3, [sp, #32]
    19b2:	469a      	mov	sl, r3
	configASSERT( pxTaskCode );
    19b4:	2800      	cmp	r0, #0
    19b6:	d003      	beq.n	19c0 <xTaskGenericCreate+0x20>
	configASSERT( ( ( uxPriority & ( ~portPRIVILEGE_BIT ) ) < configMAX_PRIORITIES ) );
    19b8:	2b04      	cmp	r3, #4
    19ba:	d903      	bls.n	19c4 <xTaskGenericCreate+0x24>
    19bc:	b672      	cpsid	i
    19be:	e7fe      	b.n	19be <xTaskGenericCreate+0x1e>
	configASSERT( pxTaskCode );
    19c0:	b672      	cpsid	i
    19c2:	e7fe      	b.n	19c2 <xTaskGenericCreate+0x22>
	pxNewTCB = ( TCB_t * ) pvPortMalloc( sizeof( TCB_t ) );
    19c4:	2040      	movs	r0, #64	; 0x40
    19c6:	4b5a      	ldr	r3, [pc, #360]	; (1b30 <xTaskGenericCreate+0x190>)
    19c8:	4798      	blx	r3
    19ca:	1e04      	subs	r4, r0, #0
	if( pxNewTCB != NULL )
    19cc:	d00d      	beq.n	19ea <xTaskGenericCreate+0x4a>
		pxNewTCB->pxStack = ( StackType_t * ) pvPortMallocAligned( ( ( ( size_t ) usStackDepth ) * sizeof( StackType_t ) ), puxStackBuffer ); /*lint !e961 MISRA exception as the casts are only redundant for some ports. */
    19ce:	9b0a      	ldr	r3, [sp, #40]	; 0x28
    19d0:	2b00      	cmp	r3, #0
    19d2:	d000      	beq.n	19d6 <xTaskGenericCreate+0x36>
    19d4:	e094      	b.n	1b00 <xTaskGenericCreate+0x160>
    19d6:	00b0      	lsls	r0, r6, #2
    19d8:	4b55      	ldr	r3, [pc, #340]	; (1b30 <xTaskGenericCreate+0x190>)
    19da:	4798      	blx	r3
    19dc:	6320      	str	r0, [r4, #48]	; 0x30
		if( pxNewTCB->pxStack == NULL )
    19de:	2800      	cmp	r0, #0
    19e0:	d000      	beq.n	19e4 <xTaskGenericCreate+0x44>
    19e2:	e08f      	b.n	1b04 <xTaskGenericCreate+0x164>
			vPortFree( pxNewTCB );
    19e4:	0020      	movs	r0, r4
    19e6:	4b53      	ldr	r3, [pc, #332]	; (1b34 <xTaskGenericCreate+0x194>)
    19e8:	4798      	blx	r3
		xReturn = errCOULD_NOT_ALLOCATE_REQUIRED_MEMORY;
    19ea:	2001      	movs	r0, #1
    19ec:	4240      	negs	r0, r0
    19ee:	e077      	b.n	1ae0 <xTaskGenericCreate+0x140>
    19f0:	3701      	adds	r7, #1
    19f2:	3301      	adds	r3, #1
	for( x = ( UBaseType_t ) 0; x < ( UBaseType_t ) configMAX_TASK_NAME_LEN; x++ )
    19f4:	428b      	cmp	r3, r1
    19f6:	d004      	beq.n	1a02 <xTaskGenericCreate+0x62>
		pxTCB->pcTaskName[ x ] = pcName[ x ];
    19f8:	7838      	ldrb	r0, [r7, #0]
    19fa:	7018      	strb	r0, [r3, #0]
		if( pcName[ x ] == 0x00 )
    19fc:	7838      	ldrb	r0, [r7, #0]
    19fe:	2800      	cmp	r0, #0
    1a00:	d1f6      	bne.n	19f0 <xTaskGenericCreate+0x50>
	pxTCB->pcTaskName[ configMAX_TASK_NAME_LEN - 1 ] = '\0';
    1a02:	2200      	movs	r2, #0
    1a04:	233b      	movs	r3, #59	; 0x3b
    1a06:	54e2      	strb	r2, [r4, r3]
	pxTCB->uxPriority = uxPriority;
    1a08:	4653      	mov	r3, sl
    1a0a:	62e3      	str	r3, [r4, #44]	; 0x2c
		pxTCB->uxBasePriority = uxPriority;
    1a0c:	63e3      	str	r3, [r4, #60]	; 0x3c
	vListInitialiseItem( &( pxTCB->xGenericListItem ) );
    1a0e:	1d23      	adds	r3, r4, #4
    1a10:	9300      	str	r3, [sp, #0]
    1a12:	0018      	movs	r0, r3
    1a14:	4f48      	ldr	r7, [pc, #288]	; (1b38 <xTaskGenericCreate+0x198>)
    1a16:	47b8      	blx	r7
	vListInitialiseItem( &( pxTCB->xEventListItem ) );
    1a18:	0020      	movs	r0, r4
    1a1a:	3018      	adds	r0, #24
    1a1c:	47b8      	blx	r7
	listSET_LIST_ITEM_OWNER( &( pxTCB->xGenericListItem ), pxTCB );
    1a1e:	6124      	str	r4, [r4, #16]
	listSET_LIST_ITEM_VALUE( &( pxTCB->xEventListItem ), ( TickType_t ) configMAX_PRIORITIES - ( TickType_t ) uxPriority ); /*lint !e961 MISRA exception as the casts are only redundant for some ports. */
    1a20:	2305      	movs	r3, #5
    1a22:	4652      	mov	r2, sl
    1a24:	1a9b      	subs	r3, r3, r2
    1a26:	61a3      	str	r3, [r4, #24]
	listSET_LIST_ITEM_OWNER( &( pxTCB->xEventListItem ), pxTCB );
    1a28:	6264      	str	r4, [r4, #36]	; 0x24
			pxNewTCB->pxTopOfStack = pxPortInitialiseStack( pxTopOfStack, pxTaskCode, pvParameters );
    1a2a:	9a01      	ldr	r2, [sp, #4]
    1a2c:	0029      	movs	r1, r5
    1a2e:	0030      	movs	r0, r6
    1a30:	4b42      	ldr	r3, [pc, #264]	; (1b3c <xTaskGenericCreate+0x19c>)
    1a32:	4798      	blx	r3
    1a34:	6020      	str	r0, [r4, #0]
		if( ( void * ) pxCreatedTask != NULL )
    1a36:	9b09      	ldr	r3, [sp, #36]	; 0x24
    1a38:	2b00      	cmp	r3, #0
    1a3a:	d000      	beq.n	1a3e <xTaskGenericCreate+0x9e>
			*pxCreatedTask = ( TaskHandle_t ) pxNewTCB;
    1a3c:	601c      	str	r4, [r3, #0]
		taskENTER_CRITICAL();
    1a3e:	4b40      	ldr	r3, [pc, #256]	; (1b40 <xTaskGenericCreate+0x1a0>)
    1a40:	4798      	blx	r3
			uxCurrentNumberOfTasks++;
    1a42:	4a40      	ldr	r2, [pc, #256]	; (1b44 <xTaskGenericCreate+0x1a4>)
    1a44:	6813      	ldr	r3, [r2, #0]
    1a46:	3301      	adds	r3, #1
    1a48:	6013      	str	r3, [r2, #0]
			if( pxCurrentTCB == NULL )
    1a4a:	4b3f      	ldr	r3, [pc, #252]	; (1b48 <xTaskGenericCreate+0x1a8>)
    1a4c:	681b      	ldr	r3, [r3, #0]
    1a4e:	2b00      	cmp	r3, #0
    1a50:	d14a      	bne.n	1ae8 <xTaskGenericCreate+0x148>
				pxCurrentTCB =  pxNewTCB;
    1a52:	4b3d      	ldr	r3, [pc, #244]	; (1b48 <xTaskGenericCreate+0x1a8>)
    1a54:	601c      	str	r4, [r3, #0]
				if( uxCurrentNumberOfTasks == ( UBaseType_t ) 1 )
    1a56:	6813      	ldr	r3, [r2, #0]
    1a58:	2b01      	cmp	r3, #1
    1a5a:	d11f      	bne.n	1a9c <xTaskGenericCreate+0xfc>
		vListInitialise( &( pxReadyTasksLists[ uxPriority ] ) );
    1a5c:	4e3b      	ldr	r6, [pc, #236]	; (1b4c <xTaskGenericCreate+0x1ac>)
    1a5e:	0030      	movs	r0, r6
    1a60:	4d3b      	ldr	r5, [pc, #236]	; (1b50 <xTaskGenericCreate+0x1b0>)
    1a62:	47a8      	blx	r5
    1a64:	0030      	movs	r0, r6
    1a66:	3014      	adds	r0, #20
    1a68:	47a8      	blx	r5
    1a6a:	0030      	movs	r0, r6
    1a6c:	3028      	adds	r0, #40	; 0x28
    1a6e:	47a8      	blx	r5
    1a70:	0030      	movs	r0, r6
    1a72:	303c      	adds	r0, #60	; 0x3c
    1a74:	47a8      	blx	r5
    1a76:	0030      	movs	r0, r6
    1a78:	3050      	adds	r0, #80	; 0x50
    1a7a:	47a8      	blx	r5
	vListInitialise( &xDelayedTaskList1 );
    1a7c:	4f35      	ldr	r7, [pc, #212]	; (1b54 <xTaskGenericCreate+0x1b4>)
    1a7e:	0038      	movs	r0, r7
    1a80:	47a8      	blx	r5
	vListInitialise( &xDelayedTaskList2 );
    1a82:	4e35      	ldr	r6, [pc, #212]	; (1b58 <xTaskGenericCreate+0x1b8>)
    1a84:	0030      	movs	r0, r6
    1a86:	47a8      	blx	r5
	vListInitialise( &xPendingReadyList );
    1a88:	4834      	ldr	r0, [pc, #208]	; (1b5c <xTaskGenericCreate+0x1bc>)
    1a8a:	47a8      	blx	r5
		vListInitialise( &xTasksWaitingTermination );
    1a8c:	4834      	ldr	r0, [pc, #208]	; (1b60 <xTaskGenericCreate+0x1c0>)
    1a8e:	47a8      	blx	r5
		vListInitialise( &xSuspendedTaskList );
    1a90:	4834      	ldr	r0, [pc, #208]	; (1b64 <xTaskGenericCreate+0x1c4>)
    1a92:	47a8      	blx	r5
	pxDelayedTaskList = &xDelayedTaskList1;
    1a94:	4b34      	ldr	r3, [pc, #208]	; (1b68 <xTaskGenericCreate+0x1c8>)
    1a96:	601f      	str	r7, [r3, #0]
	pxOverflowDelayedTaskList = &xDelayedTaskList2;
    1a98:	4b34      	ldr	r3, [pc, #208]	; (1b6c <xTaskGenericCreate+0x1cc>)
    1a9a:	601e      	str	r6, [r3, #0]
			uxTaskNumber++;
    1a9c:	4a34      	ldr	r2, [pc, #208]	; (1b70 <xTaskGenericCreate+0x1d0>)
    1a9e:	6813      	ldr	r3, [r2, #0]
    1aa0:	3301      	adds	r3, #1
    1aa2:	6013      	str	r3, [r2, #0]
			prvAddTaskToReadyList( pxNewTCB );
    1aa4:	6ae3      	ldr	r3, [r4, #44]	; 0x2c
    1aa6:	4a33      	ldr	r2, [pc, #204]	; (1b74 <xTaskGenericCreate+0x1d4>)
    1aa8:	6812      	ldr	r2, [r2, #0]
    1aaa:	4293      	cmp	r3, r2
    1aac:	d901      	bls.n	1ab2 <xTaskGenericCreate+0x112>
    1aae:	4a31      	ldr	r2, [pc, #196]	; (1b74 <xTaskGenericCreate+0x1d4>)
    1ab0:	6013      	str	r3, [r2, #0]
    1ab2:	0098      	lsls	r0, r3, #2
    1ab4:	18c0      	adds	r0, r0, r3
    1ab6:	0080      	lsls	r0, r0, #2
    1ab8:	4b24      	ldr	r3, [pc, #144]	; (1b4c <xTaskGenericCreate+0x1ac>)
    1aba:	1818      	adds	r0, r3, r0
    1abc:	9900      	ldr	r1, [sp, #0]
    1abe:	4b2e      	ldr	r3, [pc, #184]	; (1b78 <xTaskGenericCreate+0x1d8>)
    1ac0:	4798      	blx	r3
		taskEXIT_CRITICAL();
    1ac2:	4b2e      	ldr	r3, [pc, #184]	; (1b7c <xTaskGenericCreate+0x1dc>)
    1ac4:	4798      	blx	r3
		if( xSchedulerRunning != pdFALSE )
    1ac6:	4b2e      	ldr	r3, [pc, #184]	; (1b80 <xTaskGenericCreate+0x1e0>)
    1ac8:	681b      	ldr	r3, [r3, #0]
    1aca:	2001      	movs	r0, #1
    1acc:	2b00      	cmp	r3, #0
    1ace:	d007      	beq.n	1ae0 <xTaskGenericCreate+0x140>
			if( pxCurrentTCB->uxPriority < uxPriority )
    1ad0:	4b1d      	ldr	r3, [pc, #116]	; (1b48 <xTaskGenericCreate+0x1a8>)
    1ad2:	681b      	ldr	r3, [r3, #0]
    1ad4:	6adb      	ldr	r3, [r3, #44]	; 0x2c
    1ad6:	459a      	cmp	sl, r3
    1ad8:	d902      	bls.n	1ae0 <xTaskGenericCreate+0x140>
				taskYIELD_IF_USING_PREEMPTION();
    1ada:	4b2a      	ldr	r3, [pc, #168]	; (1b84 <xTaskGenericCreate+0x1e4>)
    1adc:	4798      	blx	r3
    1ade:	2001      	movs	r0, #1
}
    1ae0:	b002      	add	sp, #8
    1ae2:	bc04      	pop	{r2}
    1ae4:	4692      	mov	sl, r2
    1ae6:	bdf0      	pop	{r4, r5, r6, r7, pc}
				if( xSchedulerRunning == pdFALSE )
    1ae8:	4b25      	ldr	r3, [pc, #148]	; (1b80 <xTaskGenericCreate+0x1e0>)
    1aea:	681b      	ldr	r3, [r3, #0]
    1aec:	2b00      	cmp	r3, #0
    1aee:	d1d5      	bne.n	1a9c <xTaskGenericCreate+0xfc>
					if( pxCurrentTCB->uxPriority <= uxPriority )
    1af0:	4b15      	ldr	r3, [pc, #84]	; (1b48 <xTaskGenericCreate+0x1a8>)
    1af2:	681b      	ldr	r3, [r3, #0]
    1af4:	6adb      	ldr	r3, [r3, #44]	; 0x2c
    1af6:	459a      	cmp	sl, r3
    1af8:	d3d0      	bcc.n	1a9c <xTaskGenericCreate+0xfc>
						pxCurrentTCB = pxNewTCB;
    1afa:	4b13      	ldr	r3, [pc, #76]	; (1b48 <xTaskGenericCreate+0x1a8>)
    1afc:	601c      	str	r4, [r3, #0]
    1afe:	e7cd      	b.n	1a9c <xTaskGenericCreate+0xfc>
		pxNewTCB->pxStack = ( StackType_t * ) pvPortMallocAligned( ( ( ( size_t ) usStackDepth ) * sizeof( StackType_t ) ), puxStackBuffer ); /*lint !e961 MISRA exception as the casts are only redundant for some ports. */
    1b00:	9b0a      	ldr	r3, [sp, #40]	; 0x28
    1b02:	6303      	str	r3, [r0, #48]	; 0x30
			pxTopOfStack = pxNewTCB->pxStack + ( usStackDepth - ( uint16_t ) 1 );
    1b04:	4b20      	ldr	r3, [pc, #128]	; (1b88 <xTaskGenericCreate+0x1e8>)
    1b06:	18f3      	adds	r3, r6, r3
    1b08:	009b      	lsls	r3, r3, #2
    1b0a:	6b22      	ldr	r2, [r4, #48]	; 0x30
    1b0c:	4694      	mov	ip, r2
    1b0e:	4463      	add	r3, ip
			pxTopOfStack = ( StackType_t * ) ( ( ( portPOINTER_SIZE_TYPE ) pxTopOfStack ) & ( ( portPOINTER_SIZE_TYPE ) ~portBYTE_ALIGNMENT_MASK  ) ); /*lint !e923 MISRA exception.  Avoiding casts between pointers and integers is not practical.  Size differences accounted for using portPOINTER_SIZE_TYPE type. */
    1b10:	2207      	movs	r2, #7
    1b12:	4393      	bics	r3, r2
    1b14:	001e      	movs	r6, r3
		pxTCB->pcTaskName[ x ] = pcName[ x ];
    1b16:	783a      	ldrb	r2, [r7, #0]
    1b18:	2334      	movs	r3, #52	; 0x34
    1b1a:	54e2      	strb	r2, [r4, r3]
		if( pcName[ x ] == 0x00 )
    1b1c:	783b      	ldrb	r3, [r7, #0]
    1b1e:	2b00      	cmp	r3, #0
    1b20:	d100      	bne.n	1b24 <xTaskGenericCreate+0x184>
    1b22:	e76e      	b.n	1a02 <xTaskGenericCreate+0x62>
    1b24:	3701      	adds	r7, #1
    1b26:	0023      	movs	r3, r4
    1b28:	3335      	adds	r3, #53	; 0x35
    1b2a:	0021      	movs	r1, r4
    1b2c:	313c      	adds	r1, #60	; 0x3c
    1b2e:	e763      	b.n	19f8 <xTaskGenericCreate+0x58>
    1b30:	00001199 	.word	0x00001199
    1b34:	00001205 	.word	0x00001205
    1b38:	00001225 	.word	0x00001225
    1b3c:	0000103d 	.word	0x0000103d
    1b40:	00001079 	.word	0x00001079
    1b44:	20003be4 	.word	0x20003be4
    1b48:	20003b74 	.word	0x20003b74
    1b4c:	20003b80 	.word	0x20003b80
    1b50:	0000120f 	.word	0x0000120f
    1b54:	20003bfc 	.word	0x20003bfc
    1b58:	20003c10 	.word	0x20003c10
    1b5c:	20003c28 	.word	0x20003c28
    1b60:	20003c54 	.word	0x20003c54
    1b64:	20003c40 	.word	0x20003c40
    1b68:	20003b78 	.word	0x20003b78
    1b6c:	20003b7c 	.word	0x20003b7c
    1b70:	20003bf0 	.word	0x20003bf0
    1b74:	20003bf8 	.word	0x20003bf8
    1b78:	0000122b 	.word	0x0000122b
    1b7c:	00001091 	.word	0x00001091
    1b80:	20003c3c 	.word	0x20003c3c
    1b84:	00001061 	.word	0x00001061
    1b88:	3fffffff 	.word	0x3fffffff

00001b8c <vTaskStartScheduler>:
{
    1b8c:	b510      	push	{r4, lr}
    1b8e:	b084      	sub	sp, #16
		xReturn = xTaskCreate( prvIdleTask, "IDLE", tskIDLE_STACK_SIZE, ( void * ) NULL, ( tskIDLE_PRIORITY | portPRIVILEGE_BIT ), NULL );  /*lint !e961 MISRA exception, justified as it is not a redundant explicit cast to all supported compilers. */
    1b90:	2300      	movs	r3, #0
    1b92:	9303      	str	r3, [sp, #12]
    1b94:	9302      	str	r3, [sp, #8]
    1b96:	9301      	str	r3, [sp, #4]
    1b98:	9300      	str	r3, [sp, #0]
    1b9a:	2264      	movs	r2, #100	; 0x64
    1b9c:	490c      	ldr	r1, [pc, #48]	; (1bd0 <vTaskStartScheduler+0x44>)
    1b9e:	480d      	ldr	r0, [pc, #52]	; (1bd4 <vTaskStartScheduler+0x48>)
    1ba0:	4c0d      	ldr	r4, [pc, #52]	; (1bd8 <vTaskStartScheduler+0x4c>)
    1ba2:	47a0      	blx	r4
		if( xReturn == pdPASS )
    1ba4:	2801      	cmp	r0, #1
    1ba6:	d003      	beq.n	1bb0 <vTaskStartScheduler+0x24>
		configASSERT( xReturn );
    1ba8:	2800      	cmp	r0, #0
    1baa:	d10e      	bne.n	1bca <vTaskStartScheduler+0x3e>
    1bac:	b672      	cpsid	i
    1bae:	e7fe      	b.n	1bae <vTaskStartScheduler+0x22>
			xReturn = xTimerCreateTimerTask();
    1bb0:	4b0a      	ldr	r3, [pc, #40]	; (1bdc <vTaskStartScheduler+0x50>)
    1bb2:	4798      	blx	r3
	if( xReturn == pdPASS )
    1bb4:	2801      	cmp	r0, #1
    1bb6:	d1f7      	bne.n	1ba8 <vTaskStartScheduler+0x1c>
		portDISABLE_INTERRUPTS();
    1bb8:	b672      	cpsid	i
		xSchedulerRunning = pdTRUE;
    1bba:	2201      	movs	r2, #1
    1bbc:	4b08      	ldr	r3, [pc, #32]	; (1be0 <vTaskStartScheduler+0x54>)
    1bbe:	601a      	str	r2, [r3, #0]
		xTickCount = ( TickType_t ) 0U;
    1bc0:	2200      	movs	r2, #0
    1bc2:	4b08      	ldr	r3, [pc, #32]	; (1be4 <vTaskStartScheduler+0x58>)
    1bc4:	601a      	str	r2, [r3, #0]
		if( xPortStartScheduler() != pdFALSE )
    1bc6:	4b08      	ldr	r3, [pc, #32]	; (1be8 <vTaskStartScheduler+0x5c>)
    1bc8:	4798      	blx	r3
}
    1bca:	b004      	add	sp, #16
    1bcc:	bd10      	pop	{r4, pc}
    1bce:	46c0      	nop			; (mov r8, r8)
    1bd0:	00006b40 	.word	0x00006b40
    1bd4:	00001e9d 	.word	0x00001e9d
    1bd8:	000019a1 	.word	0x000019a1
    1bdc:	00002349 	.word	0x00002349
    1be0:	20003c3c 	.word	0x20003c3c
    1be4:	20003c68 	.word	0x20003c68
    1be8:	00001159 	.word	0x00001159

00001bec <vTaskSuspendAll>:
	++uxSchedulerSuspended;
    1bec:	4a02      	ldr	r2, [pc, #8]	; (1bf8 <vTaskSuspendAll+0xc>)
    1bee:	6813      	ldr	r3, [r2, #0]
    1bf0:	3301      	adds	r3, #1
    1bf2:	6013      	str	r3, [r2, #0]
}
    1bf4:	4770      	bx	lr
    1bf6:	46c0      	nop			; (mov r8, r8)
    1bf8:	20003bec 	.word	0x20003bec

00001bfc <xTaskGetTickCount>:
{
    1bfc:	b510      	push	{r4, lr}
	taskENTER_CRITICAL();
    1bfe:	4b04      	ldr	r3, [pc, #16]	; (1c10 <xTaskGetTickCount+0x14>)
    1c00:	4798      	blx	r3
		xTicks = xTickCount;
    1c02:	4b04      	ldr	r3, [pc, #16]	; (1c14 <xTaskGetTickCount+0x18>)
    1c04:	681c      	ldr	r4, [r3, #0]
	taskEXIT_CRITICAL();
    1c06:	4b04      	ldr	r3, [pc, #16]	; (1c18 <xTaskGetTickCount+0x1c>)
    1c08:	4798      	blx	r3
}
    1c0a:	0020      	movs	r0, r4
    1c0c:	bd10      	pop	{r4, pc}
    1c0e:	46c0      	nop			; (mov r8, r8)
    1c10:	00001079 	.word	0x00001079
    1c14:	20003c68 	.word	0x20003c68
    1c18:	00001091 	.word	0x00001091

00001c1c <xTaskIncrementTick>:
{
    1c1c:	b5f0      	push	{r4, r5, r6, r7, lr}
    1c1e:	b083      	sub	sp, #12
	if( uxSchedulerSuspended == ( UBaseType_t ) pdFALSE )
    1c20:	4b39      	ldr	r3, [pc, #228]	; (1d08 <xTaskIncrementTick+0xec>)
    1c22:	681b      	ldr	r3, [r3, #0]
    1c24:	2b00      	cmp	r3, #0
    1c26:	d161      	bne.n	1cec <xTaskIncrementTick+0xd0>
		++xTickCount;
    1c28:	4b38      	ldr	r3, [pc, #224]	; (1d0c <xTaskIncrementTick+0xf0>)
    1c2a:	681a      	ldr	r2, [r3, #0]
    1c2c:	3201      	adds	r2, #1
    1c2e:	601a      	str	r2, [r3, #0]
			const TickType_t xConstTickCount = xTickCount;
    1c30:	681e      	ldr	r6, [r3, #0]
			if( xConstTickCount == ( TickType_t ) 0U )
    1c32:	2e00      	cmp	r6, #0
    1c34:	d112      	bne.n	1c5c <xTaskIncrementTick+0x40>
				taskSWITCH_DELAYED_LISTS();
    1c36:	4b36      	ldr	r3, [pc, #216]	; (1d10 <xTaskIncrementTick+0xf4>)
    1c38:	681b      	ldr	r3, [r3, #0]
    1c3a:	681b      	ldr	r3, [r3, #0]
    1c3c:	2b00      	cmp	r3, #0
    1c3e:	d001      	beq.n	1c44 <xTaskIncrementTick+0x28>
    1c40:	b672      	cpsid	i
    1c42:	e7fe      	b.n	1c42 <xTaskIncrementTick+0x26>
    1c44:	4a32      	ldr	r2, [pc, #200]	; (1d10 <xTaskIncrementTick+0xf4>)
    1c46:	6811      	ldr	r1, [r2, #0]
    1c48:	4b32      	ldr	r3, [pc, #200]	; (1d14 <xTaskIncrementTick+0xf8>)
    1c4a:	6818      	ldr	r0, [r3, #0]
    1c4c:	6010      	str	r0, [r2, #0]
    1c4e:	6019      	str	r1, [r3, #0]
    1c50:	4a31      	ldr	r2, [pc, #196]	; (1d18 <xTaskIncrementTick+0xfc>)
    1c52:	6813      	ldr	r3, [r2, #0]
    1c54:	3301      	adds	r3, #1
    1c56:	6013      	str	r3, [r2, #0]
    1c58:	4b30      	ldr	r3, [pc, #192]	; (1d1c <xTaskIncrementTick+0x100>)
    1c5a:	4798      	blx	r3
			if( xConstTickCount >= xNextTaskUnblockTime )
    1c5c:	4b30      	ldr	r3, [pc, #192]	; (1d20 <xTaskIncrementTick+0x104>)
    1c5e:	681b      	ldr	r3, [r3, #0]
BaseType_t xSwitchRequired = pdFALSE;
    1c60:	2400      	movs	r4, #0
			if( xConstTickCount >= xNextTaskUnblockTime )
    1c62:	429e      	cmp	r6, r3
    1c64:	d333      	bcc.n	1cce <xTaskIncrementTick+0xb2>
    1c66:	2400      	movs	r4, #0
					if( listLIST_IS_EMPTY( pxDelayedTaskList ) != pdFALSE )
    1c68:	4f29      	ldr	r7, [pc, #164]	; (1d10 <xTaskIncrementTick+0xf4>)
    1c6a:	683b      	ldr	r3, [r7, #0]
    1c6c:	681b      	ldr	r3, [r3, #0]
    1c6e:	2b00      	cmp	r3, #0
    1c70:	d029      	beq.n	1cc6 <xTaskIncrementTick+0xaa>
						pxTCB = ( TCB_t * ) listGET_OWNER_OF_HEAD_ENTRY( pxDelayedTaskList );
    1c72:	4b27      	ldr	r3, [pc, #156]	; (1d10 <xTaskIncrementTick+0xf4>)
    1c74:	681b      	ldr	r3, [r3, #0]
    1c76:	68db      	ldr	r3, [r3, #12]
    1c78:	68dd      	ldr	r5, [r3, #12]
						xItemValue = listGET_LIST_ITEM_VALUE( &( pxTCB->xGenericListItem ) );
    1c7a:	686b      	ldr	r3, [r5, #4]
						if( xConstTickCount < xItemValue )
    1c7c:	429e      	cmp	r6, r3
    1c7e:	d332      	bcc.n	1ce6 <xTaskIncrementTick+0xca>
						( void ) uxListRemove( &( pxTCB->xGenericListItem ) );
    1c80:	1d2b      	adds	r3, r5, #4
    1c82:	9301      	str	r3, [sp, #4]
    1c84:	0018      	movs	r0, r3
    1c86:	4b27      	ldr	r3, [pc, #156]	; (1d24 <xTaskIncrementTick+0x108>)
    1c88:	4798      	blx	r3
						if( listLIST_ITEM_CONTAINER( &( pxTCB->xEventListItem ) ) != NULL )
    1c8a:	6aab      	ldr	r3, [r5, #40]	; 0x28
    1c8c:	2b00      	cmp	r3, #0
    1c8e:	d003      	beq.n	1c98 <xTaskIncrementTick+0x7c>
							( void ) uxListRemove( &( pxTCB->xEventListItem ) );
    1c90:	0028      	movs	r0, r5
    1c92:	3018      	adds	r0, #24
    1c94:	4b23      	ldr	r3, [pc, #140]	; (1d24 <xTaskIncrementTick+0x108>)
    1c96:	4798      	blx	r3
						prvAddTaskToReadyList( pxTCB );
    1c98:	6aeb      	ldr	r3, [r5, #44]	; 0x2c
    1c9a:	4a23      	ldr	r2, [pc, #140]	; (1d28 <xTaskIncrementTick+0x10c>)
    1c9c:	6812      	ldr	r2, [r2, #0]
    1c9e:	4293      	cmp	r3, r2
    1ca0:	d901      	bls.n	1ca6 <xTaskIncrementTick+0x8a>
    1ca2:	4a21      	ldr	r2, [pc, #132]	; (1d28 <xTaskIncrementTick+0x10c>)
    1ca4:	6013      	str	r3, [r2, #0]
    1ca6:	0098      	lsls	r0, r3, #2
    1ca8:	18c0      	adds	r0, r0, r3
    1caa:	0080      	lsls	r0, r0, #2
    1cac:	4b1f      	ldr	r3, [pc, #124]	; (1d2c <xTaskIncrementTick+0x110>)
    1cae:	1818      	adds	r0, r3, r0
    1cb0:	9901      	ldr	r1, [sp, #4]
    1cb2:	4b1f      	ldr	r3, [pc, #124]	; (1d30 <xTaskIncrementTick+0x114>)
    1cb4:	4798      	blx	r3
							if( pxTCB->uxPriority >= pxCurrentTCB->uxPriority )
    1cb6:	4b1f      	ldr	r3, [pc, #124]	; (1d34 <xTaskIncrementTick+0x118>)
    1cb8:	681b      	ldr	r3, [r3, #0]
    1cba:	6aea      	ldr	r2, [r5, #44]	; 0x2c
    1cbc:	6adb      	ldr	r3, [r3, #44]	; 0x2c
    1cbe:	429a      	cmp	r2, r3
    1cc0:	d3d3      	bcc.n	1c6a <xTaskIncrementTick+0x4e>
								xSwitchRequired = pdTRUE;
    1cc2:	2401      	movs	r4, #1
    1cc4:	e7d1      	b.n	1c6a <xTaskIncrementTick+0x4e>
						xNextTaskUnblockTime = portMAX_DELAY;
    1cc6:	2201      	movs	r2, #1
    1cc8:	4252      	negs	r2, r2
    1cca:	4b15      	ldr	r3, [pc, #84]	; (1d20 <xTaskIncrementTick+0x104>)
    1ccc:	601a      	str	r2, [r3, #0]
			if( listCURRENT_LIST_LENGTH( &( pxReadyTasksLists[ pxCurrentTCB->uxPriority ] ) ) > ( UBaseType_t ) 1 )
    1cce:	4b19      	ldr	r3, [pc, #100]	; (1d34 <xTaskIncrementTick+0x118>)
    1cd0:	681b      	ldr	r3, [r3, #0]
    1cd2:	6ada      	ldr	r2, [r3, #44]	; 0x2c
    1cd4:	0093      	lsls	r3, r2, #2
    1cd6:	189b      	adds	r3, r3, r2
    1cd8:	009b      	lsls	r3, r3, #2
    1cda:	4a14      	ldr	r2, [pc, #80]	; (1d2c <xTaskIncrementTick+0x110>)
    1cdc:	589b      	ldr	r3, [r3, r2]
    1cde:	2b01      	cmp	r3, #1
    1ce0:	d909      	bls.n	1cf6 <xTaskIncrementTick+0xda>
				xSwitchRequired = pdTRUE;
    1ce2:	2401      	movs	r4, #1
    1ce4:	e007      	b.n	1cf6 <xTaskIncrementTick+0xda>
							xNextTaskUnblockTime = xItemValue;
    1ce6:	4a0e      	ldr	r2, [pc, #56]	; (1d20 <xTaskIncrementTick+0x104>)
    1ce8:	6013      	str	r3, [r2, #0]
							break;
    1cea:	e7f0      	b.n	1cce <xTaskIncrementTick+0xb2>
		++uxPendedTicks;
    1cec:	4a12      	ldr	r2, [pc, #72]	; (1d38 <xTaskIncrementTick+0x11c>)
    1cee:	6813      	ldr	r3, [r2, #0]
    1cf0:	3301      	adds	r3, #1
    1cf2:	6013      	str	r3, [r2, #0]
BaseType_t xSwitchRequired = pdFALSE;
    1cf4:	2400      	movs	r4, #0
		if( xYieldPending != pdFALSE )
    1cf6:	4b11      	ldr	r3, [pc, #68]	; (1d3c <xTaskIncrementTick+0x120>)
    1cf8:	681b      	ldr	r3, [r3, #0]
    1cfa:	2b00      	cmp	r3, #0
    1cfc:	d000      	beq.n	1d00 <xTaskIncrementTick+0xe4>
			xSwitchRequired = pdTRUE;
    1cfe:	2401      	movs	r4, #1
}
    1d00:	0020      	movs	r0, r4
    1d02:	b003      	add	sp, #12
    1d04:	bdf0      	pop	{r4, r5, r6, r7, pc}
    1d06:	46c0      	nop			; (mov r8, r8)
    1d08:	20003bec 	.word	0x20003bec
    1d0c:	20003c68 	.word	0x20003c68
    1d10:	20003b78 	.word	0x20003b78
    1d14:	20003b7c 	.word	0x20003b7c
    1d18:	20003c24 	.word	0x20003c24
    1d1c:	0000191d 	.word	0x0000191d
    1d20:	20000028 	.word	0x20000028
    1d24:	00001271 	.word	0x00001271
    1d28:	20003bf8 	.word	0x20003bf8
    1d2c:	20003b80 	.word	0x20003b80
    1d30:	0000122b 	.word	0x0000122b
    1d34:	20003b74 	.word	0x20003b74
    1d38:	20003be8 	.word	0x20003be8
    1d3c:	20003c6c 	.word	0x20003c6c

00001d40 <xTaskResumeAll>:
{
    1d40:	b5f8      	push	{r3, r4, r5, r6, r7, lr}
	configASSERT( uxSchedulerSuspended );
    1d42:	4b31      	ldr	r3, [pc, #196]	; (1e08 <xTaskResumeAll+0xc8>)
    1d44:	681b      	ldr	r3, [r3, #0]
    1d46:	2b00      	cmp	r3, #0
    1d48:	d101      	bne.n	1d4e <xTaskResumeAll+0xe>
    1d4a:	b672      	cpsid	i
    1d4c:	e7fe      	b.n	1d4c <xTaskResumeAll+0xc>
	taskENTER_CRITICAL();
    1d4e:	4b2f      	ldr	r3, [pc, #188]	; (1e0c <xTaskResumeAll+0xcc>)
    1d50:	4798      	blx	r3
		--uxSchedulerSuspended;
    1d52:	4b2d      	ldr	r3, [pc, #180]	; (1e08 <xTaskResumeAll+0xc8>)
    1d54:	681a      	ldr	r2, [r3, #0]
    1d56:	3a01      	subs	r2, #1
    1d58:	601a      	str	r2, [r3, #0]
		if( uxSchedulerSuspended == ( UBaseType_t ) pdFALSE )
    1d5a:	681b      	ldr	r3, [r3, #0]
BaseType_t xAlreadyYielded = pdFALSE;
    1d5c:	2400      	movs	r4, #0
		if( uxSchedulerSuspended == ( UBaseType_t ) pdFALSE )
    1d5e:	2b00      	cmp	r3, #0
    1d60:	d103      	bne.n	1d6a <xTaskResumeAll+0x2a>
			if( uxCurrentNumberOfTasks > ( UBaseType_t ) 0U )
    1d62:	4b2b      	ldr	r3, [pc, #172]	; (1e10 <xTaskResumeAll+0xd0>)
    1d64:	681b      	ldr	r3, [r3, #0]
    1d66:	2b00      	cmp	r3, #0
    1d68:	d12a      	bne.n	1dc0 <xTaskResumeAll+0x80>
	taskEXIT_CRITICAL();
    1d6a:	4b2a      	ldr	r3, [pc, #168]	; (1e14 <xTaskResumeAll+0xd4>)
    1d6c:	4798      	blx	r3
}
    1d6e:	0020      	movs	r0, r4
    1d70:	bdf8      	pop	{r3, r4, r5, r6, r7, pc}
					prvAddTaskToReadyList( pxTCB );
    1d72:	0098      	lsls	r0, r3, #2
    1d74:	18c0      	adds	r0, r0, r3
    1d76:	0080      	lsls	r0, r0, #2
    1d78:	4b27      	ldr	r3, [pc, #156]	; (1e18 <xTaskResumeAll+0xd8>)
    1d7a:	1818      	adds	r0, r3, r0
    1d7c:	0029      	movs	r1, r5
    1d7e:	4b27      	ldr	r3, [pc, #156]	; (1e1c <xTaskResumeAll+0xdc>)
    1d80:	4798      	blx	r3
					if( pxTCB->uxPriority >= pxCurrentTCB->uxPriority )
    1d82:	4b27      	ldr	r3, [pc, #156]	; (1e20 <xTaskResumeAll+0xe0>)
    1d84:	681b      	ldr	r3, [r3, #0]
    1d86:	6afa      	ldr	r2, [r7, #44]	; 0x2c
    1d88:	6adb      	ldr	r3, [r3, #44]	; 0x2c
    1d8a:	429a      	cmp	r2, r3
    1d8c:	d214      	bcs.n	1db8 <xTaskResumeAll+0x78>
				while( listLIST_IS_EMPTY( &xPendingReadyList ) == pdFALSE )
    1d8e:	6833      	ldr	r3, [r6, #0]
    1d90:	2b00      	cmp	r3, #0
    1d92:	d018      	beq.n	1dc6 <xTaskResumeAll+0x86>
					pxTCB = ( TCB_t * ) listGET_OWNER_OF_HEAD_ENTRY( ( &xPendingReadyList ) );
    1d94:	68e3      	ldr	r3, [r4, #12]
    1d96:	68df      	ldr	r7, [r3, #12]
					( void ) uxListRemove( &( pxTCB->xEventListItem ) );
    1d98:	0038      	movs	r0, r7
    1d9a:	3018      	adds	r0, #24
    1d9c:	4b21      	ldr	r3, [pc, #132]	; (1e24 <xTaskResumeAll+0xe4>)
    1d9e:	4798      	blx	r3
					( void ) uxListRemove( &( pxTCB->xGenericListItem ) );
    1da0:	1d3d      	adds	r5, r7, #4
    1da2:	0028      	movs	r0, r5
    1da4:	4b1f      	ldr	r3, [pc, #124]	; (1e24 <xTaskResumeAll+0xe4>)
    1da6:	4798      	blx	r3
					prvAddTaskToReadyList( pxTCB );
    1da8:	6afb      	ldr	r3, [r7, #44]	; 0x2c
    1daa:	4a1f      	ldr	r2, [pc, #124]	; (1e28 <xTaskResumeAll+0xe8>)
    1dac:	6812      	ldr	r2, [r2, #0]
    1dae:	4293      	cmp	r3, r2
    1db0:	d9df      	bls.n	1d72 <xTaskResumeAll+0x32>
    1db2:	4a1d      	ldr	r2, [pc, #116]	; (1e28 <xTaskResumeAll+0xe8>)
    1db4:	6013      	str	r3, [r2, #0]
    1db6:	e7dc      	b.n	1d72 <xTaskResumeAll+0x32>
						xYieldPending = pdTRUE;
    1db8:	2201      	movs	r2, #1
    1dba:	4b1c      	ldr	r3, [pc, #112]	; (1e2c <xTaskResumeAll+0xec>)
    1dbc:	601a      	str	r2, [r3, #0]
    1dbe:	e7e6      	b.n	1d8e <xTaskResumeAll+0x4e>
				while( listLIST_IS_EMPTY( &xPendingReadyList ) == pdFALSE )
    1dc0:	4e1b      	ldr	r6, [pc, #108]	; (1e30 <xTaskResumeAll+0xf0>)
					pxTCB = ( TCB_t * ) listGET_OWNER_OF_HEAD_ENTRY( ( &xPendingReadyList ) );
    1dc2:	0034      	movs	r4, r6
    1dc4:	e7e3      	b.n	1d8e <xTaskResumeAll+0x4e>
				if( uxPendedTicks > ( UBaseType_t ) 0U )
    1dc6:	4b1b      	ldr	r3, [pc, #108]	; (1e34 <xTaskResumeAll+0xf4>)
    1dc8:	681b      	ldr	r3, [r3, #0]
    1dca:	2b00      	cmp	r3, #0
    1dcc:	d013      	beq.n	1df6 <xTaskResumeAll+0xb6>
					while( uxPendedTicks > ( UBaseType_t ) 0U )
    1dce:	4b19      	ldr	r3, [pc, #100]	; (1e34 <xTaskResumeAll+0xf4>)
    1dd0:	681b      	ldr	r3, [r3, #0]
    1dd2:	2b00      	cmp	r3, #0
    1dd4:	d00f      	beq.n	1df6 <xTaskResumeAll+0xb6>
						if( xTaskIncrementTick() != pdFALSE )
    1dd6:	4e18      	ldr	r6, [pc, #96]	; (1e38 <xTaskResumeAll+0xf8>)
							xYieldPending = pdTRUE;
    1dd8:	4d14      	ldr	r5, [pc, #80]	; (1e2c <xTaskResumeAll+0xec>)
						--uxPendedTicks;
    1dda:	4c16      	ldr	r4, [pc, #88]	; (1e34 <xTaskResumeAll+0xf4>)
    1ddc:	e005      	b.n	1dea <xTaskResumeAll+0xaa>
    1dde:	6823      	ldr	r3, [r4, #0]
    1de0:	3b01      	subs	r3, #1
    1de2:	6023      	str	r3, [r4, #0]
					while( uxPendedTicks > ( UBaseType_t ) 0U )
    1de4:	6823      	ldr	r3, [r4, #0]
    1de6:	2b00      	cmp	r3, #0
    1de8:	d005      	beq.n	1df6 <xTaskResumeAll+0xb6>
						if( xTaskIncrementTick() != pdFALSE )
    1dea:	47b0      	blx	r6
    1dec:	2800      	cmp	r0, #0
    1dee:	d0f6      	beq.n	1dde <xTaskResumeAll+0x9e>
							xYieldPending = pdTRUE;
    1df0:	2301      	movs	r3, #1
    1df2:	602b      	str	r3, [r5, #0]
    1df4:	e7f3      	b.n	1dde <xTaskResumeAll+0x9e>
				if( xYieldPending == pdTRUE )
    1df6:	4b0d      	ldr	r3, [pc, #52]	; (1e2c <xTaskResumeAll+0xec>)
    1df8:	681b      	ldr	r3, [r3, #0]
BaseType_t xAlreadyYielded = pdFALSE;
    1dfa:	2400      	movs	r4, #0
				if( xYieldPending == pdTRUE )
    1dfc:	2b01      	cmp	r3, #1
    1dfe:	d1b4      	bne.n	1d6a <xTaskResumeAll+0x2a>
					taskYIELD_IF_USING_PREEMPTION();
    1e00:	4b0e      	ldr	r3, [pc, #56]	; (1e3c <xTaskResumeAll+0xfc>)
    1e02:	4798      	blx	r3
						xAlreadyYielded = pdTRUE;
    1e04:	3401      	adds	r4, #1
    1e06:	e7b0      	b.n	1d6a <xTaskResumeAll+0x2a>
    1e08:	20003bec 	.word	0x20003bec
    1e0c:	00001079 	.word	0x00001079
    1e10:	20003be4 	.word	0x20003be4
    1e14:	00001091 	.word	0x00001091
    1e18:	20003b80 	.word	0x20003b80
    1e1c:	0000122b 	.word	0x0000122b
    1e20:	20003b74 	.word	0x20003b74
    1e24:	00001271 	.word	0x00001271
    1e28:	20003bf8 	.word	0x20003bf8
    1e2c:	20003c6c 	.word	0x20003c6c
    1e30:	20003c28 	.word	0x20003c28
    1e34:	20003be8 	.word	0x20003be8
    1e38:	00001c1d 	.word	0x00001c1d
    1e3c:	00001061 	.word	0x00001061

00001e40 <vTaskDelay>:
	{
    1e40:	b510      	push	{r4, lr}
    1e42:	1e04      	subs	r4, r0, #0
		if( xTicksToDelay > ( TickType_t ) 0U )
    1e44:	d016      	beq.n	1e74 <vTaskDelay+0x34>
			configASSERT( uxSchedulerSuspended == 0 );
    1e46:	4b0d      	ldr	r3, [pc, #52]	; (1e7c <vTaskDelay+0x3c>)
    1e48:	681b      	ldr	r3, [r3, #0]
    1e4a:	2b00      	cmp	r3, #0
    1e4c:	d001      	beq.n	1e52 <vTaskDelay+0x12>
    1e4e:	b672      	cpsid	i
    1e50:	e7fe      	b.n	1e50 <vTaskDelay+0x10>
			vTaskSuspendAll();
    1e52:	4b0b      	ldr	r3, [pc, #44]	; (1e80 <vTaskDelay+0x40>)
    1e54:	4798      	blx	r3
				xTimeToWake = xTickCount + xTicksToDelay;
    1e56:	4b0b      	ldr	r3, [pc, #44]	; (1e84 <vTaskDelay+0x44>)
    1e58:	681b      	ldr	r3, [r3, #0]
    1e5a:	18e4      	adds	r4, r4, r3
				if( uxListRemove( &( pxCurrentTCB->xGenericListItem ) ) == ( UBaseType_t ) 0 )
    1e5c:	4b0a      	ldr	r3, [pc, #40]	; (1e88 <vTaskDelay+0x48>)
    1e5e:	6818      	ldr	r0, [r3, #0]
    1e60:	3004      	adds	r0, #4
    1e62:	4b0a      	ldr	r3, [pc, #40]	; (1e8c <vTaskDelay+0x4c>)
    1e64:	4798      	blx	r3
				prvAddCurrentTaskToDelayedList( xTimeToWake );
    1e66:	0020      	movs	r0, r4
    1e68:	4b09      	ldr	r3, [pc, #36]	; (1e90 <vTaskDelay+0x50>)
    1e6a:	4798      	blx	r3
			xAlreadyYielded = xTaskResumeAll();
    1e6c:	4b09      	ldr	r3, [pc, #36]	; (1e94 <vTaskDelay+0x54>)
    1e6e:	4798      	blx	r3
		if( xAlreadyYielded == pdFALSE )
    1e70:	2800      	cmp	r0, #0
    1e72:	d101      	bne.n	1e78 <vTaskDelay+0x38>
			portYIELD_WITHIN_API();
    1e74:	4b08      	ldr	r3, [pc, #32]	; (1e98 <vTaskDelay+0x58>)
    1e76:	4798      	blx	r3
	}
    1e78:	bd10      	pop	{r4, pc}
    1e7a:	46c0      	nop			; (mov r8, r8)
    1e7c:	20003bec 	.word	0x20003bec
    1e80:	00001bed 	.word	0x00001bed
    1e84:	20003c68 	.word	0x20003c68
    1e88:	20003b74 	.word	0x20003b74
    1e8c:	00001271 	.word	0x00001271
    1e90:	00001949 	.word	0x00001949
    1e94:	00001d41 	.word	0x00001d41
    1e98:	00001061 	.word	0x00001061

00001e9c <prvIdleTask>:
{
    1e9c:	b5f8      	push	{r3, r4, r5, r6, r7, lr}
    1e9e:	46ce      	mov	lr, r9
    1ea0:	4647      	mov	r7, r8
    1ea2:	b580      	push	{r7, lr}
			vTaskSuspendAll();
    1ea4:	4b16      	ldr	r3, [pc, #88]	; (1f00 <prvIdleTask+0x64>)
    1ea6:	4698      	mov	r8, r3
				xListIsEmpty = listLIST_IS_EMPTY( &xTasksWaitingTermination );
    1ea8:	4f16      	ldr	r7, [pc, #88]	; (1f04 <prvIdleTask+0x68>)
			( void ) xTaskResumeAll();
    1eaa:	4e17      	ldr	r6, [pc, #92]	; (1f08 <prvIdleTask+0x6c>)
    1eac:	e026      	b.n	1efc <prvIdleTask+0x60>
			if( listCURRENT_LIST_LENGTH( &( pxReadyTasksLists[ tskIDLE_PRIORITY ] ) ) > ( UBaseType_t ) 1 )
    1eae:	4b17      	ldr	r3, [pc, #92]	; (1f0c <prvIdleTask+0x70>)
    1eb0:	681b      	ldr	r3, [r3, #0]
    1eb2:	2b01      	cmp	r3, #1
    1eb4:	d820      	bhi.n	1ef8 <prvIdleTask+0x5c>
		while( uxTasksDeleted > ( UBaseType_t ) 0U )
    1eb6:	682b      	ldr	r3, [r5, #0]
    1eb8:	2b00      	cmp	r3, #0
    1eba:	d0f8      	beq.n	1eae <prvIdleTask+0x12>
			vTaskSuspendAll();
    1ebc:	47c0      	blx	r8
				xListIsEmpty = listLIST_IS_EMPTY( &xTasksWaitingTermination );
    1ebe:	683c      	ldr	r4, [r7, #0]
			( void ) xTaskResumeAll();
    1ec0:	47b0      	blx	r6
			if( xListIsEmpty == pdFALSE )
    1ec2:	2c00      	cmp	r4, #0
    1ec4:	d0f7      	beq.n	1eb6 <prvIdleTask+0x1a>
				taskENTER_CRITICAL();
    1ec6:	4b12      	ldr	r3, [pc, #72]	; (1f10 <prvIdleTask+0x74>)
    1ec8:	4798      	blx	r3
					pxTCB = ( TCB_t * ) listGET_OWNER_OF_HEAD_ENTRY( ( &xTasksWaitingTermination ) );
    1eca:	4b0e      	ldr	r3, [pc, #56]	; (1f04 <prvIdleTask+0x68>)
    1ecc:	68db      	ldr	r3, [r3, #12]
    1ece:	68dc      	ldr	r4, [r3, #12]
					( void ) uxListRemove( &( pxTCB->xGenericListItem ) );
    1ed0:	1d20      	adds	r0, r4, #4
    1ed2:	4b10      	ldr	r3, [pc, #64]	; (1f14 <prvIdleTask+0x78>)
    1ed4:	4798      	blx	r3
					--uxCurrentNumberOfTasks;
    1ed6:	4a10      	ldr	r2, [pc, #64]	; (1f18 <prvIdleTask+0x7c>)
    1ed8:	6813      	ldr	r3, [r2, #0]
    1eda:	3b01      	subs	r3, #1
    1edc:	6013      	str	r3, [r2, #0]
					--uxTasksDeleted;
    1ede:	4a0f      	ldr	r2, [pc, #60]	; (1f1c <prvIdleTask+0x80>)
    1ee0:	6813      	ldr	r3, [r2, #0]
    1ee2:	3b01      	subs	r3, #1
    1ee4:	6013      	str	r3, [r2, #0]
				taskEXIT_CRITICAL();
    1ee6:	4b0e      	ldr	r3, [pc, #56]	; (1f20 <prvIdleTask+0x84>)
    1ee8:	4798      	blx	r3
		vPortFreeAligned( pxTCB->pxStack );
    1eea:	6b20      	ldr	r0, [r4, #48]	; 0x30
    1eec:	4b0d      	ldr	r3, [pc, #52]	; (1f24 <prvIdleTask+0x88>)
    1eee:	4699      	mov	r9, r3
    1ef0:	4798      	blx	r3
		vPortFree( pxTCB );
    1ef2:	0020      	movs	r0, r4
    1ef4:	47c8      	blx	r9
    1ef6:	e7de      	b.n	1eb6 <prvIdleTask+0x1a>
				taskYIELD();
    1ef8:	4b0b      	ldr	r3, [pc, #44]	; (1f28 <prvIdleTask+0x8c>)
    1efa:	4798      	blx	r3
		while( uxTasksDeleted > ( UBaseType_t ) 0U )
    1efc:	4d07      	ldr	r5, [pc, #28]	; (1f1c <prvIdleTask+0x80>)
    1efe:	e7da      	b.n	1eb6 <prvIdleTask+0x1a>
    1f00:	00001bed 	.word	0x00001bed
    1f04:	20003c54 	.word	0x20003c54
    1f08:	00001d41 	.word	0x00001d41
    1f0c:	20003b80 	.word	0x20003b80
    1f10:	00001079 	.word	0x00001079
    1f14:	00001271 	.word	0x00001271
    1f18:	20003be4 	.word	0x20003be4
    1f1c:	20003bf4 	.word	0x20003bf4
    1f20:	00001091 	.word	0x00001091
    1f24:	00001205 	.word	0x00001205
    1f28:	00001061 	.word	0x00001061

00001f2c <vTaskSwitchContext>:
{
    1f2c:	b510      	push	{r4, lr}
	if( uxSchedulerSuspended != ( UBaseType_t ) pdFALSE )
    1f2e:	4b26      	ldr	r3, [pc, #152]	; (1fc8 <vTaskSwitchContext+0x9c>)
    1f30:	681b      	ldr	r3, [r3, #0]
    1f32:	2b00      	cmp	r3, #0
    1f34:	d121      	bne.n	1f7a <vTaskSwitchContext+0x4e>
		xYieldPending = pdFALSE;
    1f36:	2200      	movs	r2, #0
    1f38:	4b24      	ldr	r3, [pc, #144]	; (1fcc <vTaskSwitchContext+0xa0>)
    1f3a:	601a      	str	r2, [r3, #0]
		taskSELECT_HIGHEST_PRIORITY_TASK();
    1f3c:	4b24      	ldr	r3, [pc, #144]	; (1fd0 <vTaskSwitchContext+0xa4>)
    1f3e:	681a      	ldr	r2, [r3, #0]
    1f40:	0093      	lsls	r3, r2, #2
    1f42:	189b      	adds	r3, r3, r2
    1f44:	009b      	lsls	r3, r3, #2
    1f46:	4a23      	ldr	r2, [pc, #140]	; (1fd4 <vTaskSwitchContext+0xa8>)
    1f48:	589b      	ldr	r3, [r3, r2]
    1f4a:	2b00      	cmp	r3, #0
    1f4c:	d119      	bne.n	1f82 <vTaskSwitchContext+0x56>
    1f4e:	4b20      	ldr	r3, [pc, #128]	; (1fd0 <vTaskSwitchContext+0xa4>)
    1f50:	681b      	ldr	r3, [r3, #0]
    1f52:	2b00      	cmp	r3, #0
    1f54:	d00f      	beq.n	1f76 <vTaskSwitchContext+0x4a>
    1f56:	4a1e      	ldr	r2, [pc, #120]	; (1fd0 <vTaskSwitchContext+0xa4>)
    1f58:	4c1e      	ldr	r4, [pc, #120]	; (1fd4 <vTaskSwitchContext+0xa8>)
    1f5a:	0010      	movs	r0, r2
    1f5c:	6813      	ldr	r3, [r2, #0]
    1f5e:	3b01      	subs	r3, #1
    1f60:	6013      	str	r3, [r2, #0]
    1f62:	6811      	ldr	r1, [r2, #0]
    1f64:	008b      	lsls	r3, r1, #2
    1f66:	185b      	adds	r3, r3, r1
    1f68:	009b      	lsls	r3, r3, #2
    1f6a:	591b      	ldr	r3, [r3, r4]
    1f6c:	2b00      	cmp	r3, #0
    1f6e:	d108      	bne.n	1f82 <vTaskSwitchContext+0x56>
    1f70:	6803      	ldr	r3, [r0, #0]
    1f72:	2b00      	cmp	r3, #0
    1f74:	d1f2      	bne.n	1f5c <vTaskSwitchContext+0x30>
    1f76:	b672      	cpsid	i
    1f78:	e7fe      	b.n	1f78 <vTaskSwitchContext+0x4c>
		xYieldPending = pdTRUE;
    1f7a:	2201      	movs	r2, #1
    1f7c:	4b13      	ldr	r3, [pc, #76]	; (1fcc <vTaskSwitchContext+0xa0>)
    1f7e:	601a      	str	r2, [r3, #0]
}
    1f80:	bd10      	pop	{r4, pc}
		taskSELECT_HIGHEST_PRIORITY_TASK();
    1f82:	4b13      	ldr	r3, [pc, #76]	; (1fd0 <vTaskSwitchContext+0xa4>)
    1f84:	681a      	ldr	r2, [r3, #0]
    1f86:	4813      	ldr	r0, [pc, #76]	; (1fd4 <vTaskSwitchContext+0xa8>)
    1f88:	0093      	lsls	r3, r2, #2
    1f8a:	1899      	adds	r1, r3, r2
    1f8c:	0089      	lsls	r1, r1, #2
    1f8e:	1841      	adds	r1, r0, r1
    1f90:	684c      	ldr	r4, [r1, #4]
    1f92:	6864      	ldr	r4, [r4, #4]
    1f94:	604c      	str	r4, [r1, #4]
    1f96:	189b      	adds	r3, r3, r2
    1f98:	009b      	lsls	r3, r3, #2
    1f9a:	3308      	adds	r3, #8
    1f9c:	18c3      	adds	r3, r0, r3
    1f9e:	429c      	cmp	r4, r3
    1fa0:	d009      	beq.n	1fb6 <vTaskSwitchContext+0x8a>
    1fa2:	0093      	lsls	r3, r2, #2
    1fa4:	189a      	adds	r2, r3, r2
    1fa6:	0092      	lsls	r2, r2, #2
    1fa8:	4b0a      	ldr	r3, [pc, #40]	; (1fd4 <vTaskSwitchContext+0xa8>)
    1faa:	189a      	adds	r2, r3, r2
    1fac:	6853      	ldr	r3, [r2, #4]
    1fae:	68da      	ldr	r2, [r3, #12]
    1fb0:	4b09      	ldr	r3, [pc, #36]	; (1fd8 <vTaskSwitchContext+0xac>)
    1fb2:	601a      	str	r2, [r3, #0]
}
    1fb4:	e7e4      	b.n	1f80 <vTaskSwitchContext+0x54>
		taskSELECT_HIGHEST_PRIORITY_TASK();
    1fb6:	6860      	ldr	r0, [r4, #4]
    1fb8:	0093      	lsls	r3, r2, #2
    1fba:	189b      	adds	r3, r3, r2
    1fbc:	009b      	lsls	r3, r3, #2
    1fbe:	4905      	ldr	r1, [pc, #20]	; (1fd4 <vTaskSwitchContext+0xa8>)
    1fc0:	18cb      	adds	r3, r1, r3
    1fc2:	6058      	str	r0, [r3, #4]
    1fc4:	e7ed      	b.n	1fa2 <vTaskSwitchContext+0x76>
    1fc6:	46c0      	nop			; (mov r8, r8)
    1fc8:	20003bec 	.word	0x20003bec
    1fcc:	20003c6c 	.word	0x20003c6c
    1fd0:	20003bf8 	.word	0x20003bf8
    1fd4:	20003b80 	.word	0x20003b80
    1fd8:	20003b74 	.word	0x20003b74

00001fdc <vTaskPlaceOnEventList>:
{
    1fdc:	b570      	push	{r4, r5, r6, lr}
    1fde:	000c      	movs	r4, r1
	configASSERT( pxEventList );
    1fe0:	2800      	cmp	r0, #0
    1fe2:	d010      	beq.n	2006 <STACK_SIZE+0x6>
	vListInsert( pxEventList, &( pxCurrentTCB->xEventListItem ) );
    1fe4:	4d0c      	ldr	r5, [pc, #48]	; (2018 <STACK_SIZE+0x18>)
    1fe6:	6829      	ldr	r1, [r5, #0]
    1fe8:	3118      	adds	r1, #24
    1fea:	4b0c      	ldr	r3, [pc, #48]	; (201c <STACK_SIZE+0x1c>)
    1fec:	4798      	blx	r3
	if( uxListRemove( &( pxCurrentTCB->xGenericListItem ) ) == ( UBaseType_t ) 0 )
    1fee:	6828      	ldr	r0, [r5, #0]
    1ff0:	3004      	adds	r0, #4
    1ff2:	4b0b      	ldr	r3, [pc, #44]	; (2020 <STACK_SIZE+0x20>)
    1ff4:	4798      	blx	r3
		if( xTicksToWait == portMAX_DELAY )
    1ff6:	1c63      	adds	r3, r4, #1
    1ff8:	d007      	beq.n	200a <STACK_SIZE+0xa>
			xTimeToWake = xTickCount + xTicksToWait;
    1ffa:	4b0a      	ldr	r3, [pc, #40]	; (2024 <STACK_SIZE+0x24>)
    1ffc:	6818      	ldr	r0, [r3, #0]
    1ffe:	1820      	adds	r0, r4, r0
			prvAddCurrentTaskToDelayedList( xTimeToWake );
    2000:	4b09      	ldr	r3, [pc, #36]	; (2028 <STACK_SIZE+0x28>)
    2002:	4798      	blx	r3
}
    2004:	bd70      	pop	{r4, r5, r6, pc}
	configASSERT( pxEventList );
    2006:	b672      	cpsid	i
    2008:	e7fe      	b.n	2008 <STACK_SIZE+0x8>
			vListInsertEnd( &xSuspendedTaskList, &( pxCurrentTCB->xGenericListItem ) );
    200a:	4b03      	ldr	r3, [pc, #12]	; (2018 <STACK_SIZE+0x18>)
    200c:	6819      	ldr	r1, [r3, #0]
    200e:	3104      	adds	r1, #4
    2010:	4806      	ldr	r0, [pc, #24]	; (202c <STACK_SIZE+0x2c>)
    2012:	4b07      	ldr	r3, [pc, #28]	; (2030 <STACK_SIZE+0x30>)
    2014:	4798      	blx	r3
    2016:	e7f5      	b.n	2004 <STACK_SIZE+0x4>
    2018:	20003b74 	.word	0x20003b74
    201c:	00001243 	.word	0x00001243
    2020:	00001271 	.word	0x00001271
    2024:	20003c68 	.word	0x20003c68
    2028:	00001949 	.word	0x00001949
    202c:	20003c40 	.word	0x20003c40
    2030:	0000122b 	.word	0x0000122b

00002034 <vTaskPlaceOnEventListRestricted>:
	{
    2034:	b570      	push	{r4, r5, r6, lr}
    2036:	000d      	movs	r5, r1
		configASSERT( pxEventList );
    2038:	2800      	cmp	r0, #0
    203a:	d101      	bne.n	2040 <vTaskPlaceOnEventListRestricted+0xc>
    203c:	b672      	cpsid	i
    203e:	e7fe      	b.n	203e <vTaskPlaceOnEventListRestricted+0xa>
		vListInsertEnd( pxEventList, &( pxCurrentTCB->xEventListItem ) );
    2040:	4c07      	ldr	r4, [pc, #28]	; (2060 <vTaskPlaceOnEventListRestricted+0x2c>)
    2042:	6821      	ldr	r1, [r4, #0]
    2044:	3118      	adds	r1, #24
    2046:	4b07      	ldr	r3, [pc, #28]	; (2064 <vTaskPlaceOnEventListRestricted+0x30>)
    2048:	4798      	blx	r3
		if( uxListRemove( &( pxCurrentTCB->xGenericListItem ) ) == ( UBaseType_t ) 0 )
    204a:	6820      	ldr	r0, [r4, #0]
    204c:	3004      	adds	r0, #4
    204e:	4b06      	ldr	r3, [pc, #24]	; (2068 <vTaskPlaceOnEventListRestricted+0x34>)
    2050:	4798      	blx	r3
		xTimeToWake = xTickCount + xTicksToWait;
    2052:	4b06      	ldr	r3, [pc, #24]	; (206c <vTaskPlaceOnEventListRestricted+0x38>)
    2054:	6818      	ldr	r0, [r3, #0]
    2056:	1940      	adds	r0, r0, r5
		prvAddCurrentTaskToDelayedList( xTimeToWake );
    2058:	4b05      	ldr	r3, [pc, #20]	; (2070 <vTaskPlaceOnEventListRestricted+0x3c>)
    205a:	4798      	blx	r3
	}
    205c:	bd70      	pop	{r4, r5, r6, pc}
    205e:	46c0      	nop			; (mov r8, r8)
    2060:	20003b74 	.word	0x20003b74
    2064:	0000122b 	.word	0x0000122b
    2068:	00001271 	.word	0x00001271
    206c:	20003c68 	.word	0x20003c68
    2070:	00001949 	.word	0x00001949

00002074 <xTaskRemoveFromEventList>:
{
    2074:	b570      	push	{r4, r5, r6, lr}
	pxUnblockedTCB = ( TCB_t * ) listGET_OWNER_OF_HEAD_ENTRY( pxEventList );
    2076:	68c3      	ldr	r3, [r0, #12]
    2078:	68dc      	ldr	r4, [r3, #12]
	configASSERT( pxUnblockedTCB );
    207a:	2c00      	cmp	r4, #0
    207c:	d027      	beq.n	20ce <xTaskRemoveFromEventList+0x5a>
	( void ) uxListRemove( &( pxUnblockedTCB->xEventListItem ) );
    207e:	0025      	movs	r5, r4
    2080:	3518      	adds	r5, #24
    2082:	0028      	movs	r0, r5
    2084:	4b15      	ldr	r3, [pc, #84]	; (20dc <xTaskRemoveFromEventList+0x68>)
    2086:	4798      	blx	r3
	if( uxSchedulerSuspended == ( UBaseType_t ) pdFALSE )
    2088:	4b15      	ldr	r3, [pc, #84]	; (20e0 <xTaskRemoveFromEventList+0x6c>)
    208a:	681b      	ldr	r3, [r3, #0]
    208c:	2b00      	cmp	r3, #0
    208e:	d120      	bne.n	20d2 <xTaskRemoveFromEventList+0x5e>
		( void ) uxListRemove( &( pxUnblockedTCB->xGenericListItem ) );
    2090:	1d25      	adds	r5, r4, #4
    2092:	0028      	movs	r0, r5
    2094:	4b11      	ldr	r3, [pc, #68]	; (20dc <xTaskRemoveFromEventList+0x68>)
    2096:	4798      	blx	r3
		prvAddTaskToReadyList( pxUnblockedTCB );
    2098:	6ae3      	ldr	r3, [r4, #44]	; 0x2c
    209a:	4a12      	ldr	r2, [pc, #72]	; (20e4 <xTaskRemoveFromEventList+0x70>)
    209c:	6812      	ldr	r2, [r2, #0]
    209e:	4293      	cmp	r3, r2
    20a0:	d901      	bls.n	20a6 <xTaskRemoveFromEventList+0x32>
    20a2:	4a10      	ldr	r2, [pc, #64]	; (20e4 <xTaskRemoveFromEventList+0x70>)
    20a4:	6013      	str	r3, [r2, #0]
    20a6:	0098      	lsls	r0, r3, #2
    20a8:	18c0      	adds	r0, r0, r3
    20aa:	0080      	lsls	r0, r0, #2
    20ac:	4b0e      	ldr	r3, [pc, #56]	; (20e8 <xTaskRemoveFromEventList+0x74>)
    20ae:	1818      	adds	r0, r3, r0
    20b0:	0029      	movs	r1, r5
    20b2:	4b0e      	ldr	r3, [pc, #56]	; (20ec <xTaskRemoveFromEventList+0x78>)
    20b4:	4798      	blx	r3
	if( pxUnblockedTCB->uxPriority > pxCurrentTCB->uxPriority )
    20b6:	4b0e      	ldr	r3, [pc, #56]	; (20f0 <xTaskRemoveFromEventList+0x7c>)
    20b8:	681b      	ldr	r3, [r3, #0]
    20ba:	6ae2      	ldr	r2, [r4, #44]	; 0x2c
    20bc:	6adb      	ldr	r3, [r3, #44]	; 0x2c
		xReturn = pdFALSE;
    20be:	2000      	movs	r0, #0
	if( pxUnblockedTCB->uxPriority > pxCurrentTCB->uxPriority )
    20c0:	429a      	cmp	r2, r3
    20c2:	d903      	bls.n	20cc <xTaskRemoveFromEventList+0x58>
		xYieldPending = pdTRUE;
    20c4:	2201      	movs	r2, #1
    20c6:	4b0b      	ldr	r3, [pc, #44]	; (20f4 <xTaskRemoveFromEventList+0x80>)
    20c8:	601a      	str	r2, [r3, #0]
		xReturn = pdTRUE;
    20ca:	3001      	adds	r0, #1
}
    20cc:	bd70      	pop	{r4, r5, r6, pc}
	configASSERT( pxUnblockedTCB );
    20ce:	b672      	cpsid	i
    20d0:	e7fe      	b.n	20d0 <xTaskRemoveFromEventList+0x5c>
		vListInsertEnd( &( xPendingReadyList ), &( pxUnblockedTCB->xEventListItem ) );
    20d2:	0029      	movs	r1, r5
    20d4:	4808      	ldr	r0, [pc, #32]	; (20f8 <xTaskRemoveFromEventList+0x84>)
    20d6:	4b05      	ldr	r3, [pc, #20]	; (20ec <xTaskRemoveFromEventList+0x78>)
    20d8:	4798      	blx	r3
    20da:	e7ec      	b.n	20b6 <xTaskRemoveFromEventList+0x42>
    20dc:	00001271 	.word	0x00001271
    20e0:	20003bec 	.word	0x20003bec
    20e4:	20003bf8 	.word	0x20003bf8
    20e8:	20003b80 	.word	0x20003b80
    20ec:	0000122b 	.word	0x0000122b
    20f0:	20003b74 	.word	0x20003b74
    20f4:	20003c6c 	.word	0x20003c6c
    20f8:	20003c28 	.word	0x20003c28

000020fc <vTaskSetTimeOutState>:
	configASSERT( pxTimeOut );
    20fc:	2800      	cmp	r0, #0
    20fe:	d006      	beq.n	210e <vTaskSetTimeOutState+0x12>
	pxTimeOut->xOverflowCount = xNumOfOverflows;
    2100:	4b04      	ldr	r3, [pc, #16]	; (2114 <vTaskSetTimeOutState+0x18>)
    2102:	681b      	ldr	r3, [r3, #0]
    2104:	6003      	str	r3, [r0, #0]
	pxTimeOut->xTimeOnEntering = xTickCount;
    2106:	4b04      	ldr	r3, [pc, #16]	; (2118 <vTaskSetTimeOutState+0x1c>)
    2108:	681b      	ldr	r3, [r3, #0]
    210a:	6043      	str	r3, [r0, #4]
}
    210c:	4770      	bx	lr
	configASSERT( pxTimeOut );
    210e:	b672      	cpsid	i
    2110:	e7fe      	b.n	2110 <vTaskSetTimeOutState+0x14>
    2112:	46c0      	nop			; (mov r8, r8)
    2114:	20003c24 	.word	0x20003c24
    2118:	20003c68 	.word	0x20003c68

0000211c <xTaskCheckForTimeOut>:
{
    211c:	b570      	push	{r4, r5, r6, lr}
    211e:	0004      	movs	r4, r0
    2120:	000e      	movs	r6, r1
	configASSERT( pxTimeOut );
    2122:	2800      	cmp	r0, #0
    2124:	d01a      	beq.n	215c <xTaskCheckForTimeOut+0x40>
	configASSERT( pxTicksToWait );
    2126:	2900      	cmp	r1, #0
    2128:	d01a      	beq.n	2160 <xTaskCheckForTimeOut+0x44>
	taskENTER_CRITICAL();
    212a:	4b13      	ldr	r3, [pc, #76]	; (2178 <xTaskCheckForTimeOut+0x5c>)
    212c:	4798      	blx	r3
		const TickType_t xConstTickCount = xTickCount;
    212e:	4b13      	ldr	r3, [pc, #76]	; (217c <xTaskCheckForTimeOut+0x60>)
    2130:	681a      	ldr	r2, [r3, #0]
			if( *pxTicksToWait == portMAX_DELAY )
    2132:	6833      	ldr	r3, [r6, #0]
    2134:	1c59      	adds	r1, r3, #1
    2136:	d01d      	beq.n	2174 <xTaskCheckForTimeOut+0x58>
		if( ( xNumOfOverflows != pxTimeOut->xOverflowCount ) && ( xConstTickCount >= pxTimeOut->xTimeOnEntering ) ) /*lint !e525 Indentation preferred as is to make code within pre-processor directives clearer. */
    2138:	4911      	ldr	r1, [pc, #68]	; (2180 <xTaskCheckForTimeOut+0x64>)
    213a:	6809      	ldr	r1, [r1, #0]
    213c:	6820      	ldr	r0, [r4, #0]
    213e:	4288      	cmp	r0, r1
    2140:	d003      	beq.n	214a <xTaskCheckForTimeOut+0x2e>
			xReturn = pdTRUE;
    2142:	2501      	movs	r5, #1
		if( ( xNumOfOverflows != pxTimeOut->xOverflowCount ) && ( xConstTickCount >= pxTimeOut->xTimeOnEntering ) ) /*lint !e525 Indentation preferred as is to make code within pre-processor directives clearer. */
    2144:	6861      	ldr	r1, [r4, #4]
    2146:	428a      	cmp	r2, r1
    2148:	d204      	bcs.n	2154 <xTaskCheckForTimeOut+0x38>
		else if( ( xConstTickCount - pxTimeOut->xTimeOnEntering ) < *pxTicksToWait )
    214a:	6861      	ldr	r1, [r4, #4]
    214c:	1a50      	subs	r0, r2, r1
			xReturn = pdTRUE;
    214e:	2501      	movs	r5, #1
		else if( ( xConstTickCount - pxTimeOut->xTimeOnEntering ) < *pxTicksToWait )
    2150:	4283      	cmp	r3, r0
    2152:	d807      	bhi.n	2164 <xTaskCheckForTimeOut+0x48>
	taskEXIT_CRITICAL();
    2154:	4b0b      	ldr	r3, [pc, #44]	; (2184 <xTaskCheckForTimeOut+0x68>)
    2156:	4798      	blx	r3
}
    2158:	0028      	movs	r0, r5
    215a:	bd70      	pop	{r4, r5, r6, pc}
	configASSERT( pxTimeOut );
    215c:	b672      	cpsid	i
    215e:	e7fe      	b.n	215e <xTaskCheckForTimeOut+0x42>
	configASSERT( pxTicksToWait );
    2160:	b672      	cpsid	i
    2162:	e7fe      	b.n	2162 <xTaskCheckForTimeOut+0x46>
			*pxTicksToWait -= ( xConstTickCount -  pxTimeOut->xTimeOnEntering );
    2164:	1a9b      	subs	r3, r3, r2
    2166:	185b      	adds	r3, r3, r1
    2168:	6033      	str	r3, [r6, #0]
			vTaskSetTimeOutState( pxTimeOut );
    216a:	0020      	movs	r0, r4
    216c:	4b06      	ldr	r3, [pc, #24]	; (2188 <xTaskCheckForTimeOut+0x6c>)
    216e:	4798      	blx	r3
			xReturn = pdFALSE;
    2170:	2500      	movs	r5, #0
    2172:	e7ef      	b.n	2154 <xTaskCheckForTimeOut+0x38>
				xReturn = pdFALSE;
    2174:	2500      	movs	r5, #0
    2176:	e7ed      	b.n	2154 <xTaskCheckForTimeOut+0x38>
    2178:	00001079 	.word	0x00001079
    217c:	20003c68 	.word	0x20003c68
    2180:	20003c24 	.word	0x20003c24
    2184:	00001091 	.word	0x00001091
    2188:	000020fd 	.word	0x000020fd

0000218c <vTaskMissedYield>:
	xYieldPending = pdTRUE;
    218c:	2201      	movs	r2, #1
    218e:	4b01      	ldr	r3, [pc, #4]	; (2194 <vTaskMissedYield+0x8>)
    2190:	601a      	str	r2, [r3, #0]
}
    2192:	4770      	bx	lr
    2194:	20003c6c 	.word	0x20003c6c

00002198 <xTaskGetCurrentTaskHandle>:
	TaskHandle_t xReturn;

		/* A critical section is not required as this is not called from
		an interrupt and the current TCB will always be the same for any
		individual execution thread. */
		xReturn = pxCurrentTCB;
    2198:	4b01      	ldr	r3, [pc, #4]	; (21a0 <xTaskGetCurrentTaskHandle+0x8>)
    219a:	6818      	ldr	r0, [r3, #0]

		return xReturn;
	}
    219c:	4770      	bx	lr
    219e:	46c0      	nop			; (mov r8, r8)
    21a0:	20003b74 	.word	0x20003b74

000021a4 <xTaskGetSchedulerState>:

	BaseType_t xTaskGetSchedulerState( void )
	{
	BaseType_t xReturn;

		if( xSchedulerRunning == pdFALSE )
    21a4:	4b05      	ldr	r3, [pc, #20]	; (21bc <xTaskGetSchedulerState+0x18>)
    21a6:	681b      	ldr	r3, [r3, #0]
		{
			xReturn = taskSCHEDULER_NOT_STARTED;
    21a8:	2001      	movs	r0, #1
		if( xSchedulerRunning == pdFALSE )
    21aa:	2b00      	cmp	r3, #0
    21ac:	d004      	beq.n	21b8 <xTaskGetSchedulerState+0x14>
		}
		else
		{
			if( uxSchedulerSuspended == ( UBaseType_t ) pdFALSE )
    21ae:	4b04      	ldr	r3, [pc, #16]	; (21c0 <xTaskGetSchedulerState+0x1c>)
    21b0:	6818      	ldr	r0, [r3, #0]
			{
				xReturn = taskSCHEDULER_RUNNING;
			}
			else
			{
				xReturn = taskSCHEDULER_SUSPENDED;
    21b2:	4243      	negs	r3, r0
    21b4:	4158      	adcs	r0, r3
    21b6:	0040      	lsls	r0, r0, #1
			}
		}

		return xReturn;
	}
    21b8:	4770      	bx	lr
    21ba:	46c0      	nop			; (mov r8, r8)
    21bc:	20003c3c 	.word	0x20003c3c
    21c0:	20003bec 	.word	0x20003bec

000021c4 <vTaskPriorityInherit>:
/*-----------------------------------------------------------*/

#if ( configUSE_MUTEXES == 1 )

	void vTaskPriorityInherit( TaskHandle_t const pxMutexHolder )
	{
    21c4:	b570      	push	{r4, r5, r6, lr}
    21c6:	1e04      	subs	r4, r0, #0
	TCB_t * const pxTCB = ( TCB_t * ) pxMutexHolder;

		/* If the mutex was given back by an interrupt while the queue was
		locked then the mutex holder might now be NULL. */
		if( pxMutexHolder != NULL )
    21c8:	d01a      	beq.n	2200 <vTaskPriorityInherit+0x3c>
		{
			if( pxTCB->uxPriority < pxCurrentTCB->uxPriority )
    21ca:	6ac2      	ldr	r2, [r0, #44]	; 0x2c
    21cc:	4b18      	ldr	r3, [pc, #96]	; (2230 <vTaskPriorityInherit+0x6c>)
    21ce:	681b      	ldr	r3, [r3, #0]
    21d0:	6adb      	ldr	r3, [r3, #44]	; 0x2c
    21d2:	429a      	cmp	r2, r3
    21d4:	d214      	bcs.n	2200 <vTaskPriorityInherit+0x3c>
			{
				/* Adjust the mutex holder state to account for its new
				priority.  Only reset the event list item value if the value is
				not	being used for anything else. */
				if( ( listGET_LIST_ITEM_VALUE( &( pxTCB->xEventListItem ) ) & taskEVENT_LIST_ITEM_VALUE_IN_USE ) == 0UL )
    21d6:	6983      	ldr	r3, [r0, #24]
    21d8:	2b00      	cmp	r3, #0
    21da:	db05      	blt.n	21e8 <vTaskPriorityInherit+0x24>
				{
					listSET_LIST_ITEM_VALUE( &( pxTCB->xEventListItem ), ( TickType_t ) configMAX_PRIORITIES - ( TickType_t ) pxCurrentTCB->uxPriority ); /*lint !e961 MISRA exception as the casts are only redundant for some ports. */
    21dc:	4b14      	ldr	r3, [pc, #80]	; (2230 <vTaskPriorityInherit+0x6c>)
    21de:	681b      	ldr	r3, [r3, #0]
    21e0:	6ad9      	ldr	r1, [r3, #44]	; 0x2c
    21e2:	2305      	movs	r3, #5
    21e4:	1a5b      	subs	r3, r3, r1
    21e6:	6183      	str	r3, [r0, #24]
					mtCOVERAGE_TEST_MARKER();
				}

				/* If the task being modified is in the ready state it will need to
				be moved into a new list. */
				if( listIS_CONTAINED_WITHIN( &( pxReadyTasksLists[ pxTCB->uxPriority ] ), &( pxTCB->xGenericListItem ) ) != pdFALSE )
    21e8:	0093      	lsls	r3, r2, #2
    21ea:	189b      	adds	r3, r3, r2
    21ec:	009b      	lsls	r3, r3, #2
    21ee:	4a11      	ldr	r2, [pc, #68]	; (2234 <vTaskPriorityInherit+0x70>)
    21f0:	18d3      	adds	r3, r2, r3
    21f2:	6962      	ldr	r2, [r4, #20]
    21f4:	429a      	cmp	r2, r3
    21f6:	d004      	beq.n	2202 <vTaskPriorityInherit+0x3e>
					prvAddTaskToReadyList( pxTCB );
				}
				else
				{
					/* Just inherit the priority. */
					pxTCB->uxPriority = pxCurrentTCB->uxPriority;
    21f8:	4b0d      	ldr	r3, [pc, #52]	; (2230 <vTaskPriorityInherit+0x6c>)
    21fa:	681b      	ldr	r3, [r3, #0]
    21fc:	6adb      	ldr	r3, [r3, #44]	; 0x2c
    21fe:	62e3      	str	r3, [r4, #44]	; 0x2c
		}
		else
		{
			mtCOVERAGE_TEST_MARKER();
		}
	}
    2200:	bd70      	pop	{r4, r5, r6, pc}
					if( uxListRemove( &( pxTCB->xGenericListItem ) ) == ( UBaseType_t ) 0 )
    2202:	1d25      	adds	r5, r4, #4
    2204:	0028      	movs	r0, r5
    2206:	4b0c      	ldr	r3, [pc, #48]	; (2238 <vTaskPriorityInherit+0x74>)
    2208:	4798      	blx	r3
					pxTCB->uxPriority = pxCurrentTCB->uxPriority;
    220a:	4b09      	ldr	r3, [pc, #36]	; (2230 <vTaskPriorityInherit+0x6c>)
    220c:	681b      	ldr	r3, [r3, #0]
    220e:	6adb      	ldr	r3, [r3, #44]	; 0x2c
    2210:	62e3      	str	r3, [r4, #44]	; 0x2c
					prvAddTaskToReadyList( pxTCB );
    2212:	4a0a      	ldr	r2, [pc, #40]	; (223c <vTaskPriorityInherit+0x78>)
    2214:	6812      	ldr	r2, [r2, #0]
    2216:	4293      	cmp	r3, r2
    2218:	d901      	bls.n	221e <vTaskPriorityInherit+0x5a>
    221a:	4a08      	ldr	r2, [pc, #32]	; (223c <vTaskPriorityInherit+0x78>)
    221c:	6013      	str	r3, [r2, #0]
    221e:	0098      	lsls	r0, r3, #2
    2220:	18c0      	adds	r0, r0, r3
    2222:	0080      	lsls	r0, r0, #2
    2224:	4b03      	ldr	r3, [pc, #12]	; (2234 <vTaskPriorityInherit+0x70>)
    2226:	1818      	adds	r0, r3, r0
    2228:	0029      	movs	r1, r5
    222a:	4b05      	ldr	r3, [pc, #20]	; (2240 <vTaskPriorityInherit+0x7c>)
    222c:	4798      	blx	r3
    222e:	e7e7      	b.n	2200 <vTaskPriorityInherit+0x3c>
    2230:	20003b74 	.word	0x20003b74
    2234:	20003b80 	.word	0x20003b80
    2238:	00001271 	.word	0x00001271
    223c:	20003bf8 	.word	0x20003bf8
    2240:	0000122b 	.word	0x0000122b

00002244 <vTaskPriorityDisinherit>:
/*-----------------------------------------------------------*/

#if ( configUSE_MUTEXES == 1 )

	void vTaskPriorityDisinherit( TaskHandle_t const pxMutexHolder )
	{
    2244:	b570      	push	{r4, r5, r6, lr}
    2246:	1e04      	subs	r4, r0, #0
	TCB_t * const pxTCB = ( TCB_t * ) pxMutexHolder;

		if( pxMutexHolder != NULL )
    2248:	d01d      	beq.n	2286 <vTaskPriorityDisinherit+0x42>
		{
			if( pxTCB->uxPriority != pxTCB->uxBasePriority )
    224a:	6ac3      	ldr	r3, [r0, #44]	; 0x2c
    224c:	6bc2      	ldr	r2, [r0, #60]	; 0x3c
    224e:	4293      	cmp	r3, r2
    2250:	d019      	beq.n	2286 <vTaskPriorityDisinherit+0x42>
			{
				/* We must be the running task to be able to give the mutex back.
				Remove ourselves from the ready list we currently appear in. */
				if( uxListRemove( &( pxTCB->xGenericListItem ) ) == ( UBaseType_t ) 0 )
    2252:	1d05      	adds	r5, r0, #4
    2254:	0028      	movs	r0, r5
    2256:	4b0c      	ldr	r3, [pc, #48]	; (2288 <vTaskPriorityDisinherit+0x44>)
    2258:	4798      	blx	r3
				}

				/* Disinherit the priority before adding the task into the new
				ready list. */
				traceTASK_PRIORITY_DISINHERIT( pxTCB, pxTCB->uxBasePriority );
				pxTCB->uxPriority = pxTCB->uxBasePriority;
    225a:	6be0      	ldr	r0, [r4, #60]	; 0x3c
    225c:	62e0      	str	r0, [r4, #44]	; 0x2c

				/* Only reset the event list item value if the value is not
				being used for anything else. */
				if( ( listGET_LIST_ITEM_VALUE( &( pxTCB->xEventListItem ) ) & taskEVENT_LIST_ITEM_VALUE_IN_USE ) == 0UL )
    225e:	69a3      	ldr	r3, [r4, #24]
    2260:	2b00      	cmp	r3, #0
    2262:	db02      	blt.n	226a <vTaskPriorityDisinherit+0x26>
				{
					listSET_LIST_ITEM_VALUE( &( pxTCB->xEventListItem ), ( TickType_t ) configMAX_PRIORITIES - ( TickType_t ) pxTCB->uxPriority ); /*lint !e961 MISRA exception as the casts are only redundant for some ports. */
    2264:	2305      	movs	r3, #5
    2266:	1a1b      	subs	r3, r3, r0
    2268:	61a3      	str	r3, [r4, #24]
				}
				else
				{
					mtCOVERAGE_TEST_MARKER();
				}
				prvAddTaskToReadyList( pxTCB );
    226a:	4b08      	ldr	r3, [pc, #32]	; (228c <vTaskPriorityDisinherit+0x48>)
    226c:	681b      	ldr	r3, [r3, #0]
    226e:	4298      	cmp	r0, r3
    2270:	d901      	bls.n	2276 <vTaskPriorityDisinherit+0x32>
    2272:	4b06      	ldr	r3, [pc, #24]	; (228c <vTaskPriorityDisinherit+0x48>)
    2274:	6018      	str	r0, [r3, #0]
    2276:	0083      	lsls	r3, r0, #2
    2278:	1818      	adds	r0, r3, r0
    227a:	0080      	lsls	r0, r0, #2
    227c:	4b04      	ldr	r3, [pc, #16]	; (2290 <vTaskPriorityDisinherit+0x4c>)
    227e:	1818      	adds	r0, r3, r0
    2280:	0029      	movs	r1, r5
    2282:	4b04      	ldr	r3, [pc, #16]	; (2294 <vTaskPriorityDisinherit+0x50>)
    2284:	4798      	blx	r3
		}
		else
		{
			mtCOVERAGE_TEST_MARKER();
		}
	}
    2286:	bd70      	pop	{r4, r5, r6, pc}
    2288:	00001271 	.word	0x00001271
    228c:	20003bf8 	.word	0x20003bf8
    2290:	20003b80 	.word	0x20003b80
    2294:	0000122b 	.word	0x0000122b

00002298 <prvInsertTimerInActiveList>:
	return xTimeNow;
}
/*-----------------------------------------------------------*/

static BaseType_t prvInsertTimerInActiveList( Timer_t * const pxTimer, const TickType_t xNextExpiryTime, const TickType_t xTimeNow, const TickType_t xCommandTime )
{
    2298:	b510      	push	{r4, lr}
BaseType_t xProcessTimerNow = pdFALSE;

	listSET_LIST_ITEM_VALUE( &( pxTimer->xTimerListItem ), xNextExpiryTime );
    229a:	6041      	str	r1, [r0, #4]
	listSET_LIST_ITEM_OWNER( &( pxTimer->xTimerListItem ), pxTimer );
    229c:	6100      	str	r0, [r0, #16]

	if( xNextExpiryTime <= xTimeNow )
    229e:	4291      	cmp	r1, r2
    22a0:	d80b      	bhi.n	22ba <prvInsertTimerInActiveList+0x22>
	{
		/* Has the expiry time elapsed between the command to start/reset a
		timer was issued, and the time the command was processed? */
		if( ( xTimeNow - xCommandTime ) >= pxTimer->xTimerPeriodInTicks )
    22a2:	1ad2      	subs	r2, r2, r3
		{
			/* The time between a command being issued and the command being
			processed actually exceeds the timers period.  */
			xProcessTimerNow = pdTRUE;
    22a4:	2401      	movs	r4, #1
		if( ( xTimeNow - xCommandTime ) >= pxTimer->xTimerPeriodInTicks )
    22a6:	6983      	ldr	r3, [r0, #24]
    22a8:	429a      	cmp	r2, r3
    22aa:	d211      	bcs.n	22d0 <prvInsertTimerInActiveList+0x38>
		}
		else
		{
			vListInsert( pxOverflowTimerList, &( pxTimer->xTimerListItem ) );
    22ac:	1d01      	adds	r1, r0, #4
    22ae:	4b09      	ldr	r3, [pc, #36]	; (22d4 <prvInsertTimerInActiveList+0x3c>)
    22b0:	6818      	ldr	r0, [r3, #0]
    22b2:	4b09      	ldr	r3, [pc, #36]	; (22d8 <prvInsertTimerInActiveList+0x40>)
    22b4:	4798      	blx	r3
BaseType_t xProcessTimerNow = pdFALSE;
    22b6:	2400      	movs	r4, #0
    22b8:	e00a      	b.n	22d0 <prvInsertTimerInActiveList+0x38>
		}
	}
	else
	{
		if( ( xTimeNow < xCommandTime ) && ( xNextExpiryTime >= xCommandTime ) )
    22ba:	429a      	cmp	r2, r3
    22bc:	d202      	bcs.n	22c4 <prvInsertTimerInActiveList+0x2c>
		{
			/* If, since the command was issued, the tick count has overflowed
			but the expiry time has not, then the timer must have already passed
			its expiry time and should be processed immediately. */
			xProcessTimerNow = pdTRUE;
    22be:	2401      	movs	r4, #1
		if( ( xTimeNow < xCommandTime ) && ( xNextExpiryTime >= xCommandTime ) )
    22c0:	4299      	cmp	r1, r3
    22c2:	d205      	bcs.n	22d0 <prvInsertTimerInActiveList+0x38>
		}
		else
		{
			vListInsert( pxCurrentTimerList, &( pxTimer->xTimerListItem ) );
    22c4:	1d01      	adds	r1, r0, #4
    22c6:	4b05      	ldr	r3, [pc, #20]	; (22dc <prvInsertTimerInActiveList+0x44>)
    22c8:	6818      	ldr	r0, [r3, #0]
    22ca:	4b03      	ldr	r3, [pc, #12]	; (22d8 <prvInsertTimerInActiveList+0x40>)
    22cc:	4798      	blx	r3
BaseType_t xProcessTimerNow = pdFALSE;
    22ce:	2400      	movs	r4, #0
		}
	}

	return xProcessTimerNow;
}
    22d0:	0020      	movs	r0, r4
    22d2:	bd10      	pop	{r4, pc}
    22d4:	20003c74 	.word	0x20003c74
    22d8:	00001243 	.word	0x00001243
    22dc:	20003c70 	.word	0x20003c70

000022e0 <prvCheckForValidListAndQueue>:
	pxOverflowTimerList = pxTemp;
}
/*-----------------------------------------------------------*/

static void prvCheckForValidListAndQueue( void )
{
    22e0:	b570      	push	{r4, r5, r6, lr}
	/* Check that the list from which active timers are referenced, and the
	queue used to communicate with the timer service, have been
	initialised. */
	taskENTER_CRITICAL();
    22e2:	4b10      	ldr	r3, [pc, #64]	; (2324 <prvCheckForValidListAndQueue+0x44>)
    22e4:	4798      	blx	r3
	{
		if( xTimerQueue == NULL )
    22e6:	4b10      	ldr	r3, [pc, #64]	; (2328 <prvCheckForValidListAndQueue+0x48>)
    22e8:	681b      	ldr	r3, [r3, #0]
    22ea:	2b00      	cmp	r3, #0
    22ec:	d002      	beq.n	22f4 <prvCheckForValidListAndQueue+0x14>
		else
		{
			mtCOVERAGE_TEST_MARKER();
		}
	}
	taskEXIT_CRITICAL();
    22ee:	4b0f      	ldr	r3, [pc, #60]	; (232c <prvCheckForValidListAndQueue+0x4c>)
    22f0:	4798      	blx	r3
}
    22f2:	bd70      	pop	{r4, r5, r6, pc}
			vListInitialise( &xActiveTimerList1 );
    22f4:	4d0e      	ldr	r5, [pc, #56]	; (2330 <prvCheckForValidListAndQueue+0x50>)
    22f6:	0028      	movs	r0, r5
    22f8:	4e0e      	ldr	r6, [pc, #56]	; (2334 <prvCheckForValidListAndQueue+0x54>)
    22fa:	47b0      	blx	r6
			vListInitialise( &xActiveTimerList2 );
    22fc:	4c0e      	ldr	r4, [pc, #56]	; (2338 <prvCheckForValidListAndQueue+0x58>)
    22fe:	0020      	movs	r0, r4
    2300:	47b0      	blx	r6
			pxCurrentTimerList = &xActiveTimerList1;
    2302:	4b0e      	ldr	r3, [pc, #56]	; (233c <prvCheckForValidListAndQueue+0x5c>)
    2304:	601d      	str	r5, [r3, #0]
			pxOverflowTimerList = &xActiveTimerList2;
    2306:	4b0e      	ldr	r3, [pc, #56]	; (2340 <prvCheckForValidListAndQueue+0x60>)
    2308:	601c      	str	r4, [r3, #0]
			xTimerQueue = xQueueCreate( ( UBaseType_t ) configTIMER_QUEUE_LENGTH, sizeof( DaemonTaskMessage_t ) );
    230a:	2200      	movs	r2, #0
    230c:	210c      	movs	r1, #12
    230e:	2002      	movs	r0, #2
    2310:	4b0c      	ldr	r3, [pc, #48]	; (2344 <prvCheckForValidListAndQueue+0x64>)
    2312:	4798      	blx	r3
			configASSERT( xTimerQueue );
    2314:	2800      	cmp	r0, #0
    2316:	d002      	beq.n	231e <prvCheckForValidListAndQueue+0x3e>
			xTimerQueue = xQueueCreate( ( UBaseType_t ) configTIMER_QUEUE_LENGTH, sizeof( DaemonTaskMessage_t ) );
    2318:	4b03      	ldr	r3, [pc, #12]	; (2328 <prvCheckForValidListAndQueue+0x48>)
    231a:	6018      	str	r0, [r3, #0]
    231c:	e7e7      	b.n	22ee <prvCheckForValidListAndQueue+0xe>
			configASSERT( xTimerQueue );
    231e:	b672      	cpsid	i
    2320:	e7fe      	b.n	2320 <prvCheckForValidListAndQueue+0x40>
    2322:	46c0      	nop			; (mov r8, r8)
    2324:	00001079 	.word	0x00001079
    2328:	20003ca4 	.word	0x20003ca4
    232c:	00001091 	.word	0x00001091
    2330:	20003c78 	.word	0x20003c78
    2334:	0000120f 	.word	0x0000120f
    2338:	20003c8c 	.word	0x20003c8c
    233c:	20003c70 	.word	0x20003c70
    2340:	20003c74 	.word	0x20003c74
    2344:	000014b9 	.word	0x000014b9

00002348 <xTimerCreateTimerTask>:
{
    2348:	b510      	push	{r4, lr}
    234a:	b084      	sub	sp, #16
	prvCheckForValidListAndQueue();
    234c:	4b0b      	ldr	r3, [pc, #44]	; (237c <xTimerCreateTimerTask+0x34>)
    234e:	4798      	blx	r3
	if( xTimerQueue != NULL )
    2350:	4b0b      	ldr	r3, [pc, #44]	; (2380 <xTimerCreateTimerTask+0x38>)
    2352:	681b      	ldr	r3, [r3, #0]
    2354:	2b00      	cmp	r3, #0
    2356:	d00f      	beq.n	2378 <xTimerCreateTimerTask+0x30>
			xReturn = xTaskCreate( prvTimerTask, "Tmr Svc", ( uint16_t ) configTIMER_TASK_STACK_DEPTH, NULL, ( ( UBaseType_t ) configTIMER_TASK_PRIORITY ) | portPRIVILEGE_BIT, NULL);
    2358:	2300      	movs	r3, #0
    235a:	9303      	str	r3, [sp, #12]
    235c:	9302      	str	r3, [sp, #8]
    235e:	9301      	str	r3, [sp, #4]
    2360:	3302      	adds	r3, #2
    2362:	9300      	str	r3, [sp, #0]
    2364:	2300      	movs	r3, #0
    2366:	2250      	movs	r2, #80	; 0x50
    2368:	4906      	ldr	r1, [pc, #24]	; (2384 <xTimerCreateTimerTask+0x3c>)
    236a:	4807      	ldr	r0, [pc, #28]	; (2388 <xTimerCreateTimerTask+0x40>)
    236c:	4c07      	ldr	r4, [pc, #28]	; (238c <xTimerCreateTimerTask+0x44>)
    236e:	47a0      	blx	r4
	configASSERT( xReturn );
    2370:	2800      	cmp	r0, #0
    2372:	d001      	beq.n	2378 <xTimerCreateTimerTask+0x30>
}
    2374:	b004      	add	sp, #16
    2376:	bd10      	pop	{r4, pc}
	configASSERT( xReturn );
    2378:	b672      	cpsid	i
    237a:	e7fe      	b.n	237a <xTimerCreateTimerTask+0x32>
    237c:	000022e1 	.word	0x000022e1
    2380:	20003ca4 	.word	0x20003ca4
    2384:	00006b70 	.word	0x00006b70
    2388:	000024ad 	.word	0x000024ad
    238c:	000019a1 	.word	0x000019a1

00002390 <xTimerGenericCommand>:
{
    2390:	b530      	push	{r4, r5, lr}
    2392:	b085      	sub	sp, #20
    2394:	001d      	movs	r5, r3
	if( xTimerQueue != NULL )
    2396:	4b13      	ldr	r3, [pc, #76]	; (23e4 <xTimerGenericCommand+0x54>)
    2398:	681c      	ldr	r4, [r3, #0]
    239a:	2c00      	cmp	r4, #0
    239c:	d020      	beq.n	23e0 <xTimerGenericCommand+0x50>
		xMessage.xMessageID = xCommandID;
    239e:	9101      	str	r1, [sp, #4]
		xMessage.u.xTimerParameters.xMessageValue = xOptionalValue;
    23a0:	9202      	str	r2, [sp, #8]
		xMessage.u.xTimerParameters.pxTimer = ( Timer_t * ) xTimer;
    23a2:	9003      	str	r0, [sp, #12]
		if( xCommandID < tmrFIRST_FROM_ISR_COMMAND )
    23a4:	2905      	cmp	r1, #5
    23a6:	dc13      	bgt.n	23d0 <xTimerGenericCommand+0x40>
			if( xTaskGetSchedulerState() == taskSCHEDULER_RUNNING )
    23a8:	4b0f      	ldr	r3, [pc, #60]	; (23e8 <xTimerGenericCommand+0x58>)
    23aa:	4798      	blx	r3
    23ac:	2802      	cmp	r0, #2
    23ae:	d007      	beq.n	23c0 <xTimerGenericCommand+0x30>
				xReturn = xQueueSendToBack( xTimerQueue, &xMessage, tmrNO_DELAY );
    23b0:	4b0c      	ldr	r3, [pc, #48]	; (23e4 <xTimerGenericCommand+0x54>)
    23b2:	6818      	ldr	r0, [r3, #0]
    23b4:	2300      	movs	r3, #0
    23b6:	2200      	movs	r2, #0
    23b8:	a901      	add	r1, sp, #4
    23ba:	4c0c      	ldr	r4, [pc, #48]	; (23ec <xTimerGenericCommand+0x5c>)
    23bc:	47a0      	blx	r4
    23be:	e00d      	b.n	23dc <xTimerGenericCommand+0x4c>
				xReturn = xQueueSendToBack( xTimerQueue, &xMessage, xTicksToWait );
    23c0:	4b08      	ldr	r3, [pc, #32]	; (23e4 <xTimerGenericCommand+0x54>)
    23c2:	6818      	ldr	r0, [r3, #0]
    23c4:	2300      	movs	r3, #0
    23c6:	9a08      	ldr	r2, [sp, #32]
    23c8:	a901      	add	r1, sp, #4
    23ca:	4c08      	ldr	r4, [pc, #32]	; (23ec <xTimerGenericCommand+0x5c>)
    23cc:	47a0      	blx	r4
    23ce:	e005      	b.n	23dc <xTimerGenericCommand+0x4c>
			xReturn = xQueueSendToBackFromISR( xTimerQueue, &xMessage, pxHigherPriorityTaskWoken );
    23d0:	2300      	movs	r3, #0
    23d2:	002a      	movs	r2, r5
    23d4:	a901      	add	r1, sp, #4
    23d6:	0020      	movs	r0, r4
    23d8:	4c05      	ldr	r4, [pc, #20]	; (23f0 <xTimerGenericCommand+0x60>)
    23da:	47a0      	blx	r4
}
    23dc:	b005      	add	sp, #20
    23de:	bd30      	pop	{r4, r5, pc}
BaseType_t xReturn = pdFAIL;
    23e0:	2000      	movs	r0, #0
	return xReturn;
    23e2:	e7fb      	b.n	23dc <xTimerGenericCommand+0x4c>
    23e4:	20003ca4 	.word	0x20003ca4
    23e8:	000021a5 	.word	0x000021a5
    23ec:	00001509 	.word	0x00001509
    23f0:	0000167d 	.word	0x0000167d

000023f4 <prvSampleTimeNow>:
{
    23f4:	b5f0      	push	{r4, r5, r6, r7, lr}
    23f6:	46d6      	mov	lr, sl
    23f8:	464f      	mov	r7, r9
    23fa:	4646      	mov	r6, r8
    23fc:	b5c0      	push	{r6, r7, lr}
    23fe:	b082      	sub	sp, #8
    2400:	4681      	mov	r9, r0
	xTimeNow = xTaskGetTickCount();
    2402:	4b23      	ldr	r3, [pc, #140]	; (2490 <prvSampleTimeNow+0x9c>)
    2404:	4798      	blx	r3
    2406:	4680      	mov	r8, r0
	if( xTimeNow < xLastTime )
    2408:	4b22      	ldr	r3, [pc, #136]	; (2494 <prvSampleTimeNow+0xa0>)
    240a:	681b      	ldr	r3, [r3, #0]
    240c:	4298      	cmp	r0, r3
    240e:	d317      	bcc.n	2440 <prvSampleTimeNow+0x4c>
		*pxTimerListsWereSwitched = pdFALSE;
    2410:	2300      	movs	r3, #0
    2412:	464a      	mov	r2, r9
    2414:	6013      	str	r3, [r2, #0]
	xLastTime = xTimeNow;
    2416:	4b1f      	ldr	r3, [pc, #124]	; (2494 <prvSampleTimeNow+0xa0>)
    2418:	4642      	mov	r2, r8
    241a:	601a      	str	r2, [r3, #0]
}
    241c:	4640      	mov	r0, r8
    241e:	b002      	add	sp, #8
    2420:	bc1c      	pop	{r2, r3, r4}
    2422:	4690      	mov	r8, r2
    2424:	4699      	mov	r9, r3
    2426:	46a2      	mov	sl, r4
    2428:	bdf0      	pop	{r4, r5, r6, r7, pc}
				xResult = xTimerGenericCommand( pxTimer, tmrCOMMAND_START_DONT_TRACE, xNextExpireTime, NULL, tmrNO_DELAY );
    242a:	2300      	movs	r3, #0
    242c:	9300      	str	r3, [sp, #0]
    242e:	4652      	mov	r2, sl
    2430:	2100      	movs	r1, #0
    2432:	0020      	movs	r0, r4
    2434:	4c18      	ldr	r4, [pc, #96]	; (2498 <prvSampleTimeNow+0xa4>)
    2436:	47a0      	blx	r4
				configASSERT( xResult );
    2438:	2800      	cmp	r0, #0
    243a:	d103      	bne.n	2444 <prvSampleTimeNow+0x50>
    243c:	b672      	cpsid	i
    243e:	e7fe      	b.n	243e <prvSampleTimeNow+0x4a>
	while( listLIST_IS_EMPTY( pxCurrentTimerList ) == pdFALSE )
    2440:	4e16      	ldr	r6, [pc, #88]	; (249c <prvSampleTimeNow+0xa8>)
		( void ) uxListRemove( &( pxTimer->xTimerListItem ) );
    2442:	4f17      	ldr	r7, [pc, #92]	; (24a0 <prvSampleTimeNow+0xac>)
	while( listLIST_IS_EMPTY( pxCurrentTimerList ) == pdFALSE )
    2444:	6833      	ldr	r3, [r6, #0]
    2446:	681a      	ldr	r2, [r3, #0]
    2448:	2a00      	cmp	r2, #0
    244a:	d018      	beq.n	247e <prvSampleTimeNow+0x8a>
		xNextExpireTime = listGET_ITEM_VALUE_OF_HEAD_ENTRY( pxCurrentTimerList );
    244c:	68db      	ldr	r3, [r3, #12]
    244e:	681a      	ldr	r2, [r3, #0]
    2450:	4692      	mov	sl, r2
		pxTimer = ( Timer_t * ) listGET_OWNER_OF_HEAD_ENTRY( pxCurrentTimerList );
    2452:	68dc      	ldr	r4, [r3, #12]
		( void ) uxListRemove( &( pxTimer->xTimerListItem ) );
    2454:	1d25      	adds	r5, r4, #4
    2456:	0028      	movs	r0, r5
    2458:	47b8      	blx	r7
		pxTimer->pxCallbackFunction( ( TimerHandle_t ) pxTimer );
    245a:	0020      	movs	r0, r4
    245c:	6a63      	ldr	r3, [r4, #36]	; 0x24
    245e:	4798      	blx	r3
		if( pxTimer->uxAutoReload == ( UBaseType_t ) pdTRUE )
    2460:	69e3      	ldr	r3, [r4, #28]
    2462:	2b01      	cmp	r3, #1
    2464:	d1ee      	bne.n	2444 <prvSampleTimeNow+0x50>
			xReloadTime = ( xNextExpireTime + pxTimer->xTimerPeriodInTicks );
    2466:	69a3      	ldr	r3, [r4, #24]
    2468:	4453      	add	r3, sl
			if( xReloadTime > xNextExpireTime )
    246a:	459a      	cmp	sl, r3
    246c:	d2dd      	bcs.n	242a <prvSampleTimeNow+0x36>
				listSET_LIST_ITEM_VALUE( &( pxTimer->xTimerListItem ), xReloadTime );
    246e:	6063      	str	r3, [r4, #4]
				listSET_LIST_ITEM_OWNER( &( pxTimer->xTimerListItem ), pxTimer );
    2470:	6124      	str	r4, [r4, #16]
				vListInsert( pxCurrentTimerList, &( pxTimer->xTimerListItem ) );
    2472:	4b0a      	ldr	r3, [pc, #40]	; (249c <prvSampleTimeNow+0xa8>)
    2474:	6818      	ldr	r0, [r3, #0]
    2476:	0029      	movs	r1, r5
    2478:	4b0a      	ldr	r3, [pc, #40]	; (24a4 <prvSampleTimeNow+0xb0>)
    247a:	4798      	blx	r3
    247c:	e7e2      	b.n	2444 <prvSampleTimeNow+0x50>
	pxCurrentTimerList = pxOverflowTimerList;
    247e:	4a0a      	ldr	r2, [pc, #40]	; (24a8 <prvSampleTimeNow+0xb4>)
    2480:	4906      	ldr	r1, [pc, #24]	; (249c <prvSampleTimeNow+0xa8>)
    2482:	6810      	ldr	r0, [r2, #0]
    2484:	6008      	str	r0, [r1, #0]
	pxOverflowTimerList = pxTemp;
    2486:	6013      	str	r3, [r2, #0]
		*pxTimerListsWereSwitched = pdTRUE;
    2488:	2301      	movs	r3, #1
    248a:	464a      	mov	r2, r9
    248c:	6013      	str	r3, [r2, #0]
    248e:	e7c2      	b.n	2416 <prvSampleTimeNow+0x22>
    2490:	00001bfd 	.word	0x00001bfd
    2494:	20003ca0 	.word	0x20003ca0
    2498:	00002391 	.word	0x00002391
    249c:	20003c70 	.word	0x20003c70
    24a0:	00001271 	.word	0x00001271
    24a4:	00001243 	.word	0x00001243
    24a8:	20003c74 	.word	0x20003c74

000024ac <prvTimerTask>:
{
    24ac:	b5f0      	push	{r4, r5, r6, r7, lr}
    24ae:	b089      	sub	sp, #36	; 0x24
				( void ) uxListRemove( &( pxTimer->xTimerListItem ) );
    24b0:	4f50      	ldr	r7, [pc, #320]	; (25f4 <prvTimerTask+0x148>)
	*pxListWasEmpty = listLIST_IS_EMPTY( pxCurrentTimerList );
    24b2:	4b51      	ldr	r3, [pc, #324]	; (25f8 <prvTimerTask+0x14c>)
    24b4:	681b      	ldr	r3, [r3, #0]
	if( *pxListWasEmpty == pdFALSE )
    24b6:	681a      	ldr	r2, [r3, #0]
    24b8:	2a00      	cmp	r2, #0
    24ba:	d100      	bne.n	24be <prvTimerTask+0x12>
    24bc:	e08c      	b.n	25d8 <prvTimerTask+0x12c>
		xNextExpireTime = listGET_ITEM_VALUE_OF_HEAD_ENTRY( pxCurrentTimerList );
    24be:	68db      	ldr	r3, [r3, #12]
    24c0:	681d      	ldr	r5, [r3, #0]
	vTaskSuspendAll();
    24c2:	4b4e      	ldr	r3, [pc, #312]	; (25fc <prvTimerTask+0x150>)
    24c4:	4798      	blx	r3
		xTimeNow = prvSampleTimeNow( &xTimerListsWereSwitched );
    24c6:	a805      	add	r0, sp, #20
    24c8:	4b4d      	ldr	r3, [pc, #308]	; (2600 <prvTimerTask+0x154>)
    24ca:	4798      	blx	r3
    24cc:	0004      	movs	r4, r0
		if( xTimerListsWereSwitched == pdFALSE )
    24ce:	9b05      	ldr	r3, [sp, #20]
    24d0:	2b00      	cmp	r3, #0
    24d2:	d000      	beq.n	24d6 <prvTimerTask+0x2a>
    24d4:	e08b      	b.n	25ee <prvTimerTask+0x142>
			if( ( xListWasEmpty == pdFALSE ) && ( xNextExpireTime <= xTimeNow ) )
    24d6:	42a8      	cmp	r0, r5
    24d8:	d225      	bcs.n	2526 <prvTimerTask+0x7a>
				vQueueWaitForMessageRestricted( xTimerQueue, ( xNextExpireTime - xTimeNow ) );
    24da:	1b29      	subs	r1, r5, r4
    24dc:	4b49      	ldr	r3, [pc, #292]	; (2604 <prvTimerTask+0x158>)
    24de:	6818      	ldr	r0, [r3, #0]
    24e0:	4b49      	ldr	r3, [pc, #292]	; (2608 <prvTimerTask+0x15c>)
    24e2:	4798      	blx	r3
				if( xTaskResumeAll() == pdFALSE )
    24e4:	4b49      	ldr	r3, [pc, #292]	; (260c <prvTimerTask+0x160>)
    24e6:	4798      	blx	r3
    24e8:	2800      	cmp	r0, #0
    24ea:	d040      	beq.n	256e <prvTimerTask+0xc2>
	while( xQueueReceive( xTimerQueue, &xMessage, tmrNO_DELAY ) != pdFAIL ) /*lint !e603 xMessage does not have to be initialised as it is passed out, not in, and it is not used unless xQueueReceive() returns pdTRUE. */
    24ec:	4d45      	ldr	r5, [pc, #276]	; (2604 <prvTimerTask+0x158>)
    24ee:	4c48      	ldr	r4, [pc, #288]	; (2610 <prvTimerTask+0x164>)
    24f0:	2300      	movs	r3, #0
    24f2:	2200      	movs	r2, #0
    24f4:	a905      	add	r1, sp, #20
    24f6:	6828      	ldr	r0, [r5, #0]
    24f8:	47a0      	blx	r4
    24fa:	2800      	cmp	r0, #0
    24fc:	d0d9      	beq.n	24b2 <prvTimerTask+0x6>
		if( xMessage.xMessageID >= ( BaseType_t ) 0 )
    24fe:	9b05      	ldr	r3, [sp, #20]
    2500:	9303      	str	r3, [sp, #12]
    2502:	2b00      	cmp	r3, #0
    2504:	dbf4      	blt.n	24f0 <prvTimerTask+0x44>
			pxTimer = xMessage.u.xTimerParameters.pxTimer;
    2506:	9e07      	ldr	r6, [sp, #28]
			if( listIS_CONTAINED_WITHIN( NULL, &( pxTimer->xTimerListItem ) ) == pdFALSE )
    2508:	6973      	ldr	r3, [r6, #20]
    250a:	2b00      	cmp	r3, #0
    250c:	d001      	beq.n	2512 <prvTimerTask+0x66>
				( void ) uxListRemove( &( pxTimer->xTimerListItem ) );
    250e:	1d30      	adds	r0, r6, #4
    2510:	47b8      	blx	r7
			xTimeNow = prvSampleTimeNow( &xTimerListsWereSwitched );
    2512:	a804      	add	r0, sp, #16
    2514:	4b3a      	ldr	r3, [pc, #232]	; (2600 <prvTimerTask+0x154>)
    2516:	4798      	blx	r3
			switch( xMessage.xMessageID )
    2518:	9b05      	ldr	r3, [sp, #20]
    251a:	2b09      	cmp	r3, #9
    251c:	d8e8      	bhi.n	24f0 <prvTimerTask+0x44>
    251e:	009b      	lsls	r3, r3, #2
    2520:	4a3c      	ldr	r2, [pc, #240]	; (2614 <prvTimerTask+0x168>)
    2522:	58d3      	ldr	r3, [r2, r3]
    2524:	469f      	mov	pc, r3
				( void ) xTaskResumeAll();
    2526:	4b39      	ldr	r3, [pc, #228]	; (260c <prvTimerTask+0x160>)
    2528:	4798      	blx	r3
Timer_t * const pxTimer = ( Timer_t * ) listGET_OWNER_OF_HEAD_ENTRY( pxCurrentTimerList );
    252a:	4b33      	ldr	r3, [pc, #204]	; (25f8 <prvTimerTask+0x14c>)
    252c:	681b      	ldr	r3, [r3, #0]
    252e:	68db      	ldr	r3, [r3, #12]
    2530:	68de      	ldr	r6, [r3, #12]
	( void ) uxListRemove( &( pxTimer->xTimerListItem ) );
    2532:	1d30      	adds	r0, r6, #4
    2534:	4b2f      	ldr	r3, [pc, #188]	; (25f4 <prvTimerTask+0x148>)
    2536:	4798      	blx	r3
	if( pxTimer->uxAutoReload == ( UBaseType_t ) pdTRUE )
    2538:	69f3      	ldr	r3, [r6, #28]
    253a:	2b01      	cmp	r3, #1
    253c:	d003      	beq.n	2546 <prvTimerTask+0x9a>
	pxTimer->pxCallbackFunction( ( TimerHandle_t ) pxTimer );
    253e:	6a73      	ldr	r3, [r6, #36]	; 0x24
    2540:	0030      	movs	r0, r6
    2542:	4798      	blx	r3
    2544:	e7d2      	b.n	24ec <prvTimerTask+0x40>
		if( prvInsertTimerInActiveList( pxTimer, ( xNextExpireTime + pxTimer->xTimerPeriodInTicks ), xTimeNow, xNextExpireTime ) == pdTRUE )
    2546:	69b3      	ldr	r3, [r6, #24]
    2548:	18e9      	adds	r1, r5, r3
    254a:	002b      	movs	r3, r5
    254c:	0022      	movs	r2, r4
    254e:	0030      	movs	r0, r6
    2550:	4c31      	ldr	r4, [pc, #196]	; (2618 <prvTimerTask+0x16c>)
    2552:	47a0      	blx	r4
    2554:	2801      	cmp	r0, #1
    2556:	d1f2      	bne.n	253e <prvTimerTask+0x92>
			xResult = xTimerGenericCommand( pxTimer, tmrCOMMAND_START_DONT_TRACE, xNextExpireTime, NULL, tmrNO_DELAY );
    2558:	2300      	movs	r3, #0
    255a:	9300      	str	r3, [sp, #0]
    255c:	002a      	movs	r2, r5
    255e:	2100      	movs	r1, #0
    2560:	0030      	movs	r0, r6
    2562:	4c2e      	ldr	r4, [pc, #184]	; (261c <prvTimerTask+0x170>)
    2564:	47a0      	blx	r4
			configASSERT( xResult );
    2566:	2800      	cmp	r0, #0
    2568:	d1e9      	bne.n	253e <prvTimerTask+0x92>
    256a:	b672      	cpsid	i
    256c:	e7fe      	b.n	256c <prvTimerTask+0xc0>
					portYIELD_WITHIN_API();
    256e:	4b2c      	ldr	r3, [pc, #176]	; (2620 <prvTimerTask+0x174>)
    2570:	4798      	blx	r3
    2572:	e7bb      	b.n	24ec <prvTimerTask+0x40>
					if( prvInsertTimerInActiveList( pxTimer,  xMessage.u.xTimerParameters.xMessageValue + pxTimer->xTimerPeriodInTicks, xTimeNow, xMessage.u.xTimerParameters.xMessageValue ) == pdTRUE )
    2574:	9b06      	ldr	r3, [sp, #24]
    2576:	69b2      	ldr	r2, [r6, #24]
    2578:	4694      	mov	ip, r2
    257a:	4463      	add	r3, ip
    257c:	0019      	movs	r1, r3
    257e:	9b06      	ldr	r3, [sp, #24]
    2580:	0002      	movs	r2, r0
    2582:	0030      	movs	r0, r6
    2584:	4c24      	ldr	r4, [pc, #144]	; (2618 <prvTimerTask+0x16c>)
    2586:	47a0      	blx	r4
    2588:	2801      	cmp	r0, #1
    258a:	d1b0      	bne.n	24ee <prvTimerTask+0x42>
						pxTimer->pxCallbackFunction( ( TimerHandle_t ) pxTimer );
    258c:	0030      	movs	r0, r6
    258e:	6a73      	ldr	r3, [r6, #36]	; 0x24
    2590:	4798      	blx	r3
						if( pxTimer->uxAutoReload == ( UBaseType_t ) pdTRUE )
    2592:	69f3      	ldr	r3, [r6, #28]
    2594:	2b01      	cmp	r3, #1
    2596:	d1aa      	bne.n	24ee <prvTimerTask+0x42>
							xResult = xTimerGenericCommand( pxTimer, tmrCOMMAND_START_DONT_TRACE, xMessage.u.xTimerParameters.xMessageValue + pxTimer->xTimerPeriodInTicks, NULL, tmrNO_DELAY );
    2598:	9b06      	ldr	r3, [sp, #24]
    259a:	69b1      	ldr	r1, [r6, #24]
    259c:	468c      	mov	ip, r1
    259e:	4463      	add	r3, ip
    25a0:	001a      	movs	r2, r3
    25a2:	2300      	movs	r3, #0
    25a4:	9300      	str	r3, [sp, #0]
    25a6:	2100      	movs	r1, #0
    25a8:	0030      	movs	r0, r6
    25aa:	4c1c      	ldr	r4, [pc, #112]	; (261c <prvTimerTask+0x170>)
    25ac:	47a0      	blx	r4
							configASSERT( xResult );
    25ae:	2800      	cmp	r0, #0
    25b0:	d19d      	bne.n	24ee <prvTimerTask+0x42>
    25b2:	b672      	cpsid	i
    25b4:	e7fe      	b.n	25b4 <prvTimerTask+0x108>
					pxTimer->xTimerPeriodInTicks = xMessage.u.xTimerParameters.xMessageValue;
    25b6:	9906      	ldr	r1, [sp, #24]
    25b8:	61b1      	str	r1, [r6, #24]
					configASSERT( ( pxTimer->xTimerPeriodInTicks > 0 ) );
    25ba:	2900      	cmp	r1, #0
    25bc:	d006      	beq.n	25cc <prvTimerTask+0x120>
					( void ) prvInsertTimerInActiveList( pxTimer, ( xTimeNow + pxTimer->xTimerPeriodInTicks ), xTimeNow, xTimeNow );
    25be:	1841      	adds	r1, r0, r1
    25c0:	0003      	movs	r3, r0
    25c2:	0002      	movs	r2, r0
    25c4:	0030      	movs	r0, r6
    25c6:	4c14      	ldr	r4, [pc, #80]	; (2618 <prvTimerTask+0x16c>)
    25c8:	47a0      	blx	r4
    25ca:	e790      	b.n	24ee <prvTimerTask+0x42>
					configASSERT( ( pxTimer->xTimerPeriodInTicks > 0 ) );
    25cc:	b672      	cpsid	i
    25ce:	e7fe      	b.n	25ce <prvTimerTask+0x122>
					vPortFree( pxTimer );
    25d0:	0030      	movs	r0, r6
    25d2:	4b14      	ldr	r3, [pc, #80]	; (2624 <prvTimerTask+0x178>)
    25d4:	4798      	blx	r3
    25d6:	e78a      	b.n	24ee <prvTimerTask+0x42>
	vTaskSuspendAll();
    25d8:	4b08      	ldr	r3, [pc, #32]	; (25fc <prvTimerTask+0x150>)
    25da:	4798      	blx	r3
		xTimeNow = prvSampleTimeNow( &xTimerListsWereSwitched );
    25dc:	a805      	add	r0, sp, #20
    25de:	4b08      	ldr	r3, [pc, #32]	; (2600 <prvTimerTask+0x154>)
    25e0:	4798      	blx	r3
    25e2:	0004      	movs	r4, r0
		xNextExpireTime = ( TickType_t ) 0U;
    25e4:	2500      	movs	r5, #0
		if( xTimerListsWereSwitched == pdFALSE )
    25e6:	9b05      	ldr	r3, [sp, #20]
    25e8:	2b00      	cmp	r3, #0
    25ea:	d100      	bne.n	25ee <prvTimerTask+0x142>
    25ec:	e775      	b.n	24da <prvTimerTask+0x2e>
			( void ) xTaskResumeAll();
    25ee:	4b07      	ldr	r3, [pc, #28]	; (260c <prvTimerTask+0x160>)
    25f0:	4798      	blx	r3
    25f2:	e77b      	b.n	24ec <prvTimerTask+0x40>
    25f4:	00001271 	.word	0x00001271
    25f8:	20003c70 	.word	0x20003c70
    25fc:	00001bed 	.word	0x00001bed
    2600:	000023f5 	.word	0x000023f5
    2604:	20003ca4 	.word	0x20003ca4
    2608:	000018cd 	.word	0x000018cd
    260c:	00001d41 	.word	0x00001d41
    2610:	00001745 	.word	0x00001745
    2614:	00006b48 	.word	0x00006b48
    2618:	00002299 	.word	0x00002299
    261c:	00002391 	.word	0x00002391
    2620:	00001061 	.word	0x00001061
    2624:	00001205 	.word	0x00001205

00002628 <usart_init>:
 */
enum status_code usart_init(
		struct usart_module *const module,
		Sercom *const hw,
		const struct usart_config *const config)
{
    2628:	b5f0      	push	{r4, r5, r6, r7, lr}
    262a:	46de      	mov	lr, fp
    262c:	4657      	mov	r7, sl
    262e:	464e      	mov	r6, r9
    2630:	4645      	mov	r5, r8
    2632:	b5e0      	push	{r5, r6, r7, lr}
    2634:	b091      	sub	sp, #68	; 0x44
    2636:	0005      	movs	r5, r0
    2638:	000c      	movs	r4, r1
    263a:	0016      	movs	r6, r2
	Assert(config);

	enum status_code status_code = STATUS_OK;

	/* Assign module pointer to software instance struct */
	module->hw = hw;
    263c:	6029      	str	r1, [r5, #0]

	/* Get a pointer to the hardware module instance */
	SercomUsart *const usart_hw = &(module->hw->USART);

	uint32_t sercom_index = _sercom_get_sercom_inst_index(module->hw);
    263e:	0008      	movs	r0, r1
    2640:	4bc3      	ldr	r3, [pc, #780]	; (2950 <usart_init+0x328>)
    2642:	4798      	blx	r3
    2644:	0002      	movs	r2, r0
	uint32_t pm_index, gclk_index; 
#if (SAML22) || (SAMC20) 
	pm_index	= sercom_index + MCLK_APBCMASK_SERCOM0_Pos;
	gclk_index	= sercom_index + SERCOM0_GCLK_ID_CORE;
#elif (SAML21) || (SAMR30)
	if (sercom_index == 5) {
    2646:	2805      	cmp	r0, #5
    2648:	d00d      	beq.n	2666 <usart_init+0x3e>
		pm_index     = MCLK_APBDMASK_SERCOM5_Pos;
		gclk_index   = SERCOM5_GCLK_ID_CORE;
	} else {
		pm_index     = sercom_index + MCLK_APBCMASK_SERCOM0_Pos;
		gclk_index   = sercom_index + SERCOM0_GCLK_ID_CORE;
    264a:	0007      	movs	r7, r0
    264c:	3712      	adds	r7, #18
		pm_index     = sercom_index + MCLK_APBCMASK_SERCOM0_Pos;
    264e:	0003      	movs	r3, r0
#else
	pm_index     = sercom_index + PM_APBCMASK_SERCOM0_Pos;
	gclk_index   = sercom_index + SERCOM0_GCLK_ID_CORE;
#endif

	if (usart_hw->CTRLA.reg & SERCOM_USART_CTRLA_SWRST) {
    2650:	6821      	ldr	r1, [r4, #0]
		/* The module is busy resetting itself */
		return STATUS_BUSY;
    2652:	2005      	movs	r0, #5
	if (usart_hw->CTRLA.reg & SERCOM_USART_CTRLA_SWRST) {
    2654:	07c9      	lsls	r1, r1, #31
    2656:	d509      	bpl.n	266c <usart_init+0x44>
	_sercom_set_handler(instance_index, _usart_interrupt_handler);
	_sercom_instances[instance_index] = module;
#endif

	return status_code;
}
    2658:	b011      	add	sp, #68	; 0x44
    265a:	bc3c      	pop	{r2, r3, r4, r5}
    265c:	4690      	mov	r8, r2
    265e:	4699      	mov	r9, r3
    2660:	46a2      	mov	sl, r4
    2662:	46ab      	mov	fp, r5
    2664:	bdf0      	pop	{r4, r5, r6, r7, pc}
		gclk_index   = SERCOM5_GCLK_ID_CORE;
    2666:	2718      	movs	r7, #24
		pm_index     = MCLK_APBDMASK_SERCOM5_Pos;
    2668:	2301      	movs	r3, #1
    266a:	e7f1      	b.n	2650 <usart_init+0x28>
	if (usart_hw->CTRLA.reg & SERCOM_USART_CTRLA_ENABLE) {
    266c:	6821      	ldr	r1, [r4, #0]
		return STATUS_ERR_DENIED;
    266e:	3017      	adds	r0, #23
	if (usart_hw->CTRLA.reg & SERCOM_USART_CTRLA_ENABLE) {
    2670:	0789      	lsls	r1, r1, #30
    2672:	d4f1      	bmi.n	2658 <usart_init+0x30>
	if (sercom_index == 5) {
    2674:	2a05      	cmp	r2, #5
    2676:	d047      	beq.n	2708 <usart_init+0xe0>
			MCLK->APBCMASK.reg |= mask;
    2678:	49b6      	ldr	r1, [pc, #728]	; (2954 <usart_init+0x32c>)
    267a:	69c8      	ldr	r0, [r1, #28]
		system_apb_clock_set_mask(SYSTEM_CLOCK_APB_APBC, 1 << pm_index);	
    267c:	2201      	movs	r2, #1
    267e:	409a      	lsls	r2, r3
    2680:	0013      	movs	r3, r2
    2682:	4303      	orrs	r3, r0
    2684:	61cb      	str	r3, [r1, #28]
	gclk_chan_conf.source_generator = config->generator_source;
    2686:	a90f      	add	r1, sp, #60	; 0x3c
    2688:	232d      	movs	r3, #45	; 0x2d
    268a:	4698      	mov	r8, r3
    268c:	5cf3      	ldrb	r3, [r6, r3]
    268e:	700b      	strb	r3, [r1, #0]
	system_gclk_chan_set_config(gclk_index, &gclk_chan_conf);
    2690:	b2ff      	uxtb	r7, r7
    2692:	0038      	movs	r0, r7
    2694:	4bb0      	ldr	r3, [pc, #704]	; (2958 <usart_init+0x330>)
    2696:	4798      	blx	r3
	system_gclk_chan_enable(gclk_index);
    2698:	0038      	movs	r0, r7
    269a:	4bb0      	ldr	r3, [pc, #704]	; (295c <usart_init+0x334>)
    269c:	4798      	blx	r3
	sercom_set_gclk_generator(config->generator_source, false);
    269e:	4643      	mov	r3, r8
    26a0:	5cf0      	ldrb	r0, [r6, r3]
    26a2:	2100      	movs	r1, #0
    26a4:	4bae      	ldr	r3, [pc, #696]	; (2960 <usart_init+0x338>)
    26a6:	4798      	blx	r3
	module->character_size = config->character_size;
    26a8:	7af3      	ldrb	r3, [r6, #11]
    26aa:	716b      	strb	r3, [r5, #5]
	module->receiver_enabled = config->receiver_enable;
    26ac:	2324      	movs	r3, #36	; 0x24
    26ae:	5cf3      	ldrb	r3, [r6, r3]
    26b0:	71ab      	strb	r3, [r5, #6]
	module->transmitter_enabled = config->transmitter_enable;
    26b2:	2325      	movs	r3, #37	; 0x25
    26b4:	5cf3      	ldrb	r3, [r6, r3]
    26b6:	71eb      	strb	r3, [r5, #7]
	module->lin_slave_enabled = config->lin_slave_enable;
    26b8:	7ef3      	ldrb	r3, [r6, #27]
    26ba:	722b      	strb	r3, [r5, #8]
	module->start_frame_detection_enabled = config->start_frame_detection_enable;
    26bc:	7f33      	ldrb	r3, [r6, #28]
    26be:	726b      	strb	r3, [r5, #9]
	SercomUsart *const usart_hw = &(module->hw->USART);
    26c0:	682b      	ldr	r3, [r5, #0]
    26c2:	4698      	mov	r8, r3
	uint32_t sercom_index = _sercom_get_sercom_inst_index(module->hw);
    26c4:	0018      	movs	r0, r3
    26c6:	4ba2      	ldr	r3, [pc, #648]	; (2950 <usart_init+0x328>)
    26c8:	4798      	blx	r3
	uint32_t gclk_index   = sercom_index + SERCOM0_GCLK_ID_CORE;
    26ca:	3012      	adds	r0, #18
	uint16_t baud  = 0;
    26cc:	2200      	movs	r2, #0
    26ce:	230e      	movs	r3, #14
    26d0:	a906      	add	r1, sp, #24
    26d2:	468c      	mov	ip, r1
    26d4:	4463      	add	r3, ip
    26d6:	801a      	strh	r2, [r3, #0]
	switch (config->sample_rate) {
    26d8:	8a32      	ldrh	r2, [r6, #16]
    26da:	9202      	str	r2, [sp, #8]
    26dc:	2380      	movs	r3, #128	; 0x80
    26de:	01db      	lsls	r3, r3, #7
    26e0:	429a      	cmp	r2, r3
    26e2:	d100      	bne.n	26e6 <usart_init+0xbe>
    26e4:	e0a7      	b.n	2836 <usart_init+0x20e>
    26e6:	d917      	bls.n	2718 <usart_init+0xf0>
    26e8:	23c0      	movs	r3, #192	; 0xc0
    26ea:	01db      	lsls	r3, r3, #7
    26ec:	9a02      	ldr	r2, [sp, #8]
    26ee:	429a      	cmp	r2, r3
    26f0:	d100      	bne.n	26f4 <usart_init+0xcc>
    26f2:	e09b      	b.n	282c <usart_init+0x204>
    26f4:	2380      	movs	r3, #128	; 0x80
    26f6:	021b      	lsls	r3, r3, #8
    26f8:	429a      	cmp	r2, r3
    26fa:	d000      	beq.n	26fe <usart_init+0xd6>
    26fc:	e123      	b.n	2946 <usart_init+0x31e>
			sample_num = SERCOM_ASYNC_SAMPLE_NUM_3;
    26fe:	2303      	movs	r3, #3
    2700:	9306      	str	r3, [sp, #24]
			mode = SERCOM_ASYNC_OPERATION_MODE_ARITHMETIC;
    2702:	2300      	movs	r3, #0
    2704:	9307      	str	r3, [sp, #28]
    2706:	e010      	b.n	272a <usart_init+0x102>
			MCLK->APBDMASK.reg |= mask;
    2708:	4992      	ldr	r1, [pc, #584]	; (2954 <usart_init+0x32c>)
    270a:	6a08      	ldr	r0, [r1, #32]
		system_apb_clock_set_mask(SYSTEM_CLOCK_APB_APBD, 1 << pm_index);
    270c:	3a04      	subs	r2, #4
    270e:	409a      	lsls	r2, r3
    2710:	0013      	movs	r3, r2
    2712:	4303      	orrs	r3, r0
    2714:	620b      	str	r3, [r1, #32]
    2716:	e7b6      	b.n	2686 <usart_init+0x5e>
	switch (config->sample_rate) {
    2718:	2380      	movs	r3, #128	; 0x80
    271a:	019b      	lsls	r3, r3, #6
    271c:	429a      	cmp	r2, r3
    271e:	d000      	beq.n	2722 <usart_init+0xfa>
    2720:	e111      	b.n	2946 <usart_init+0x31e>
			sample_num = SERCOM_ASYNC_SAMPLE_NUM_16;
    2722:	2310      	movs	r3, #16
    2724:	9306      	str	r3, [sp, #24]
			mode = SERCOM_ASYNC_OPERATION_MODE_FRACTIONAL;
    2726:	3b0f      	subs	r3, #15
    2728:	9307      	str	r3, [sp, #28]
	ctrla = (uint32_t)config->data_order |
    272a:	6833      	ldr	r3, [r6, #0]
    272c:	9305      	str	r3, [sp, #20]
		(uint32_t)config->mux_setting |
    272e:	68f3      	ldr	r3, [r6, #12]
    2730:	469b      	mov	fp, r3
		config->sample_adjustment |
    2732:	6973      	ldr	r3, [r6, #20]
    2734:	9303      	str	r3, [sp, #12]
		(config->immediate_buffer_overflow_notification << SERCOM_USART_CTRLA_IBON_Pos) |
    2736:	7e33      	ldrb	r3, [r6, #24]
    2738:	9304      	str	r3, [sp, #16]
		(config->clock_polarity_inverted << SERCOM_USART_CTRLA_CPOL_Pos);
    273a:	2326      	movs	r3, #38	; 0x26
    273c:	5cf3      	ldrb	r3, [r6, r3]
    273e:	469a      	mov	sl, r3
	transfer_mode = (uint32_t)config->transfer_mode;
    2740:	6873      	ldr	r3, [r6, #4]
    2742:	4699      	mov	r9, r3
	switch (transfer_mode)
    2744:	2b00      	cmp	r3, #0
    2746:	d100      	bne.n	274a <usart_init+0x122>
    2748:	e09d      	b.n	2886 <usart_init+0x25e>
    274a:	2380      	movs	r3, #128	; 0x80
    274c:	055b      	lsls	r3, r3, #21
    274e:	4599      	cmp	r9, r3
    2750:	d104      	bne.n	275c <usart_init+0x134>
			if (!config->use_external_clock) {
    2752:	2327      	movs	r3, #39	; 0x27
    2754:	5cf3      	ldrb	r3, [r6, r3]
    2756:	2b00      	cmp	r3, #0
    2758:	d100      	bne.n	275c <usart_init+0x134>
    275a:	e082      	b.n	2862 <usart_init+0x23a>
	if(config->encoding_format_enable) {
    275c:	7e73      	ldrb	r3, [r6, #25]
    275e:	2b00      	cmp	r3, #0
    2760:	d002      	beq.n	2768 <usart_init+0x140>
		usart_hw->RXPL.reg = config->receive_pulse_length;
    2762:	7eb3      	ldrb	r3, [r6, #26]
    2764:	4642      	mov	r2, r8
    2766:	7393      	strb	r3, [r2, #14]
{
	/* Sanity check arguments */
	Assert(module);
	Assert(module->hw);

	SercomUsart *const usart_hw = &(module->hw->USART);
    2768:	682a      	ldr	r2, [r5, #0]
    276a:	9f02      	ldr	r7, [sp, #8]

#ifdef FEATURE_USART_SYNC_SCHEME_V2
	return (usart_hw->SYNCBUSY.reg);
    276c:	69d3      	ldr	r3, [r2, #28]
		const struct usart_module *const module)
{
	/* Sanity check */
	Assert(module);

	while (usart_is_syncing(module)) {
    276e:	2b00      	cmp	r3, #0
    2770:	d1fc      	bne.n	276c <usart_init+0x144>
	usart_hw->BAUD.reg = baud;
    2772:	330e      	adds	r3, #14
    2774:	aa06      	add	r2, sp, #24
    2776:	4694      	mov	ip, r2
    2778:	4463      	add	r3, ip
    277a:	881b      	ldrh	r3, [r3, #0]
    277c:	4642      	mov	r2, r8
    277e:	8193      	strh	r3, [r2, #12]
	ctrla |= transfer_mode;
    2780:	9b05      	ldr	r3, [sp, #20]
    2782:	465a      	mov	r2, fp
    2784:	4313      	orrs	r3, r2
    2786:	9a03      	ldr	r2, [sp, #12]
    2788:	4313      	orrs	r3, r2
    278a:	464a      	mov	r2, r9
    278c:	4313      	orrs	r3, r2
    278e:	431f      	orrs	r7, r3
		(config->immediate_buffer_overflow_notification << SERCOM_USART_CTRLA_IBON_Pos) |
    2790:	9b04      	ldr	r3, [sp, #16]
    2792:	021b      	lsls	r3, r3, #8
	ctrla |= transfer_mode;
    2794:	431f      	orrs	r7, r3
		(config->clock_polarity_inverted << SERCOM_USART_CTRLA_CPOL_Pos);
    2796:	4653      	mov	r3, sl
    2798:	075b      	lsls	r3, r3, #29
	ctrla |= transfer_mode;
    279a:	431f      	orrs	r7, r3
	if (config->use_external_clock == false) {
    279c:	2327      	movs	r3, #39	; 0x27
    279e:	5cf3      	ldrb	r3, [r6, r3]
    27a0:	2b00      	cmp	r3, #0
    27a2:	d101      	bne.n	27a8 <usart_init+0x180>
		ctrla |= SERCOM_USART_CTRLA_MODE(0x1);
    27a4:	3304      	adds	r3, #4
    27a6:	431f      	orrs	r7, r3
			(config->encoding_format_enable << SERCOM_USART_CTRLB_ENC_Pos) |
    27a8:	7e73      	ldrb	r3, [r6, #25]
    27aa:	029b      	lsls	r3, r3, #10
			(config->start_frame_detection_enable << SERCOM_USART_CTRLB_SFDE_Pos) |
    27ac:	7f32      	ldrb	r2, [r6, #28]
    27ae:	0252      	lsls	r2, r2, #9
			(config->encoding_format_enable << SERCOM_USART_CTRLB_ENC_Pos) |
    27b0:	4313      	orrs	r3, r2
			(config->collision_detection_enable << SERCOM_USART_CTRLB_COLDEN_Pos) |
    27b2:	7f72      	ldrb	r2, [r6, #29]
    27b4:	0212      	lsls	r2, r2, #8
			(config->start_frame_detection_enable << SERCOM_USART_CTRLB_SFDE_Pos) |
    27b6:	4313      	orrs	r3, r2
			(config->receiver_enable << SERCOM_USART_CTRLB_RXEN_Pos) |
    27b8:	2224      	movs	r2, #36	; 0x24
    27ba:	5cb2      	ldrb	r2, [r6, r2]
    27bc:	0452      	lsls	r2, r2, #17
			(config->collision_detection_enable << SERCOM_USART_CTRLB_COLDEN_Pos) |
    27be:	4313      	orrs	r3, r2
			(config->transmitter_enable << SERCOM_USART_CTRLB_TXEN_Pos);
    27c0:	2225      	movs	r2, #37	; 0x25
    27c2:	5cb2      	ldrb	r2, [r6, r2]
    27c4:	0412      	lsls	r2, r2, #16
			(config->receiver_enable << SERCOM_USART_CTRLB_RXEN_Pos) |
    27c6:	4313      	orrs	r3, r2
	ctrlb |= (uint32_t)config->character_size;
    27c8:	7af1      	ldrb	r1, [r6, #11]
    27ca:	4319      	orrs	r1, r3
	if (config->parity != USART_PARITY_NONE) {
    27cc:	8933      	ldrh	r3, [r6, #8]
    27ce:	2bff      	cmp	r3, #255	; 0xff
    27d0:	d07d      	beq.n	28ce <usart_init+0x2a6>
		ctrla |= SERCOM_USART_CTRLA_FORM(1);
    27d2:	2280      	movs	r2, #128	; 0x80
    27d4:	0452      	lsls	r2, r2, #17
    27d6:	4317      	orrs	r7, r2
		ctrlb |= config->parity;
    27d8:	4319      	orrs	r1, r3
	if (config->run_in_standby || system_is_debugger_present()) {
    27da:	232c      	movs	r3, #44	; 0x2c
    27dc:	5cf3      	ldrb	r3, [r6, r3]
    27de:	2b00      	cmp	r3, #0
    27e0:	d103      	bne.n	27ea <usart_init+0x1c2>
    27e2:	4b60      	ldr	r3, [pc, #384]	; (2964 <usart_init+0x33c>)
    27e4:	789b      	ldrb	r3, [r3, #2]
    27e6:	079b      	lsls	r3, r3, #30
    27e8:	d501      	bpl.n	27ee <usart_init+0x1c6>
		ctrla |= SERCOM_USART_CTRLA_RUNSTDBY;
    27ea:	2380      	movs	r3, #128	; 0x80
    27ec:	431f      	orrs	r7, r3
	SercomUsart *const usart_hw = &(module->hw->USART);
    27ee:	682a      	ldr	r2, [r5, #0]
	return (usart_hw->SYNCBUSY.reg);
    27f0:	69d3      	ldr	r3, [r2, #28]
	while (usart_is_syncing(module)) {
    27f2:	2b00      	cmp	r3, #0
    27f4:	d1fc      	bne.n	27f0 <usart_init+0x1c8>
	usart_hw->CTRLB.reg = ctrlb;
    27f6:	4643      	mov	r3, r8
    27f8:	6059      	str	r1, [r3, #4]
	SercomUsart *const usart_hw = &(module->hw->USART);
    27fa:	682a      	ldr	r2, [r5, #0]
	return (usart_hw->SYNCBUSY.reg);
    27fc:	69d3      	ldr	r3, [r2, #28]
	while (usart_is_syncing(module)) {
    27fe:	2b00      	cmp	r3, #0
    2800:	d1fc      	bne.n	27fc <usart_init+0x1d4>
	usart_hw->CTRLA.reg = ctrla;
    2802:	4643      	mov	r3, r8
    2804:	601f      	str	r7, [r3, #0]
	config->mux_position = SYSTEM_PINMUX_GPIO;
    2806:	ab0e      	add	r3, sp, #56	; 0x38
    2808:	2280      	movs	r2, #128	; 0x80
    280a:	701a      	strb	r2, [r3, #0]
	config->direction    = SYSTEM_PINMUX_PIN_DIR_INPUT;
    280c:	2200      	movs	r2, #0
    280e:	705a      	strb	r2, [r3, #1]
	config->powersave    = false;
    2810:	70da      	strb	r2, [r3, #3]
	pin_conf.input_pull = SYSTEM_PINMUX_PIN_PULL_NONE;
    2812:	709a      	strb	r2, [r3, #2]
	uint32_t pad_pinmuxes[] = {
    2814:	6b33      	ldr	r3, [r6, #48]	; 0x30
    2816:	930a      	str	r3, [sp, #40]	; 0x28
    2818:	6b73      	ldr	r3, [r6, #52]	; 0x34
    281a:	930b      	str	r3, [sp, #44]	; 0x2c
    281c:	6bb3      	ldr	r3, [r6, #56]	; 0x38
    281e:	930c      	str	r3, [sp, #48]	; 0x30
    2820:	6bf3      	ldr	r3, [r6, #60]	; 0x3c
    2822:	9302      	str	r3, [sp, #8]
    2824:	930d      	str	r3, [sp, #52]	; 0x34
    2826:	2700      	movs	r7, #0
		uint32_t current_pinmux = pad_pinmuxes[pad];
    2828:	ae0a      	add	r6, sp, #40	; 0x28
    282a:	e05e      	b.n	28ea <usart_init+0x2c2>
			sample_num = SERCOM_ASYNC_SAMPLE_NUM_8;
    282c:	2308      	movs	r3, #8
    282e:	9306      	str	r3, [sp, #24]
			mode = SERCOM_ASYNC_OPERATION_MODE_FRACTIONAL;
    2830:	3b07      	subs	r3, #7
    2832:	9307      	str	r3, [sp, #28]
    2834:	e779      	b.n	272a <usart_init+0x102>
	ctrla = (uint32_t)config->data_order |
    2836:	6833      	ldr	r3, [r6, #0]
    2838:	9305      	str	r3, [sp, #20]
		(uint32_t)config->mux_setting |
    283a:	68f3      	ldr	r3, [r6, #12]
    283c:	469b      	mov	fp, r3
		config->sample_adjustment |
    283e:	6973      	ldr	r3, [r6, #20]
    2840:	9303      	str	r3, [sp, #12]
		(config->immediate_buffer_overflow_notification << SERCOM_USART_CTRLA_IBON_Pos) |
    2842:	7e33      	ldrb	r3, [r6, #24]
    2844:	9304      	str	r3, [sp, #16]
		(config->clock_polarity_inverted << SERCOM_USART_CTRLA_CPOL_Pos);
    2846:	2326      	movs	r3, #38	; 0x26
    2848:	5cf3      	ldrb	r3, [r6, r3]
    284a:	469a      	mov	sl, r3
	transfer_mode = (uint32_t)config->transfer_mode;
    284c:	6873      	ldr	r3, [r6, #4]
    284e:	4699      	mov	r9, r3
	switch (transfer_mode)
    2850:	2b00      	cmp	r3, #0
    2852:	d014      	beq.n	287e <usart_init+0x256>
    2854:	2380      	movs	r3, #128	; 0x80
    2856:	055b      	lsls	r3, r3, #21
    2858:	4599      	cmp	r9, r3
    285a:	d100      	bne.n	285e <usart_init+0x236>
    285c:	e779      	b.n	2752 <usart_init+0x12a>
	enum status_code status_code = STATUS_OK;
    285e:	2000      	movs	r0, #0
    2860:	e020      	b.n	28a4 <usart_init+0x27c>
				status_code = _sercom_get_sync_baud_val(config->baudrate,
    2862:	6a33      	ldr	r3, [r6, #32]
    2864:	001f      	movs	r7, r3
    2866:	b2c0      	uxtb	r0, r0
    2868:	4b3f      	ldr	r3, [pc, #252]	; (2968 <usart_init+0x340>)
    286a:	4798      	blx	r3
    286c:	0001      	movs	r1, r0
    286e:	220e      	movs	r2, #14
    2870:	ab06      	add	r3, sp, #24
    2872:	469c      	mov	ip, r3
    2874:	4462      	add	r2, ip
    2876:	0038      	movs	r0, r7
    2878:	4b3c      	ldr	r3, [pc, #240]	; (296c <usart_init+0x344>)
    287a:	4798      	blx	r3
    287c:	e012      	b.n	28a4 <usart_init+0x27c>
			sample_num = SERCOM_ASYNC_SAMPLE_NUM_8;
    287e:	2308      	movs	r3, #8
    2880:	9306      	str	r3, [sp, #24]
			mode = SERCOM_ASYNC_OPERATION_MODE_ARITHMETIC;
    2882:	2300      	movs	r3, #0
    2884:	9307      	str	r3, [sp, #28]
			if (config->use_external_clock) {
    2886:	2327      	movs	r3, #39	; 0x27
    2888:	5cf3      	ldrb	r3, [r6, r3]
    288a:	2b00      	cmp	r3, #0
    288c:	d00e      	beq.n	28ac <usart_init+0x284>
				status_code =
    288e:	9b06      	ldr	r3, [sp, #24]
    2890:	9300      	str	r3, [sp, #0]
    2892:	9b07      	ldr	r3, [sp, #28]
    2894:	220e      	movs	r2, #14
    2896:	a906      	add	r1, sp, #24
    2898:	468c      	mov	ip, r1
    289a:	4462      	add	r2, ip
    289c:	6ab1      	ldr	r1, [r6, #40]	; 0x28
    289e:	6a30      	ldr	r0, [r6, #32]
    28a0:	4f33      	ldr	r7, [pc, #204]	; (2970 <usart_init+0x348>)
    28a2:	47b8      	blx	r7
	if (status_code != STATUS_OK) {
    28a4:	2800      	cmp	r0, #0
    28a6:	d000      	beq.n	28aa <usart_init+0x282>
    28a8:	e6d6      	b.n	2658 <usart_init+0x30>
    28aa:	e757      	b.n	275c <usart_init+0x134>
						_sercom_get_async_baud_val(config->baudrate,
    28ac:	6a33      	ldr	r3, [r6, #32]
    28ae:	001f      	movs	r7, r3
    28b0:	b2c0      	uxtb	r0, r0
    28b2:	4b2d      	ldr	r3, [pc, #180]	; (2968 <usart_init+0x340>)
    28b4:	4798      	blx	r3
    28b6:	0001      	movs	r1, r0
				status_code =
    28b8:	9b06      	ldr	r3, [sp, #24]
    28ba:	9300      	str	r3, [sp, #0]
    28bc:	9b07      	ldr	r3, [sp, #28]
    28be:	220e      	movs	r2, #14
    28c0:	a806      	add	r0, sp, #24
    28c2:	4684      	mov	ip, r0
    28c4:	4462      	add	r2, ip
    28c6:	0038      	movs	r0, r7
    28c8:	4f29      	ldr	r7, [pc, #164]	; (2970 <usart_init+0x348>)
    28ca:	47b8      	blx	r7
    28cc:	e7ea      	b.n	28a4 <usart_init+0x27c>
		if(config->lin_slave_enable) {
    28ce:	7ef3      	ldrb	r3, [r6, #27]
    28d0:	2b00      	cmp	r3, #0
    28d2:	d082      	beq.n	27da <usart_init+0x1b2>
			ctrla |= SERCOM_USART_CTRLA_FORM(0x4);
    28d4:	2380      	movs	r3, #128	; 0x80
    28d6:	04db      	lsls	r3, r3, #19
    28d8:	431f      	orrs	r7, r3
    28da:	e77e      	b.n	27da <usart_init+0x1b2>
			current_pinmux = _sercom_get_default_pad(hw, pad);
    28dc:	0020      	movs	r0, r4
    28de:	4b25      	ldr	r3, [pc, #148]	; (2974 <usart_init+0x34c>)
    28e0:	4798      	blx	r3
    28e2:	e007      	b.n	28f4 <usart_init+0x2cc>
    28e4:	3701      	adds	r7, #1
	for (uint8_t pad = 0; pad < 4; pad++) {
    28e6:	2f04      	cmp	r7, #4
    28e8:	d00d      	beq.n	2906 <usart_init+0x2de>
    28ea:	b2f9      	uxtb	r1, r7
		uint32_t current_pinmux = pad_pinmuxes[pad];
    28ec:	00bb      	lsls	r3, r7, #2
    28ee:	5998      	ldr	r0, [r3, r6]
		if (current_pinmux == PINMUX_DEFAULT) {
    28f0:	2800      	cmp	r0, #0
    28f2:	d0f3      	beq.n	28dc <usart_init+0x2b4>
		if (current_pinmux != PINMUX_UNUSED) {
    28f4:	1c43      	adds	r3, r0, #1
    28f6:	d0f5      	beq.n	28e4 <usart_init+0x2bc>
			pin_conf.mux_position = current_pinmux & 0xFFFF;
    28f8:	a90e      	add	r1, sp, #56	; 0x38
    28fa:	7008      	strb	r0, [r1, #0]
			system_pinmux_pin_set_config(current_pinmux >> 16, &pin_conf);
    28fc:	0c00      	lsrs	r0, r0, #16
    28fe:	b2c0      	uxtb	r0, r0
    2900:	4b1d      	ldr	r3, [pc, #116]	; (2978 <usart_init+0x350>)
    2902:	4798      	blx	r3
    2904:	e7ee      	b.n	28e4 <usart_init+0x2bc>
		module->callback[i]            = NULL;
    2906:	2300      	movs	r3, #0
    2908:	60eb      	str	r3, [r5, #12]
    290a:	612b      	str	r3, [r5, #16]
    290c:	616b      	str	r3, [r5, #20]
    290e:	61ab      	str	r3, [r5, #24]
    2910:	61eb      	str	r3, [r5, #28]
    2912:	622b      	str	r3, [r5, #32]
	module->tx_buffer_ptr              = NULL;
    2914:	62ab      	str	r3, [r5, #40]	; 0x28
	module->rx_buffer_ptr              = NULL;
    2916:	626b      	str	r3, [r5, #36]	; 0x24
	module->remaining_tx_buffer_length = 0x0000;
    2918:	2200      	movs	r2, #0
    291a:	85eb      	strh	r3, [r5, #46]	; 0x2e
	module->remaining_rx_buffer_length = 0x0000;
    291c:	85ab      	strh	r3, [r5, #44]	; 0x2c
	module->callback_reg_mask          = 0x00;
    291e:	3330      	adds	r3, #48	; 0x30
    2920:	54ea      	strb	r2, [r5, r3]
	module->callback_enable_mask       = 0x00;
    2922:	3301      	adds	r3, #1
    2924:	54ea      	strb	r2, [r5, r3]
	module->rx_status                  = STATUS_OK;
    2926:	3301      	adds	r3, #1
    2928:	54ea      	strb	r2, [r5, r3]
	module->tx_status                  = STATUS_OK;
    292a:	3301      	adds	r3, #1
    292c:	54ea      	strb	r2, [r5, r3]
	uint8_t instance_index = _sercom_get_sercom_inst_index(module->hw);
    292e:	6828      	ldr	r0, [r5, #0]
    2930:	4b07      	ldr	r3, [pc, #28]	; (2950 <usart_init+0x328>)
    2932:	4798      	blx	r3
    2934:	0004      	movs	r4, r0
	_sercom_set_handler(instance_index, _usart_interrupt_handler);
    2936:	4911      	ldr	r1, [pc, #68]	; (297c <usart_init+0x354>)
    2938:	4b11      	ldr	r3, [pc, #68]	; (2980 <usart_init+0x358>)
    293a:	4798      	blx	r3
	_sercom_instances[instance_index] = module;
    293c:	00a4      	lsls	r4, r4, #2
    293e:	4b11      	ldr	r3, [pc, #68]	; (2984 <usart_init+0x35c>)
    2940:	50e5      	str	r5, [r4, r3]
	return status_code;
    2942:	2000      	movs	r0, #0
    2944:	e688      	b.n	2658 <usart_init+0x30>
	enum sercom_asynchronous_sample_num sample_num = SERCOM_ASYNC_SAMPLE_NUM_16;
    2946:	2310      	movs	r3, #16
    2948:	9306      	str	r3, [sp, #24]
	enum sercom_asynchronous_operation_mode mode = SERCOM_ASYNC_OPERATION_MODE_ARITHMETIC;
    294a:	2300      	movs	r3, #0
    294c:	9307      	str	r3, [sp, #28]
    294e:	e6ec      	b.n	272a <usart_init+0x102>
    2950:	00000f3d 	.word	0x00000f3d
    2954:	40000400 	.word	0x40000400
    2958:	00003899 	.word	0x00003899
    295c:	00003829 	.word	0x00003829
    2960:	00000d7d 	.word	0x00000d7d
    2964:	41002000 	.word	0x41002000
    2968:	000038bd 	.word	0x000038bd
    296c:	00000b85 	.word	0x00000b85
    2970:	00000bad 	.word	0x00000bad
    2974:	00000dc9 	.word	0x00000dc9
    2978:	00003995 	.word	0x00003995
    297c:	00002ae5 	.word	0x00002ae5
    2980:	00002c7d 	.word	0x00002c7d
    2984:	20003d5c 	.word	0x20003d5c

00002988 <usart_write_wait>:

	/* Get a pointer to the hardware module instance */
	SercomUsart *const usart_hw = &(module->hw->USART);

	/* Check that the transmitter is enabled */
	if (!(module->transmitter_enabled)) {
    2988:	79c2      	ldrb	r2, [r0, #7]
		return STATUS_ERR_DENIED;
    298a:	231c      	movs	r3, #28
	if (!(module->transmitter_enabled)) {
    298c:	2a00      	cmp	r2, #0
    298e:	d101      	bne.n	2994 <usart_write_wait+0xc>
	while (!(usart_hw->INTFLAG.reg & SERCOM_USART_INTFLAG_TXC)) {
		/* Wait until data is sent */
	}

	return STATUS_OK;
}
    2990:	0018      	movs	r0, r3
    2992:	4770      	bx	lr
	if (module->remaining_tx_buffer_length > 0) {
    2994:	8dc2      	ldrh	r2, [r0, #46]	; 0x2e
    2996:	b292      	uxth	r2, r2
		return STATUS_BUSY;
    2998:	3b17      	subs	r3, #23
	if (module->remaining_tx_buffer_length > 0) {
    299a:	2a00      	cmp	r2, #0
    299c:	d1f8      	bne.n	2990 <usart_write_wait+0x8>
	SercomUsart *const usart_hw = &(module->hw->USART);
    299e:	6803      	ldr	r3, [r0, #0]
	return (usart_hw->SYNCBUSY.reg);
    29a0:	69da      	ldr	r2, [r3, #28]
	while (usart_is_syncing(module)) {
    29a2:	2a00      	cmp	r2, #0
    29a4:	d1fc      	bne.n	29a0 <usart_write_wait+0x18>
	usart_hw->DATA.reg = tx_data;
    29a6:	8519      	strh	r1, [r3, #40]	; 0x28
	while (!(usart_hw->INTFLAG.reg & SERCOM_USART_INTFLAG_TXC)) {
    29a8:	2102      	movs	r1, #2
    29aa:	7e1a      	ldrb	r2, [r3, #24]
    29ac:	420a      	tst	r2, r1
    29ae:	d0fc      	beq.n	29aa <usart_write_wait+0x22>
	return STATUS_OK;
    29b0:	2300      	movs	r3, #0
    29b2:	e7ed      	b.n	2990 <usart_write_wait+0x8>

000029b4 <usart_read_wait>:

	/* Get a pointer to the hardware module instance */
	SercomUsart *const usart_hw = &(module->hw->USART);

	/* Check that the receiver is enabled */
	if (!(module->receiver_enabled)) {
    29b4:	7982      	ldrb	r2, [r0, #6]
		return STATUS_ERR_DENIED;
    29b6:	231c      	movs	r3, #28
	if (!(module->receiver_enabled)) {
    29b8:	2a00      	cmp	r2, #0
    29ba:	d101      	bne.n	29c0 <usart_read_wait+0xc>

	/* Read data from USART module */
	*rx_data = usart_hw->DATA.reg;

	return STATUS_OK;
}
    29bc:	0018      	movs	r0, r3
    29be:	4770      	bx	lr
	if (module->remaining_rx_buffer_length > 0) {
    29c0:	8d82      	ldrh	r2, [r0, #44]	; 0x2c
    29c2:	b292      	uxth	r2, r2
		return STATUS_BUSY;
    29c4:	3b17      	subs	r3, #23
	if (module->remaining_rx_buffer_length > 0) {
    29c6:	2a00      	cmp	r2, #0
    29c8:	d1f8      	bne.n	29bc <usart_read_wait+0x8>
	SercomUsart *const usart_hw = &(module->hw->USART);
    29ca:	6802      	ldr	r2, [r0, #0]
	if (!(usart_hw->INTFLAG.reg & SERCOM_USART_INTFLAG_RXC)) {
    29cc:	7e10      	ldrb	r0, [r2, #24]
    29ce:	0740      	lsls	r0, r0, #29
    29d0:	d5f4      	bpl.n	29bc <usart_read_wait+0x8>
	return (usart_hw->SYNCBUSY.reg);
    29d2:	69d3      	ldr	r3, [r2, #28]
	while (usart_is_syncing(module)) {
    29d4:	2b00      	cmp	r3, #0
    29d6:	d1fc      	bne.n	29d2 <usart_read_wait+0x1e>
	error_code = (uint8_t)(usart_hw->STATUS.reg & SERCOM_USART_STATUS_MASK);
    29d8:	8b53      	ldrh	r3, [r2, #26]
    29da:	b2db      	uxtb	r3, r3
	if (error_code) {
    29dc:	0698      	lsls	r0, r3, #26
    29de:	d01d      	beq.n	2a1c <usart_read_wait+0x68>
		if (error_code & SERCOM_USART_STATUS_FERR) {
    29e0:	0798      	lsls	r0, r3, #30
    29e2:	d503      	bpl.n	29ec <usart_read_wait+0x38>
			usart_hw->STATUS.reg = SERCOM_USART_STATUS_FERR;
    29e4:	2302      	movs	r3, #2
    29e6:	8353      	strh	r3, [r2, #26]
			return STATUS_ERR_BAD_FORMAT;
    29e8:	3318      	adds	r3, #24
    29ea:	e7e7      	b.n	29bc <usart_read_wait+0x8>
		} else if (error_code & SERCOM_USART_STATUS_BUFOVF) {
    29ec:	0758      	lsls	r0, r3, #29
    29ee:	d503      	bpl.n	29f8 <usart_read_wait+0x44>
			usart_hw->STATUS.reg = SERCOM_USART_STATUS_BUFOVF;
    29f0:	2304      	movs	r3, #4
    29f2:	8353      	strh	r3, [r2, #26]
			return STATUS_ERR_OVERFLOW;
    29f4:	331a      	adds	r3, #26
    29f6:	e7e1      	b.n	29bc <usart_read_wait+0x8>
		} else if (error_code & SERCOM_USART_STATUS_PERR) {
    29f8:	07d8      	lsls	r0, r3, #31
    29fa:	d503      	bpl.n	2a04 <usart_read_wait+0x50>
			usart_hw->STATUS.reg = SERCOM_USART_STATUS_PERR;
    29fc:	2301      	movs	r3, #1
    29fe:	8353      	strh	r3, [r2, #26]
			return STATUS_ERR_BAD_DATA;
    2a00:	3312      	adds	r3, #18
    2a02:	e7db      	b.n	29bc <usart_read_wait+0x8>
		else if (error_code & SERCOM_USART_STATUS_ISF) {
    2a04:	06d8      	lsls	r0, r3, #27
    2a06:	d503      	bpl.n	2a10 <usart_read_wait+0x5c>
			usart_hw->STATUS.reg = SERCOM_USART_STATUS_ISF;
    2a08:	2310      	movs	r3, #16
    2a0a:	8353      	strh	r3, [r2, #26]
			return STATUS_ERR_PROTOCOL;
    2a0c:	3332      	adds	r3, #50	; 0x32
    2a0e:	e7d5      	b.n	29bc <usart_read_wait+0x8>
		else if (error_code & SERCOM_USART_STATUS_COLL) {
    2a10:	069b      	lsls	r3, r3, #26
    2a12:	d503      	bpl.n	2a1c <usart_read_wait+0x68>
			usart_hw->STATUS.reg = SERCOM_USART_STATUS_COLL;
    2a14:	2320      	movs	r3, #32
    2a16:	8353      	strh	r3, [r2, #26]
			return STATUS_ERR_PACKET_COLLISION;
    2a18:	3321      	adds	r3, #33	; 0x21
    2a1a:	e7cf      	b.n	29bc <usart_read_wait+0x8>
	*rx_data = usart_hw->DATA.reg;
    2a1c:	8d13      	ldrh	r3, [r2, #40]	; 0x28
    2a1e:	800b      	strh	r3, [r1, #0]
	return STATUS_OK;
    2a20:	2300      	movs	r3, #0
    2a22:	e7cb      	b.n	29bc <usart_read_wait+0x8>

00002a24 <usart_write_buffer_wait>:
 */
enum status_code usart_write_buffer_wait(
		struct usart_module *const module,
		const uint8_t *tx_data,
		uint16_t length)
{
    2a24:	b5f0      	push	{r4, r5, r6, r7, lr}
    2a26:	46ce      	mov	lr, r9
    2a28:	4647      	mov	r7, r8
    2a2a:	b580      	push	{r7, lr}
    2a2c:	b083      	sub	sp, #12
    2a2e:	0005      	movs	r5, r0
    2a30:	9101      	str	r1, [sp, #4]
	Assert(module);
	Assert(module->hw);

	/* Check if the buffer length is valid */
	if (length == 0) {
		return STATUS_ERR_INVALID_ARG;
    2a32:	2017      	movs	r0, #23
	if (length == 0) {
    2a34:	2a00      	cmp	r2, #0
    2a36:	d104      	bne.n	2a42 <usart_write_buffer_wait+0x1e>
			return STATUS_ERR_TIMEOUT;
		}
	}

	return STATUS_OK;
}
    2a38:	b003      	add	sp, #12
    2a3a:	bc0c      	pop	{r2, r3}
    2a3c:	4690      	mov	r8, r2
    2a3e:	4699      	mov	r9, r3
    2a40:	bdf0      	pop	{r4, r5, r6, r7, pc}
	if (!(module->transmitter_enabled)) {
    2a42:	79eb      	ldrb	r3, [r5, #7]
		return STATUS_ERR_DENIED;
    2a44:	3005      	adds	r0, #5
	if (!(module->transmitter_enabled)) {
    2a46:	2b00      	cmp	r3, #0
    2a48:	d0f6      	beq.n	2a38 <usart_write_buffer_wait+0x14>
	SercomUsart *const usart_hw = &(module->hw->USART);
    2a4a:	682c      	ldr	r4, [r5, #0]
	return (usart_hw->SYNCBUSY.reg);
    2a4c:	69e3      	ldr	r3, [r4, #28]
	while (usart_is_syncing(module)) {
    2a4e:	2b00      	cmp	r3, #0
    2a50:	d1fc      	bne.n	2a4c <usart_write_buffer_wait+0x28>
	while (length--) {
    2a52:	3a01      	subs	r2, #1
    2a54:	b293      	uxth	r3, r2
    2a56:	4699      	mov	r9, r3
    2a58:	2600      	movs	r6, #0
			if (usart_hw->INTFLAG.reg & SERCOM_USART_INTFLAG_DRE) {
    2a5a:	2701      	movs	r7, #1
	while (length--) {
    2a5c:	4b1f      	ldr	r3, [pc, #124]	; (2adc <usart_write_buffer_wait+0xb8>)
    2a5e:	4698      	mov	r8, r3
    2a60:	e011      	b.n	2a86 <usart_write_buffer_wait+0x62>
		uint16_t data_to_send = tx_data[tx_pos++];
    2a62:	1c73      	adds	r3, r6, #1
    2a64:	b29b      	uxth	r3, r3
    2a66:	9a01      	ldr	r2, [sp, #4]
    2a68:	5d91      	ldrb	r1, [r2, r6]
		if (module->character_size == USART_CHARACTER_SIZE_9BIT) {
    2a6a:	796a      	ldrb	r2, [r5, #5]
    2a6c:	2a01      	cmp	r2, #1
    2a6e:	d017      	beq.n	2aa0 <usart_write_buffer_wait+0x7c>
		uint16_t data_to_send = tx_data[tx_pos++];
    2a70:	b289      	uxth	r1, r1
    2a72:	001e      	movs	r6, r3
		usart_write_wait(module, data_to_send);
    2a74:	0028      	movs	r0, r5
    2a76:	4b1a      	ldr	r3, [pc, #104]	; (2ae0 <usart_write_buffer_wait+0xbc>)
    2a78:	4798      	blx	r3
	while (length--) {
    2a7a:	464b      	mov	r3, r9
    2a7c:	3b01      	subs	r3, #1
    2a7e:	b29b      	uxth	r3, r3
    2a80:	4699      	mov	r9, r3
    2a82:	4543      	cmp	r3, r8
    2a84:	d013      	beq.n	2aae <usart_write_buffer_wait+0x8a>
			if (usart_hw->INTFLAG.reg & SERCOM_USART_INTFLAG_DRE) {
    2a86:	7e23      	ldrb	r3, [r4, #24]
    2a88:	423b      	tst	r3, r7
    2a8a:	d1ea      	bne.n	2a62 <usart_write_buffer_wait+0x3e>
    2a8c:	4b13      	ldr	r3, [pc, #76]	; (2adc <usart_write_buffer_wait+0xb8>)
    2a8e:	7e22      	ldrb	r2, [r4, #24]
    2a90:	423a      	tst	r2, r7
    2a92:	d1e6      	bne.n	2a62 <usart_write_buffer_wait+0x3e>
			} else if (i == USART_TIMEOUT) {
    2a94:	2b01      	cmp	r3, #1
    2a96:	d019      	beq.n	2acc <usart_write_buffer_wait+0xa8>
    2a98:	3b01      	subs	r3, #1
		for (uint32_t i = 0; i <= USART_TIMEOUT; i++) {
    2a9a:	2b00      	cmp	r3, #0
    2a9c:	d1f7      	bne.n	2a8e <usart_write_buffer_wait+0x6a>
    2a9e:	e7e0      	b.n	2a62 <usart_write_buffer_wait+0x3e>
			data_to_send |= (tx_data[tx_pos++] << 8);
    2aa0:	3602      	adds	r6, #2
    2aa2:	b2b6      	uxth	r6, r6
    2aa4:	9a01      	ldr	r2, [sp, #4]
    2aa6:	5cd3      	ldrb	r3, [r2, r3]
    2aa8:	021b      	lsls	r3, r3, #8
    2aaa:	4319      	orrs	r1, r3
    2aac:	e7e2      	b.n	2a74 <usart_write_buffer_wait+0x50>
		if (usart_hw->INTFLAG.reg & SERCOM_USART_INTFLAG_TXC) {
    2aae:	7e23      	ldrb	r3, [r4, #24]
    2ab0:	079b      	lsls	r3, r3, #30
    2ab2:	d40d      	bmi.n	2ad0 <usart_write_buffer_wait+0xac>
    2ab4:	4b09      	ldr	r3, [pc, #36]	; (2adc <usart_write_buffer_wait+0xb8>)
    2ab6:	2102      	movs	r1, #2
    2ab8:	7e22      	ldrb	r2, [r4, #24]
    2aba:	420a      	tst	r2, r1
    2abc:	d10a      	bne.n	2ad4 <usart_write_buffer_wait+0xb0>
		} else if (i == USART_TIMEOUT) {
    2abe:	2b01      	cmp	r3, #1
    2ac0:	d00a      	beq.n	2ad8 <usart_write_buffer_wait+0xb4>
    2ac2:	3b01      	subs	r3, #1
	for (uint32_t i = 0; i <= USART_TIMEOUT; i++) {
    2ac4:	2b00      	cmp	r3, #0
    2ac6:	d1f7      	bne.n	2ab8 <usart_write_buffer_wait+0x94>
	return STATUS_OK;
    2ac8:	2000      	movs	r0, #0
    2aca:	e7b5      	b.n	2a38 <usart_write_buffer_wait+0x14>
				return STATUS_ERR_TIMEOUT;
    2acc:	2012      	movs	r0, #18
    2ace:	e7b3      	b.n	2a38 <usart_write_buffer_wait+0x14>
	return STATUS_OK;
    2ad0:	2000      	movs	r0, #0
    2ad2:	e7b1      	b.n	2a38 <usart_write_buffer_wait+0x14>
    2ad4:	2000      	movs	r0, #0
    2ad6:	e7af      	b.n	2a38 <usart_write_buffer_wait+0x14>
			return STATUS_ERR_TIMEOUT;
    2ad8:	2012      	movs	r0, #18
    2ada:	e7ad      	b.n	2a38 <usart_write_buffer_wait+0x14>
    2adc:	0000ffff 	.word	0x0000ffff
    2ae0:	00002989 	.word	0x00002989

00002ae4 <_usart_interrupt_handler>:
 * \param[in]  instance  ID of the SERCOM instance calling the interrupt
 *                       handler.
 */
void _usart_interrupt_handler(
		uint8_t instance)
{
    2ae4:	b5f8      	push	{r3, r4, r5, r6, r7, lr}
	uint16_t callback_status;
	uint8_t error_code;


	/* Get device instance from the look-up table */
	struct usart_module *module
    2ae6:	0080      	lsls	r0, r0, #2
    2ae8:	4b62      	ldr	r3, [pc, #392]	; (2c74 <_usart_interrupt_handler+0x190>)
    2aea:	58c5      	ldr	r5, [r0, r3]
		= (struct usart_module *)_sercom_instances[instance];

	/* Pointer to the hardware module instance */
	SercomUsart *const usart_hw
		= &(module->hw->USART);
    2aec:	682c      	ldr	r4, [r5, #0]
	return (usart_hw->SYNCBUSY.reg);
    2aee:	69e3      	ldr	r3, [r4, #28]
	while (usart_is_syncing(module)) {
    2af0:	2b00      	cmp	r3, #0
    2af2:	d1fc      	bne.n	2aee <_usart_interrupt_handler+0xa>

	/* Wait for the synchronization to complete */
	_usart_wait_for_sync(module);

	/* Read and mask interrupt flag register */
	interrupt_status = usart_hw->INTFLAG.reg;
    2af4:	7e23      	ldrb	r3, [r4, #24]
	interrupt_status &= usart_hw->INTENSET.reg;
    2af6:	7da6      	ldrb	r6, [r4, #22]
    2af8:	401e      	ands	r6, r3
	callback_status = module->callback_reg_mask &
    2afa:	2330      	movs	r3, #48	; 0x30
    2afc:	5ceb      	ldrb	r3, [r5, r3]
    2afe:	2231      	movs	r2, #49	; 0x31
    2b00:	5caf      	ldrb	r7, [r5, r2]
    2b02:	401f      	ands	r7, r3
			module->callback_enable_mask;

	/* Check if a DATA READY interrupt has occurred,
	 * and if there is more to transfer */
	if (interrupt_status & SERCOM_USART_INTFLAG_DRE) {
    2b04:	07f3      	lsls	r3, r6, #31
    2b06:	d522      	bpl.n	2b4e <_usart_interrupt_handler+0x6a>
		if (module->remaining_tx_buffer_length) {
    2b08:	8deb      	ldrh	r3, [r5, #46]	; 0x2e
    2b0a:	b29b      	uxth	r3, r3
    2b0c:	2b00      	cmp	r3, #0
    2b0e:	d01c      	beq.n	2b4a <_usart_interrupt_handler+0x66>
			/* Write value will be at least 8-bits long */
			uint16_t data_to_send = *(module->tx_buffer_ptr);
    2b10:	6aaa      	ldr	r2, [r5, #40]	; 0x28
    2b12:	7813      	ldrb	r3, [r2, #0]
    2b14:	b2db      	uxtb	r3, r3
			/* Increment 8-bit pointer */
			(module->tx_buffer_ptr)++;
    2b16:	1c51      	adds	r1, r2, #1
    2b18:	62a9      	str	r1, [r5, #40]	; 0x28

			if (module->character_size == USART_CHARACTER_SIZE_9BIT) {
    2b1a:	7969      	ldrb	r1, [r5, #5]
    2b1c:	2901      	cmp	r1, #1
    2b1e:	d00e      	beq.n	2b3e <_usart_interrupt_handler+0x5a>
			uint16_t data_to_send = *(module->tx_buffer_ptr);
    2b20:	b29b      	uxth	r3, r3
				data_to_send |= (*(module->tx_buffer_ptr) << 8);
				/* Increment 8-bit pointer */
				(module->tx_buffer_ptr)++;
			}
			/* Write the data to send */
			usart_hw->DATA.reg = (data_to_send & SERCOM_USART_DATA_MASK);
    2b22:	05db      	lsls	r3, r3, #23
    2b24:	0ddb      	lsrs	r3, r3, #23
    2b26:	8523      	strh	r3, [r4, #40]	; 0x28

			if (--(module->remaining_tx_buffer_length) == 0) {
    2b28:	8deb      	ldrh	r3, [r5, #46]	; 0x2e
    2b2a:	3b01      	subs	r3, #1
    2b2c:	b29b      	uxth	r3, r3
    2b2e:	85eb      	strh	r3, [r5, #46]	; 0x2e
    2b30:	2b00      	cmp	r3, #0
    2b32:	d10c      	bne.n	2b4e <_usart_interrupt_handler+0x6a>
				/* Disable the Data Register Empty Interrupt */
				usart_hw->INTENCLR.reg = SERCOM_USART_INTFLAG_DRE;
    2b34:	3301      	adds	r3, #1
    2b36:	7523      	strb	r3, [r4, #20]
				/* Enable Transmission Complete interrupt */
				usart_hw->INTENSET.reg = SERCOM_USART_INTFLAG_TXC;
    2b38:	3301      	adds	r3, #1
    2b3a:	75a3      	strb	r3, [r4, #22]
    2b3c:	e007      	b.n	2b4e <_usart_interrupt_handler+0x6a>
				data_to_send |= (*(module->tx_buffer_ptr) << 8);
    2b3e:	7851      	ldrb	r1, [r2, #1]
    2b40:	0209      	lsls	r1, r1, #8
    2b42:	430b      	orrs	r3, r1
				(module->tx_buffer_ptr)++;
    2b44:	3202      	adds	r2, #2
    2b46:	62aa      	str	r2, [r5, #40]	; 0x28
    2b48:	e7eb      	b.n	2b22 <_usart_interrupt_handler+0x3e>

			}
		} else {
			usart_hw->INTENCLR.reg = SERCOM_USART_INTFLAG_DRE;
    2b4a:	2301      	movs	r3, #1
    2b4c:	7523      	strb	r3, [r4, #20]
		}
	}

	/* Check if the Transmission Complete interrupt has occurred and
	 * that the transmit buffer is empty */
	if (interrupt_status & SERCOM_USART_INTFLAG_TXC) {
    2b4e:	07b3      	lsls	r3, r6, #30
    2b50:	d506      	bpl.n	2b60 <_usart_interrupt_handler+0x7c>

		/* Disable TX Complete Interrupt, and set STATUS_OK */
		usart_hw->INTENCLR.reg = SERCOM_USART_INTFLAG_TXC;
    2b52:	2302      	movs	r3, #2
    2b54:	7523      	strb	r3, [r4, #20]
		module->tx_status = STATUS_OK;
    2b56:	2200      	movs	r2, #0
    2b58:	3331      	adds	r3, #49	; 0x31
    2b5a:	54ea      	strb	r2, [r5, r3]

		/* Run callback if registered and enabled */
		if (callback_status & (1 << USART_CALLBACK_BUFFER_TRANSMITTED)) {
    2b5c:	07fb      	lsls	r3, r7, #31
    2b5e:	d41a      	bmi.n	2b96 <_usart_interrupt_handler+0xb2>
		}
	}

	/* Check if the Receive Complete interrupt has occurred, and that
	 * there's more data to receive */
	if (interrupt_status & SERCOM_USART_INTFLAG_RXC) {
    2b60:	0773      	lsls	r3, r6, #29
    2b62:	d565      	bpl.n	2c30 <_usart_interrupt_handler+0x14c>

		if (module->remaining_rx_buffer_length) {
    2b64:	8dab      	ldrh	r3, [r5, #44]	; 0x2c
    2b66:	b29b      	uxth	r3, r3
    2b68:	2b00      	cmp	r3, #0
    2b6a:	d05f      	beq.n	2c2c <_usart_interrupt_handler+0x148>
			/* Read out the status code and mask away all but the 4 LSBs*/
			error_code = (uint8_t)(usart_hw->STATUS.reg & SERCOM_USART_STATUS_MASK);
    2b6c:	8b63      	ldrh	r3, [r4, #26]
    2b6e:	b2db      	uxtb	r3, r3
#if !SAMD20
			/* CTS status should not be considered as an error */
			if(error_code & SERCOM_USART_STATUS_CTS) {
    2b70:	071a      	lsls	r2, r3, #28
    2b72:	d414      	bmi.n	2b9e <_usart_interrupt_handler+0xba>
			error_code = (uint8_t)(usart_hw->STATUS.reg & SERCOM_USART_STATUS_MASK);
    2b74:	223f      	movs	r2, #63	; 0x3f
    2b76:	4013      	ands	r3, r2
			if(error_code & SERCOM_USART_STATUS_TXE) {
				error_code &= ~SERCOM_USART_STATUS_TXE;
			}
#endif
			/* Check if an error has occurred during the receiving */
			if (error_code) {
    2b78:	2b00      	cmp	r3, #0
    2b7a:	d034      	beq.n	2be6 <_usart_interrupt_handler+0x102>
				/* Check which error occurred */
				if (error_code & SERCOM_USART_STATUS_FERR) {
    2b7c:	079a      	lsls	r2, r3, #30
    2b7e:	d511      	bpl.n	2ba4 <_usart_interrupt_handler+0xc0>
					/* Store the error code and clear flag by writing 1 to it */
					module->rx_status = STATUS_ERR_BAD_FORMAT;
    2b80:	221a      	movs	r2, #26
    2b82:	2332      	movs	r3, #50	; 0x32
    2b84:	54ea      	strb	r2, [r5, r3]
					usart_hw->STATUS.reg = SERCOM_USART_STATUS_FERR;
    2b86:	3b30      	subs	r3, #48	; 0x30
    2b88:	8363      	strh	r3, [r4, #26]
					usart_hw->STATUS.reg = SERCOM_USART_STATUS_COLL;
				}
#endif

				/* Run callback if registered and enabled */
				if (callback_status
    2b8a:	077b      	lsls	r3, r7, #29
    2b8c:	d550      	bpl.n	2c30 <_usart_interrupt_handler+0x14c>
						& (1 << USART_CALLBACK_ERROR)) {
					(*(module->callback[USART_CALLBACK_ERROR]))(module);
    2b8e:	0028      	movs	r0, r5
    2b90:	696b      	ldr	r3, [r5, #20]
    2b92:	4798      	blx	r3
    2b94:	e04c      	b.n	2c30 <_usart_interrupt_handler+0x14c>
			(*(module->callback[USART_CALLBACK_BUFFER_TRANSMITTED]))(module);
    2b96:	0028      	movs	r0, r5
    2b98:	68eb      	ldr	r3, [r5, #12]
    2b9a:	4798      	blx	r3
    2b9c:	e7e0      	b.n	2b60 <_usart_interrupt_handler+0x7c>
				error_code &= ~SERCOM_USART_STATUS_CTS;
    2b9e:	2237      	movs	r2, #55	; 0x37
    2ba0:	4013      	ands	r3, r2
    2ba2:	e7e9      	b.n	2b78 <_usart_interrupt_handler+0x94>
				} else if (error_code & SERCOM_USART_STATUS_BUFOVF) {
    2ba4:	075a      	lsls	r2, r3, #29
    2ba6:	d505      	bpl.n	2bb4 <_usart_interrupt_handler+0xd0>
					module->rx_status = STATUS_ERR_OVERFLOW;
    2ba8:	221e      	movs	r2, #30
    2baa:	2332      	movs	r3, #50	; 0x32
    2bac:	54ea      	strb	r2, [r5, r3]
					usart_hw->STATUS.reg = SERCOM_USART_STATUS_BUFOVF;
    2bae:	3b2e      	subs	r3, #46	; 0x2e
    2bb0:	8363      	strh	r3, [r4, #26]
    2bb2:	e7ea      	b.n	2b8a <_usart_interrupt_handler+0xa6>
				} else if (error_code & SERCOM_USART_STATUS_PERR) {
    2bb4:	07da      	lsls	r2, r3, #31
    2bb6:	d505      	bpl.n	2bc4 <_usart_interrupt_handler+0xe0>
					module->rx_status = STATUS_ERR_BAD_DATA;
    2bb8:	2213      	movs	r2, #19
    2bba:	2332      	movs	r3, #50	; 0x32
    2bbc:	54ea      	strb	r2, [r5, r3]
					usart_hw->STATUS.reg = SERCOM_USART_STATUS_PERR;
    2bbe:	3b31      	subs	r3, #49	; 0x31
    2bc0:	8363      	strh	r3, [r4, #26]
    2bc2:	e7e2      	b.n	2b8a <_usart_interrupt_handler+0xa6>
				else if (error_code & SERCOM_USART_STATUS_ISF) {
    2bc4:	06da      	lsls	r2, r3, #27
    2bc6:	d505      	bpl.n	2bd4 <_usart_interrupt_handler+0xf0>
					module->rx_status = STATUS_ERR_PROTOCOL;
    2bc8:	2242      	movs	r2, #66	; 0x42
    2bca:	2332      	movs	r3, #50	; 0x32
    2bcc:	54ea      	strb	r2, [r5, r3]
					usart_hw->STATUS.reg = SERCOM_USART_STATUS_ISF;
    2bce:	3b22      	subs	r3, #34	; 0x22
    2bd0:	8363      	strh	r3, [r4, #26]
    2bd2:	e7da      	b.n	2b8a <_usart_interrupt_handler+0xa6>
				else if (error_code & SERCOM_USART_STATUS_COLL) {
    2bd4:	2220      	movs	r2, #32
    2bd6:	421a      	tst	r2, r3
    2bd8:	d0d7      	beq.n	2b8a <_usart_interrupt_handler+0xa6>
					module->rx_status = STATUS_ERR_PACKET_COLLISION;
    2bda:	3221      	adds	r2, #33	; 0x21
    2bdc:	2332      	movs	r3, #50	; 0x32
    2bde:	54ea      	strb	r2, [r5, r3]
					usart_hw->STATUS.reg = SERCOM_USART_STATUS_COLL;
    2be0:	3b12      	subs	r3, #18
    2be2:	8363      	strh	r3, [r4, #26]
    2be4:	e7d1      	b.n	2b8a <_usart_interrupt_handler+0xa6>

			} else {

				/* Read current packet from DATA register,
				 * increment buffer pointer and decrement buffer length */
				uint16_t received_data = (usart_hw->DATA.reg & SERCOM_USART_DATA_MASK);
    2be6:	8d23      	ldrh	r3, [r4, #40]	; 0x28
    2be8:	05db      	lsls	r3, r3, #23
    2bea:	0ddb      	lsrs	r3, r3, #23

				/* Read value will be at least 8-bits long */
				*(module->rx_buffer_ptr) = received_data;
    2bec:	b2da      	uxtb	r2, r3
    2bee:	6a69      	ldr	r1, [r5, #36]	; 0x24
    2bf0:	700a      	strb	r2, [r1, #0]
				/* Increment 8-bit pointer */
				module->rx_buffer_ptr += 1;
    2bf2:	6a6a      	ldr	r2, [r5, #36]	; 0x24
    2bf4:	1c51      	adds	r1, r2, #1
    2bf6:	6269      	str	r1, [r5, #36]	; 0x24

				if (module->character_size == USART_CHARACTER_SIZE_9BIT) {
    2bf8:	7969      	ldrb	r1, [r5, #5]
    2bfa:	2901      	cmp	r1, #1
    2bfc:	d010      	beq.n	2c20 <_usart_interrupt_handler+0x13c>
					/* Increment 8-bit pointer */
					module->rx_buffer_ptr += 1;
				}

				/* Check if the last character have been received */
				if(--(module->remaining_rx_buffer_length) == 0) {
    2bfe:	8dab      	ldrh	r3, [r5, #44]	; 0x2c
    2c00:	3b01      	subs	r3, #1
    2c02:	b29b      	uxth	r3, r3
    2c04:	85ab      	strh	r3, [r5, #44]	; 0x2c
    2c06:	2b00      	cmp	r3, #0
    2c08:	d112      	bne.n	2c30 <_usart_interrupt_handler+0x14c>
					/* Disable RX Complete Interrupt,
					 * and set STATUS_OK */
					usart_hw->INTENCLR.reg = SERCOM_USART_INTFLAG_RXC;
    2c0a:	3304      	adds	r3, #4
    2c0c:	7523      	strb	r3, [r4, #20]
					module->rx_status = STATUS_OK;
    2c0e:	2200      	movs	r2, #0
    2c10:	332e      	adds	r3, #46	; 0x2e
    2c12:	54ea      	strb	r2, [r5, r3]

					/* Run callback if registered and enabled */
					if (callback_status
    2c14:	07bb      	lsls	r3, r7, #30
    2c16:	d50b      	bpl.n	2c30 <_usart_interrupt_handler+0x14c>
							& (1 << USART_CALLBACK_BUFFER_RECEIVED)) {
						(*(module->callback[USART_CALLBACK_BUFFER_RECEIVED]))(module);
    2c18:	0028      	movs	r0, r5
    2c1a:	692b      	ldr	r3, [r5, #16]
    2c1c:	4798      	blx	r3
    2c1e:	e007      	b.n	2c30 <_usart_interrupt_handler+0x14c>
					*(module->rx_buffer_ptr) = (received_data >> 8);
    2c20:	0a1b      	lsrs	r3, r3, #8
    2c22:	7053      	strb	r3, [r2, #1]
					module->rx_buffer_ptr += 1;
    2c24:	6a6b      	ldr	r3, [r5, #36]	; 0x24
    2c26:	3301      	adds	r3, #1
    2c28:	626b      	str	r3, [r5, #36]	; 0x24
    2c2a:	e7e8      	b.n	2bfe <_usart_interrupt_handler+0x11a>
					}
				}
			}
		} else {
			/* This should not happen. Disable Receive Complete interrupt. */
			usart_hw->INTENCLR.reg = SERCOM_USART_INTFLAG_RXC;
    2c2c:	2304      	movs	r3, #4
    2c2e:	7523      	strb	r3, [r4, #20]
		}
	}

#ifdef FEATURE_USART_HARDWARE_FLOW_CONTROL
	if (interrupt_status & SERCOM_USART_INTFLAG_CTSIC) {
    2c30:	06f3      	lsls	r3, r6, #27
    2c32:	d504      	bpl.n	2c3e <_usart_interrupt_handler+0x15a>
		/* Disable interrupts */
		usart_hw->INTENCLR.reg = SERCOM_USART_INTENCLR_CTSIC;
    2c34:	2310      	movs	r3, #16
    2c36:	7523      	strb	r3, [r4, #20]
		/* Clear interrupt flag */
		usart_hw->INTFLAG.reg = SERCOM_USART_INTFLAG_CTSIC;
    2c38:	7623      	strb	r3, [r4, #24]

		/* Run callback if registered and enabled */
		if (callback_status & (1 << USART_CALLBACK_CTS_INPUT_CHANGE)) {
    2c3a:	06fb      	lsls	r3, r7, #27
    2c3c:	d40e      	bmi.n	2c5c <_usart_interrupt_handler+0x178>
		}
	}
#endif

#ifdef FEATURE_USART_LIN_SLAVE
	if (interrupt_status & SERCOM_USART_INTFLAG_RXBRK) {
    2c3e:	06b3      	lsls	r3, r6, #26
    2c40:	d504      	bpl.n	2c4c <_usart_interrupt_handler+0x168>
		/* Disable interrupts */
		usart_hw->INTENCLR.reg = SERCOM_USART_INTENCLR_RXBRK;
    2c42:	2320      	movs	r3, #32
    2c44:	7523      	strb	r3, [r4, #20]
		/* Clear interrupt flag */
		usart_hw->INTFLAG.reg = SERCOM_USART_INTFLAG_RXBRK;
    2c46:	7623      	strb	r3, [r4, #24]

		/* Run callback if registered and enabled */
		if (callback_status & (1 << USART_CALLBACK_BREAK_RECEIVED)) {
    2c48:	073b      	lsls	r3, r7, #28
    2c4a:	d40b      	bmi.n	2c64 <_usart_interrupt_handler+0x180>
		}
	}
#endif

#ifdef FEATURE_USART_START_FRAME_DECTION
	if (interrupt_status & SERCOM_USART_INTFLAG_RXS) {
    2c4c:	0733      	lsls	r3, r6, #28
    2c4e:	d504      	bpl.n	2c5a <_usart_interrupt_handler+0x176>
		/* Disable interrupts */
		usart_hw->INTENCLR.reg = SERCOM_USART_INTENCLR_RXS;
    2c50:	2308      	movs	r3, #8
    2c52:	7523      	strb	r3, [r4, #20]
		/* Clear interrupt flag */
		usart_hw->INTFLAG.reg = SERCOM_USART_INTFLAG_RXS;
    2c54:	7623      	strb	r3, [r4, #24]

		/* Run callback if registered and enabled */
		if (callback_status & (1 << USART_CALLBACK_START_RECEIVED)) {
    2c56:	06bb      	lsls	r3, r7, #26
    2c58:	d408      	bmi.n	2c6c <_usart_interrupt_handler+0x188>
			(*(module->callback[USART_CALLBACK_START_RECEIVED]))(module);
		}
	}
#endif
}
    2c5a:	bdf8      	pop	{r3, r4, r5, r6, r7, pc}
			(*(module->callback[USART_CALLBACK_CTS_INPUT_CHANGE]))(module);
    2c5c:	0028      	movs	r0, r5
    2c5e:	69eb      	ldr	r3, [r5, #28]
    2c60:	4798      	blx	r3
    2c62:	e7ec      	b.n	2c3e <_usart_interrupt_handler+0x15a>
			(*(module->callback[USART_CALLBACK_BREAK_RECEIVED]))(module);
    2c64:	0028      	movs	r0, r5
    2c66:	69ab      	ldr	r3, [r5, #24]
    2c68:	4798      	blx	r3
    2c6a:	e7ef      	b.n	2c4c <_usart_interrupt_handler+0x168>
			(*(module->callback[USART_CALLBACK_START_RECEIVED]))(module);
    2c6c:	6a2b      	ldr	r3, [r5, #32]
    2c6e:	0028      	movs	r0, r5
    2c70:	4798      	blx	r3
}
    2c72:	e7f2      	b.n	2c5a <_usart_interrupt_handler+0x176>
    2c74:	20003d5c 	.word	0x20003d5c

00002c78 <_sercom_default_handler>:
 */
static void _sercom_default_handler(
		const uint8_t instance)
{
	Assert(false);
}
    2c78:	4770      	bx	lr
	...

00002c7c <_sercom_set_handler>:
 * \param[in]  interrupt_handler  Pointer to instance callback handler.
 */
void _sercom_set_handler(
		const uint8_t instance,
		const sercom_handler_t interrupt_handler)
{
    2c7c:	b5f0      	push	{r4, r5, r6, r7, lr}
	/* Initialize handlers with default handler and device instances with 0 */
	if (_handler_table_initialized == false) {
    2c7e:	4b0a      	ldr	r3, [pc, #40]	; (2ca8 <_sercom_set_handler+0x2c>)
    2c80:	781b      	ldrb	r3, [r3, #0]
    2c82:	2b00      	cmp	r3, #0
    2c84:	d10c      	bne.n	2ca0 <_sercom_set_handler+0x24>
		for (uint32_t i = 0; i < SERCOM_INST_NUM; i++) {
			_sercom_interrupt_handlers[i] = &_sercom_default_handler;
    2c86:	4f09      	ldr	r7, [pc, #36]	; (2cac <_sercom_set_handler+0x30>)
    2c88:	4e09      	ldr	r6, [pc, #36]	; (2cb0 <_sercom_set_handler+0x34>)
			_sercom_instances[i] = NULL;
    2c8a:	4d0a      	ldr	r5, [pc, #40]	; (2cb4 <_sercom_set_handler+0x38>)
    2c8c:	2400      	movs	r4, #0
			_sercom_interrupt_handlers[i] = &_sercom_default_handler;
    2c8e:	51de      	str	r6, [r3, r7]
			_sercom_instances[i] = NULL;
    2c90:	195a      	adds	r2, r3, r5
    2c92:	6014      	str	r4, [r2, #0]
    2c94:	3304      	adds	r3, #4
		for (uint32_t i = 0; i < SERCOM_INST_NUM; i++) {
    2c96:	2b18      	cmp	r3, #24
    2c98:	d1f9      	bne.n	2c8e <_sercom_set_handler+0x12>
		}

		_handler_table_initialized = true;
    2c9a:	2201      	movs	r2, #1
    2c9c:	4b02      	ldr	r3, [pc, #8]	; (2ca8 <_sercom_set_handler+0x2c>)
    2c9e:	701a      	strb	r2, [r3, #0]
	}

	/* Save interrupt handler */
	_sercom_interrupt_handlers[instance] = interrupt_handler;
    2ca0:	0080      	lsls	r0, r0, #2
    2ca2:	4b02      	ldr	r3, [pc, #8]	; (2cac <_sercom_set_handler+0x30>)
    2ca4:	50c1      	str	r1, [r0, r3]
}
    2ca6:	bdf0      	pop	{r4, r5, r6, r7, pc}
    2ca8:	20003ca8 	.word	0x20003ca8
    2cac:	20003cac 	.word	0x20003cac
    2cb0:	00002c79 	.word	0x00002c79
    2cb4:	20003d5c 	.word	0x20003d5c

00002cb8 <_sercom_get_interrupt_vector>:
 * \retval SYSTEM_INTERRUPT_MODULE_SERCOM6
 * \retval SYSTEM_INTERRUPT_MODULE_SERCOM7
 */
enum system_interrupt_vector _sercom_get_interrupt_vector(
		Sercom *const sercom_instance)
{
    2cb8:	b500      	push	{lr}
    2cba:	b083      	sub	sp, #12
	const uint8_t sercom_int_vectors[SERCOM_INST_NUM] =
    2cbc:	2308      	movs	r3, #8
    2cbe:	466a      	mov	r2, sp
    2cc0:	7013      	strb	r3, [r2, #0]
    2cc2:	3301      	adds	r3, #1
    2cc4:	7053      	strb	r3, [r2, #1]
    2cc6:	3301      	adds	r3, #1
    2cc8:	7093      	strb	r3, [r2, #2]
    2cca:	3301      	adds	r3, #1
    2ccc:	70d3      	strb	r3, [r2, #3]
    2cce:	3301      	adds	r3, #1
    2cd0:	7113      	strb	r3, [r2, #4]
    2cd2:	3301      	adds	r3, #1
    2cd4:	7153      	strb	r3, [r2, #5]
		{
			MREPEAT(SERCOM_INST_NUM, _SERCOM_INTERRUPT_VECT_NUM, ~)
		};

	/* Retrieve the index of the SERCOM being requested */
	uint8_t instance_index = _sercom_get_sercom_inst_index(sercom_instance);
    2cd6:	4b03      	ldr	r3, [pc, #12]	; (2ce4 <_sercom_get_interrupt_vector+0x2c>)
    2cd8:	4798      	blx	r3

	/* Get the vector number from the lookup table for the requested SERCOM */
	return (enum system_interrupt_vector)sercom_int_vectors[instance_index];
    2cda:	466b      	mov	r3, sp
    2cdc:	5618      	ldrsb	r0, [r3, r0]
}
    2cde:	b003      	add	sp, #12
    2ce0:	bd00      	pop	{pc}
    2ce2:	46c0      	nop			; (mov r8, r8)
    2ce4:	00000f3d 	.word	0x00000f3d

00002ce8 <SERCOM0_Handler>:

/** Auto-generate a set of interrupt handlers for each SERCOM in the device */
MREPEAT(SERCOM_INST_NUM, _SERCOM_INTERRUPT_HANDLER, ~)
    2ce8:	b510      	push	{r4, lr}
    2cea:	4b02      	ldr	r3, [pc, #8]	; (2cf4 <SERCOM0_Handler+0xc>)
    2cec:	681b      	ldr	r3, [r3, #0]
    2cee:	2000      	movs	r0, #0
    2cf0:	4798      	blx	r3
    2cf2:	bd10      	pop	{r4, pc}
    2cf4:	20003cac 	.word	0x20003cac

00002cf8 <SERCOM1_Handler>:
    2cf8:	b510      	push	{r4, lr}
    2cfa:	4b02      	ldr	r3, [pc, #8]	; (2d04 <SERCOM1_Handler+0xc>)
    2cfc:	685b      	ldr	r3, [r3, #4]
    2cfe:	2001      	movs	r0, #1
    2d00:	4798      	blx	r3
    2d02:	bd10      	pop	{r4, pc}
    2d04:	20003cac 	.word	0x20003cac

00002d08 <SERCOM2_Handler>:
    2d08:	b510      	push	{r4, lr}
    2d0a:	4b02      	ldr	r3, [pc, #8]	; (2d14 <SERCOM2_Handler+0xc>)
    2d0c:	689b      	ldr	r3, [r3, #8]
    2d0e:	2002      	movs	r0, #2
    2d10:	4798      	blx	r3
    2d12:	bd10      	pop	{r4, pc}
    2d14:	20003cac 	.word	0x20003cac

00002d18 <SERCOM3_Handler>:
    2d18:	b510      	push	{r4, lr}
    2d1a:	4b02      	ldr	r3, [pc, #8]	; (2d24 <SERCOM3_Handler+0xc>)
    2d1c:	68db      	ldr	r3, [r3, #12]
    2d1e:	2003      	movs	r0, #3
    2d20:	4798      	blx	r3
    2d22:	bd10      	pop	{r4, pc}
    2d24:	20003cac 	.word	0x20003cac

00002d28 <SERCOM4_Handler>:
    2d28:	b510      	push	{r4, lr}
    2d2a:	4b02      	ldr	r3, [pc, #8]	; (2d34 <SERCOM4_Handler+0xc>)
    2d2c:	691b      	ldr	r3, [r3, #16]
    2d2e:	2004      	movs	r0, #4
    2d30:	4798      	blx	r3
    2d32:	bd10      	pop	{r4, pc}
    2d34:	20003cac 	.word	0x20003cac

00002d38 <SERCOM5_Handler>:
    2d38:	b510      	push	{r4, lr}
    2d3a:	4b02      	ldr	r3, [pc, #8]	; (2d44 <SERCOM5_Handler+0xc>)
    2d3c:	695b      	ldr	r3, [r3, #20]
    2d3e:	2005      	movs	r0, #5
    2d40:	4798      	blx	r3
    2d42:	bd10      	pop	{r4, pc}
    2d44:	20003cac 	.word	0x20003cac

00002d48 <delay_init>:
 *
 * This must be called during start up to initialize the delay routine with
 * the current used main clock. It must run any time the main CPU clock is changed.
 */
void delay_init(void)
{
    2d48:	b570      	push	{r4, r5, r6, lr}
	cycles_per_ms = system_gclk_gen_get_hz(0);
    2d4a:	2000      	movs	r0, #0
    2d4c:	4b08      	ldr	r3, [pc, #32]	; (2d70 <delay_init+0x28>)
    2d4e:	4798      	blx	r3
    2d50:	0005      	movs	r5, r0
	cycles_per_ms /= 1000;
    2d52:	4c08      	ldr	r4, [pc, #32]	; (2d74 <delay_init+0x2c>)
    2d54:	21fa      	movs	r1, #250	; 0xfa
    2d56:	0089      	lsls	r1, r1, #2
    2d58:	47a0      	blx	r4
    2d5a:	4b07      	ldr	r3, [pc, #28]	; (2d78 <delay_init+0x30>)
    2d5c:	6018      	str	r0, [r3, #0]
	cycles_per_us = cycles_per_ms / 1000;
    2d5e:	4907      	ldr	r1, [pc, #28]	; (2d7c <delay_init+0x34>)
    2d60:	0028      	movs	r0, r5
    2d62:	47a0      	blx	r4
    2d64:	4b06      	ldr	r3, [pc, #24]	; (2d80 <delay_init+0x38>)
    2d66:	6018      	str	r0, [r3, #0]

	SysTick->CTRL = SysTick_CTRL_CLKSOURCE_Msk | SysTick_CTRL_ENABLE_Msk;
    2d68:	2205      	movs	r2, #5
    2d6a:	4b06      	ldr	r3, [pc, #24]	; (2d84 <delay_init+0x3c>)
    2d6c:	601a      	str	r2, [r3, #0]
}
    2d6e:	bd70      	pop	{r4, r5, r6, pc}
    2d70:	000037bd 	.word	0x000037bd
    2d74:	000046d9 	.word	0x000046d9
    2d78:	2000002c 	.word	0x2000002c
    2d7c:	000f4240 	.word	0x000f4240
    2d80:	20000030 	.word	0x20000030
    2d84:	e000e010 	.word	0xe000e010

00002d88 <delay_cycles_ms>:
 *
 * \param n  Number of milliseconds to wait
 */
void delay_cycles_ms(
		uint32_t n)
{
    2d88:	b530      	push	{r4, r5, lr}
	while (n--) {
		/* Devide up to blocks of 1ms */
		delay_cycles(cycles_per_ms);
    2d8a:	4b08      	ldr	r3, [pc, #32]	; (2dac <delay_cycles_ms+0x24>)
    2d8c:	681c      	ldr	r4, [r3, #0]
 */
static inline void delay_cycles(
		const uint32_t n)
{
	if (n > 0) {
		SysTick->LOAD = n;
    2d8e:	4a08      	ldr	r2, [pc, #32]	; (2db0 <delay_cycles_ms+0x28>)
		SysTick->VAL = 0;
    2d90:	2500      	movs	r5, #0

		while (!(SysTick->CTRL & SysTick_CTRL_COUNTFLAG_Msk)) {
    2d92:	2180      	movs	r1, #128	; 0x80
    2d94:	0249      	lsls	r1, r1, #9
	while (n--) {
    2d96:	3801      	subs	r0, #1
    2d98:	d307      	bcc.n	2daa <delay_cycles_ms+0x22>
	if (n > 0) {
    2d9a:	2c00      	cmp	r4, #0
    2d9c:	d0fb      	beq.n	2d96 <delay_cycles_ms+0xe>
		SysTick->LOAD = n;
    2d9e:	6054      	str	r4, [r2, #4]
		SysTick->VAL = 0;
    2da0:	6095      	str	r5, [r2, #8]
		while (!(SysTick->CTRL & SysTick_CTRL_COUNTFLAG_Msk)) {
    2da2:	6813      	ldr	r3, [r2, #0]
    2da4:	420b      	tst	r3, r1
    2da6:	d0fc      	beq.n	2da2 <delay_cycles_ms+0x1a>
    2da8:	e7f5      	b.n	2d96 <delay_cycles_ms+0xe>
	}
}
    2daa:	bd30      	pop	{r4, r5, pc}
    2dac:	2000002c 	.word	0x2000002c
    2db0:	e000e010 	.word	0xe000e010

00002db4 <cpu_irq_enter_critical>:
volatile bool g_interrupt_enabled = true;
#endif

void cpu_irq_enter_critical(void)
{
	if (cpu_irq_critical_section_counter == 0) {
    2db4:	4b0c      	ldr	r3, [pc, #48]	; (2de8 <cpu_irq_enter_critical+0x34>)
    2db6:	681b      	ldr	r3, [r3, #0]
    2db8:	2b00      	cmp	r3, #0
    2dba:	d106      	bne.n	2dca <cpu_irq_enter_critical+0x16>
 */
__attribute__( ( always_inline ) ) __STATIC_INLINE uint32_t __get_PRIMASK(void)
{
  uint32_t result;

  __ASM volatile ("MRS %0, primask" : "=r" (result) );
    2dbc:	f3ef 8310 	mrs	r3, PRIMASK
		if (cpu_irq_is_enabled()) {
    2dc0:	2b00      	cmp	r3, #0
    2dc2:	d007      	beq.n	2dd4 <cpu_irq_enter_critical+0x20>
			cpu_irq_disable();
			cpu_irq_prev_interrupt_state = true;
		} else {
			/* Make sure the to save the prev state as false */
			cpu_irq_prev_interrupt_state = false;
    2dc4:	2200      	movs	r2, #0
    2dc6:	4b09      	ldr	r3, [pc, #36]	; (2dec <cpu_irq_enter_critical+0x38>)
    2dc8:	701a      	strb	r2, [r3, #0]
		}

	}

	cpu_irq_critical_section_counter++;
    2dca:	4a07      	ldr	r2, [pc, #28]	; (2de8 <cpu_irq_enter_critical+0x34>)
    2dcc:	6813      	ldr	r3, [r2, #0]
    2dce:	3301      	adds	r3, #1
    2dd0:	6013      	str	r3, [r2, #0]
}
    2dd2:	4770      	bx	lr
  __ASM volatile ("cpsid i" : : : "memory");
    2dd4:	b672      	cpsid	i
    This function ensures the apparent order of the explicit memory operations before
    and after the instruction, without ensuring their completion.
 */
__attribute__( ( always_inline ) ) __STATIC_INLINE void __DMB(void)
{
  __ASM volatile ("dmb");
    2dd6:	f3bf 8f5f 	dmb	sy
			cpu_irq_disable();
    2dda:	2200      	movs	r2, #0
    2ddc:	4b04      	ldr	r3, [pc, #16]	; (2df0 <cpu_irq_enter_critical+0x3c>)
    2dde:	701a      	strb	r2, [r3, #0]
			cpu_irq_prev_interrupt_state = true;
    2de0:	3201      	adds	r2, #1
    2de2:	4b02      	ldr	r3, [pc, #8]	; (2dec <cpu_irq_enter_critical+0x38>)
    2de4:	701a      	strb	r2, [r3, #0]
    2de6:	e7f0      	b.n	2dca <cpu_irq_enter_critical+0x16>
    2de8:	20003cc4 	.word	0x20003cc4
    2dec:	20003cc8 	.word	0x20003cc8
    2df0:	20000034 	.word	0x20000034

00002df4 <cpu_irq_leave_critical>:
void cpu_irq_leave_critical(void)
{
	/* Check if the user is trying to leave a critical section when not in a critical section */
	Assert(cpu_irq_critical_section_counter > 0);

	cpu_irq_critical_section_counter--;
    2df4:	4b08      	ldr	r3, [pc, #32]	; (2e18 <cpu_irq_leave_critical+0x24>)
    2df6:	681a      	ldr	r2, [r3, #0]
    2df8:	3a01      	subs	r2, #1
    2dfa:	601a      	str	r2, [r3, #0]

	/* Only enable global interrupts when the counter reaches 0 and the state of the global interrupt flag
	   was enabled when entering critical state */
	if ((cpu_irq_critical_section_counter == 0) && (cpu_irq_prev_interrupt_state)) {
    2dfc:	681b      	ldr	r3, [r3, #0]
    2dfe:	2b00      	cmp	r3, #0
    2e00:	d109      	bne.n	2e16 <cpu_irq_leave_critical+0x22>
    2e02:	4b06      	ldr	r3, [pc, #24]	; (2e1c <cpu_irq_leave_critical+0x28>)
    2e04:	781b      	ldrb	r3, [r3, #0]
    2e06:	2b00      	cmp	r3, #0
    2e08:	d005      	beq.n	2e16 <cpu_irq_leave_critical+0x22>
		cpu_irq_enable();
    2e0a:	2201      	movs	r2, #1
    2e0c:	4b04      	ldr	r3, [pc, #16]	; (2e20 <cpu_irq_leave_critical+0x2c>)
    2e0e:	701a      	strb	r2, [r3, #0]
    2e10:	f3bf 8f5f 	dmb	sy
  __ASM volatile ("cpsie i" : : : "memory");
    2e14:	b662      	cpsie	i
	}
}
    2e16:	4770      	bx	lr
    2e18:	20003cc4 	.word	0x20003cc4
    2e1c:	20003cc8 	.word	0x20003cc8
    2e20:	20000034 	.word	0x20000034

00002e24 <system_board_init>:
void board_init(void);
#  pragma weak board_init=system_board_init
#endif

void system_board_init(void)
{
    2e24:	b5f0      	push	{r4, r5, r6, r7, lr}
    2e26:	b083      	sub	sp, #12
	/* Sanity check arguments */
	Assert(config);

	/* Default configuration values */
	config->direction  = PORT_PIN_DIR_INPUT;
	config->input_pull = PORT_PIN_PULL_UP;
    2e28:	ac01      	add	r4, sp, #4
    2e2a:	2501      	movs	r5, #1
    2e2c:	7065      	strb	r5, [r4, #1]
	config->powersave  = false;
    2e2e:	2700      	movs	r7, #0
    2e30:	70a7      	strb	r7, [r4, #2]
	struct port_config pin_conf;
	port_get_config_defaults(&pin_conf);

	/* Configure LEDs as outputs, turn them off */
	pin_conf.direction  = PORT_PIN_DIR_OUTPUT;
    2e32:	7025      	strb	r5, [r4, #0]
	port_pin_set_config(LED_0_PIN, &pin_conf);
    2e34:	0021      	movs	r1, r4
    2e36:	202c      	movs	r0, #44	; 0x2c
    2e38:	4e0b      	ldr	r6, [pc, #44]	; (2e68 <system_board_init+0x44>)
    2e3a:	47b0      	blx	r6
	PortGroup *const port_base = port_get_group_from_gpio_pin(gpio_pin);
	uint32_t pin_mask  = (1UL << (gpio_pin % 32));

	/* Set the pin to high or low atomically based on the requested level */
	if (level) {
		port_base->OUTSET.reg = pin_mask;
    2e3c:	2280      	movs	r2, #128	; 0x80
    2e3e:	0152      	lsls	r2, r2, #5
    2e40:	4b0a      	ldr	r3, [pc, #40]	; (2e6c <system_board_init+0x48>)
    2e42:	619a      	str	r2, [r3, #24]
	port_pin_set_output_level(LED_0_PIN, LED_0_INACTIVE);
	


	/* Set buttons as inputs */
	pin_conf.direction  = PORT_PIN_DIR_INPUT;
    2e44:	7027      	strb	r7, [r4, #0]
	pin_conf.input_pull = PORT_PIN_PULL_UP;
    2e46:	7065      	strb	r5, [r4, #1]
	port_pin_set_config(BUTTON_0_PIN, &pin_conf);
    2e48:	0021      	movs	r1, r4
    2e4a:	2002      	movs	r0, #2
    2e4c:	47b0      	blx	r6
	
	/* Set buttons as inputs */
	pin_conf.direction  = PORT_PIN_DIR_OUTPUT;
    2e4e:	7025      	strb	r5, [r4, #0]
	pin_conf.input_pull = PORT_PIN_PULL_DOWN;
    2e50:	3702      	adds	r7, #2
    2e52:	7067      	strb	r7, [r4, #1]
	port_pin_set_config(BYPASS_1_PIN, &pin_conf);
    2e54:	0021      	movs	r1, r4
    2e56:	2014      	movs	r0, #20
    2e58:	47b0      	blx	r6
		
	/* Set buttons as inputs */
	pin_conf.direction  = PORT_PIN_DIR_OUTPUT;
    2e5a:	7025      	strb	r5, [r4, #0]
	pin_conf.input_pull = PORT_PIN_PULL_DOWN;
    2e5c:	7067      	strb	r7, [r4, #1]
	port_pin_set_config(BYPASS_2_PIN, &pin_conf);
    2e5e:	0021      	movs	r1, r4
    2e60:	202d      	movs	r0, #45	; 0x2d
    2e62:	47b0      	blx	r6
	port_pin_set_output_level(AT86RFX_RST_PIN, true);
	port_pin_set_output_level(AT86RFX_SLP_PIN, true);
	pin_conf.direction  = PORT_PIN_DIR_INPUT;
	port_pin_set_config(AT86RFX_SPI_MISO, &pin_conf);
#endif	
}
    2e64:	b003      	add	sp, #12
    2e66:	bdf0      	pop	{r4, r5, r6, r7, pc}
    2e68:	000034e5 	.word	0x000034e5
    2e6c:	40002880 	.word	0x40002880

00002e70 <_adc_get_inst_index>:
	}

	/* Invalid data given. */
	Assert(false);
	return 0;
}
    2e70:	2000      	movs	r0, #0
    2e72:	4770      	bx	lr

00002e74 <adc_get_config_defaults>:
 *
 * \param[out] config  Pointer to configuration struct to initialize to
 *                     default values
 */
void adc_get_config_defaults(struct adc_config *const config)
{
    2e74:	b510      	push	{r4, lr}
	Assert(config);
	config->clock_source                  = GCLK_GENERATOR_0;
    2e76:	2300      	movs	r3, #0
    2e78:	2200      	movs	r2, #0
    2e7a:	7003      	strb	r3, [r0, #0]
	config->reference                     = ADC_REFERENCE_INTREF;
    2e7c:	7043      	strb	r3, [r0, #1]
	config->clock_prescaler               = ADC_CLOCK_PRESCALER_DIV2;
    2e7e:	7083      	strb	r3, [r0, #2]
	config->resolution                    = ADC_RESOLUTION_12BIT;
    2e80:	70c3      	strb	r3, [r0, #3]
	config->window.window_mode            = ADC_WINDOW_MODE_DISABLE;
    2e82:	2100      	movs	r1, #0
    2e84:	8303      	strh	r3, [r0, #24]
	config->window.window_upper_value     = 0;
    2e86:	6203      	str	r3, [r0, #32]
	config->window.window_lower_value     = 0;
    2e88:	61c3      	str	r3, [r0, #28]
#if SAMR30
	config->positive_input                = ADC_POSITIVE_INPUT_PIN6;
#else
	config->positive_input                = ADC_POSITIVE_INPUT_PIN1;
    2e8a:	2401      	movs	r4, #1
    2e8c:	7104      	strb	r4, [r0, #4]
#endif
	config->negative_input                = ADC_NEGATIVE_INPUT_GND;
    2e8e:	24c0      	movs	r4, #192	; 0xc0
    2e90:	0164      	lsls	r4, r4, #5
    2e92:	80c4      	strh	r4, [r0, #6]
	config->accumulate_samples            = ADC_ACCUMULATE_DISABLE;
    2e94:	7201      	strb	r1, [r0, #8]
	config->divide_result                 = ADC_DIVIDE_RESULT_DISABLE;
    2e96:	7242      	strb	r2, [r0, #9]
	config->left_adjust                   = false;
    2e98:	7282      	strb	r2, [r0, #10]
	config->differential_mode             = false;
    2e9a:	72c2      	strb	r2, [r0, #11]
	config->freerunning                   = false;
    2e9c:	7302      	strb	r2, [r0, #12]
	config->event_action                  = ADC_EVENT_ACTION_DISABLED;
    2e9e:	242a      	movs	r4, #42	; 0x2a
    2ea0:	5502      	strb	r2, [r0, r4]
	config->run_in_standby                = false;
    2ea2:	7342      	strb	r2, [r0, #13]
	config->on_demand                     = false;
    2ea4:	7382      	strb	r2, [r0, #14]
	config->sampling_time_compensation_enable  = false;
    2ea6:	73c2      	strb	r2, [r0, #15]
	config->positive_input_sequence_mask_enable = 0;
    2ea8:	6103      	str	r3, [r0, #16]
	config->reference_compensation_enable = false;
    2eaa:	7502      	strb	r2, [r0, #20]
	config->correction.correction_enable  = false;
    2eac:	3c06      	subs	r4, #6
    2eae:	5502      	strb	r2, [r0, r4]
	config->correction.gain_correction    = ADC_GAINCORR_RESETVALUE;
    2eb0:	84c3      	strh	r3, [r0, #38]	; 0x26
	config->correction.offset_correction  = ADC_OFFSETCORR_RESETVALUE;
    2eb2:	8503      	strh	r3, [r0, #40]	; 0x28
	config->sample_length                 = 0;
    2eb4:	7541      	strb	r1, [r0, #21]
}
    2eb6:	bd10      	pop	{r4, pc}

00002eb8 <adc_init>:
 */
enum status_code adc_init(
		struct adc_module *const module_inst,
		Adc *hw,
		struct adc_config *config)
{
    2eb8:	b5f0      	push	{r4, r5, r6, r7, lr}
    2eba:	46ce      	mov	lr, r9
    2ebc:	b500      	push	{lr}
    2ebe:	b09a      	sub	sp, #104	; 0x68
    2ec0:	0005      	movs	r5, r0
    2ec2:	000c      	movs	r4, r1
    2ec4:	0016      	movs	r6, r2
	Assert(module_inst);
	Assert(hw);
	Assert(config);

	/* Temporary variable to hold ADC instance number */
	uint8_t instance = _adc_get_inst_index(hw);
    2ec6:	0008      	movs	r0, r1
    2ec8:	4bb2      	ldr	r3, [pc, #712]	; (3194 <adc_init+0x2dc>)
    2eca:	4798      	blx	r3

	/* Associate the software module instance with the hardware module */
	module_inst->hw = hw;
    2ecc:	602c      	str	r4, [r5, #0]
    2ece:	4ab2      	ldr	r2, [pc, #712]	; (3198 <adc_init+0x2e0>)
    2ed0:	6a13      	ldr	r3, [r2, #32]
    2ed2:	2108      	movs	r1, #8
    2ed4:	430b      	orrs	r3, r1
    2ed6:	6213      	str	r3, [r2, #32]
	system_apb_clock_set_mask(SYSTEM_CLOCK_APB_APBD, MCLK_APBDMASK_ADC);
#else
	system_apb_clock_set_mask(SYSTEM_CLOCK_APB_APBC, _adc_apbcmasks[instance]);
#endif

	if (hw->CTRLA.reg & ADC_CTRLA_SWRST) {
    2ed8:	7822      	ldrb	r2, [r4, #0]
		/* We are in the middle of a reset. Abort. */
		return STATUS_BUSY;
    2eda:	2305      	movs	r3, #5
	if (hw->CTRLA.reg & ADC_CTRLA_SWRST) {
    2edc:	07d2      	lsls	r2, r2, #31
    2ede:	d504      	bpl.n	2eea <adc_init+0x32>
	}
#endif

	/* Write configuration to module */
	return _adc_set_config(instance, module_inst, config);
}
    2ee0:	0018      	movs	r0, r3
    2ee2:	b01a      	add	sp, #104	; 0x68
    2ee4:	bc04      	pop	{r2}
    2ee6:	4691      	mov	r9, r2
    2ee8:	bdf0      	pop	{r4, r5, r6, r7, pc}
	struct adc_module *const module_inst)
{
	/* Sanity check arguments */
	Assert(module_inst);

	Adc *const adc_module = module_inst->hw;
    2eea:	682a      	ldr	r2, [r5, #0]

	if (adc_module->SYNCBUSY.reg) {
    2eec:	8c13      	ldrh	r3, [r2, #32]
    2eee:	b29b      	uxth	r3, r3
	while (adc_is_syncing(module_inst)) {
    2ef0:	2b00      	cmp	r3, #0
    2ef2:	d1fb      	bne.n	2eec <adc_init+0x34>
	if (hw->CTRLA.reg & ADC_CTRLA_ENABLE) {
    2ef4:	7822      	ldrb	r2, [r4, #0]
		return STATUS_ERR_DENIED;
    2ef6:	331c      	adds	r3, #28
	if (hw->CTRLA.reg & ADC_CTRLA_ENABLE) {
    2ef8:	0792      	lsls	r2, r2, #30
    2efa:	d4f1      	bmi.n	2ee0 <adc_init+0x28>
	module_inst->reference = config->reference;
    2efc:	7873      	ldrb	r3, [r6, #1]
    2efe:	712b      	strb	r3, [r5, #4]
	if (module_inst->reference == ADC_REFERENCE_INTREF) {
    2f00:	2b00      	cmp	r3, #0
    2f02:	d104      	bne.n	2f0e <adc_init+0x56>
	switch (vref) {
		case SYSTEM_VOLTAGE_REFERENCE_TEMPSENSE:
			SUPC->VREF.reg |= SUPC_VREF_TSEN;
			break;
		case SYSTEM_VOLTAGE_REFERENCE_OUTPUT:
			SUPC->VREF.reg |= SUPC_VREF_VREFOE;
    2f04:	4aa5      	ldr	r2, [pc, #660]	; (319c <adc_init+0x2e4>)
    2f06:	69d3      	ldr	r3, [r2, #28]
    2f08:	2104      	movs	r1, #4
    2f0a:	430b      	orrs	r3, r1
    2f0c:	61d3      	str	r3, [r2, #28]
		module_inst->callback[i] = NULL;
    2f0e:	2300      	movs	r3, #0
    2f10:	60ab      	str	r3, [r5, #8]
    2f12:	60eb      	str	r3, [r5, #12]
    2f14:	612b      	str	r3, [r5, #16]
	module_inst->registered_callback_mask = 0;
    2f16:	76ab      	strb	r3, [r5, #26]
	module_inst->enabled_callback_mask = 0;
    2f18:	76eb      	strb	r3, [r5, #27]
	module_inst->remaining_conversions = 0;
    2f1a:	832b      	strh	r3, [r5, #24]
	module_inst->job_status = STATUS_OK;
    2f1c:	772b      	strb	r3, [r5, #28]
	_adc_instances[instance] = module_inst;
    2f1e:	0080      	lsls	r0, r0, #2
    2f20:	4b9f      	ldr	r3, [pc, #636]	; (31a0 <adc_init+0x2e8>)
    2f22:	50c5      	str	r5, [r0, r3]
	if (config->event_action == ADC_EVENT_ACTION_DISABLED &&
    2f24:	232a      	movs	r3, #42	; 0x2a
    2f26:	5cf3      	ldrb	r3, [r6, r3]
    2f28:	2b00      	cmp	r3, #0
    2f2a:	d105      	bne.n	2f38 <adc_init+0x80>
    2f2c:	7b33      	ldrb	r3, [r6, #12]
    2f2e:	2b00      	cmp	r3, #0
    2f30:	d102      	bne.n	2f38 <adc_init+0x80>
		module_inst->software_trigger = true;
    2f32:	3301      	adds	r3, #1
    2f34:	776b      	strb	r3, [r5, #29]
    2f36:	e001      	b.n	2f3c <adc_init+0x84>
		module_inst->software_trigger = false;
    2f38:	2300      	movs	r3, #0
    2f3a:	776b      	strb	r3, [r5, #29]
	Adc *const adc_module = module_inst->hw;
    2f3c:	682f      	ldr	r7, [r5, #0]
	gclk_chan_conf.source_generator = config->clock_source;
    2f3e:	7833      	ldrb	r3, [r6, #0]
    2f40:	466a      	mov	r2, sp
    2f42:	7013      	strb	r3, [r2, #0]
	system_gclk_chan_set_config(_adc_gclk_ids[index], &gclk_chan_conf);
    2f44:	4669      	mov	r1, sp
    2f46:	201e      	movs	r0, #30
    2f48:	4b96      	ldr	r3, [pc, #600]	; (31a4 <adc_init+0x2ec>)
    2f4a:	4798      	blx	r3
	system_gclk_chan_enable(_adc_gclk_ids[index]);
    2f4c:	201e      	movs	r0, #30
    2f4e:	4b96      	ldr	r3, [pc, #600]	; (31a8 <adc_init+0x2f0>)
    2f50:	4798      	blx	r3
	_adc_configure_ain_pin(index, config->positive_input);
    2f52:	7934      	ldrb	r4, [r6, #4]
	const uint32_t pinmapping[] = {
    2f54:	2260      	movs	r2, #96	; 0x60
    2f56:	4995      	ldr	r1, [pc, #596]	; (31ac <adc_init+0x2f4>)
    2f58:	a802      	add	r0, sp, #8
    2f5a:	4b95      	ldr	r3, [pc, #596]	; (31b0 <adc_init+0x2f8>)
    2f5c:	4798      	blx	r3
	if (pin <= _adc_extchannel_msb[index]) {
    2f5e:	2c13      	cmp	r4, #19
    2f60:	d90b      	bls.n	2f7a <adc_init+0xc2>
	_adc_configure_ain_pin(index, config->negative_input);
    2f62:	88f4      	ldrh	r4, [r6, #6]
	const uint32_t pinmapping[] = {
    2f64:	2260      	movs	r2, #96	; 0x60
    2f66:	4991      	ldr	r1, [pc, #580]	; (31ac <adc_init+0x2f4>)
    2f68:	a802      	add	r0, sp, #8
    2f6a:	4b91      	ldr	r3, [pc, #580]	; (31b0 <adc_init+0x2f8>)
    2f6c:	4798      	blx	r3
	if (pin <= _adc_extchannel_msb[index]) {
    2f6e:	2c13      	cmp	r4, #19
    2f70:	d911      	bls.n	2f96 <adc_init+0xde>
    2f72:	2400      	movs	r4, #0
	const uint32_t pinmapping[] = {
    2f74:	4b8e      	ldr	r3, [pc, #568]	; (31b0 <adc_init+0x2f8>)
    2f76:	4699      	mov	r9, r3
    2f78:	e01e      	b.n	2fb8 <adc_init+0x100>
		pin_map_result = pinmapping[pin >> ADC_INPUTCTRL_MUXPOS_Pos];
    2f7a:	00a4      	lsls	r4, r4, #2
    2f7c:	ab02      	add	r3, sp, #8
    2f7e:	58e0      	ldr	r0, [r4, r3]
	config->direction    = SYSTEM_PINMUX_PIN_DIR_INPUT;
    2f80:	a901      	add	r1, sp, #4
    2f82:	2300      	movs	r3, #0
    2f84:	704b      	strb	r3, [r1, #1]
	config->powersave    = false;
    2f86:	70cb      	strb	r3, [r1, #3]
		config.input_pull   = SYSTEM_PINMUX_PIN_PULL_NONE;
    2f88:	708b      	strb	r3, [r1, #2]
		config.mux_position = 1;
    2f8a:	3301      	adds	r3, #1
    2f8c:	700b      	strb	r3, [r1, #0]
		system_pinmux_pin_set_config(pin_map_result, &config);
    2f8e:	b2c0      	uxtb	r0, r0
    2f90:	4b88      	ldr	r3, [pc, #544]	; (31b4 <adc_init+0x2fc>)
    2f92:	4798      	blx	r3
    2f94:	e7e5      	b.n	2f62 <adc_init+0xaa>
		pin_map_result = pinmapping[pin >> ADC_INPUTCTRL_MUXPOS_Pos];
    2f96:	00a4      	lsls	r4, r4, #2
    2f98:	ab02      	add	r3, sp, #8
    2f9a:	58e0      	ldr	r0, [r4, r3]
	config->direction    = SYSTEM_PINMUX_PIN_DIR_INPUT;
    2f9c:	a901      	add	r1, sp, #4
    2f9e:	2300      	movs	r3, #0
    2fa0:	704b      	strb	r3, [r1, #1]
	config->powersave    = false;
    2fa2:	70cb      	strb	r3, [r1, #3]
		config.input_pull   = SYSTEM_PINMUX_PIN_PULL_NONE;
    2fa4:	708b      	strb	r3, [r1, #2]
		config.mux_position = 1;
    2fa6:	3301      	adds	r3, #1
    2fa8:	700b      	strb	r3, [r1, #0]
		system_pinmux_pin_set_config(pin_map_result, &config);
    2faa:	b2c0      	uxtb	r0, r0
    2fac:	4b81      	ldr	r3, [pc, #516]	; (31b4 <adc_init+0x2fc>)
    2fae:	4798      	blx	r3
    2fb0:	e7df      	b.n	2f72 <adc_init+0xba>
    2fb2:	3401      	adds	r4, #1
	for(uint8_t i=0;i <= _adc_extchannel_msb[index];i++){
    2fb4:	2c14      	cmp	r4, #20
    2fb6:	d018      	beq.n	2fea <adc_init+0x132>
		if(config->positive_input_sequence_mask_enable & (1 << i)){
    2fb8:	2301      	movs	r3, #1
    2fba:	40a3      	lsls	r3, r4
    2fbc:	6932      	ldr	r2, [r6, #16]
    2fbe:	421a      	tst	r2, r3
    2fc0:	d0f7      	beq.n	2fb2 <adc_init+0xfa>
	const uint32_t pinmapping[] = {
    2fc2:	2260      	movs	r2, #96	; 0x60
    2fc4:	4979      	ldr	r1, [pc, #484]	; (31ac <adc_init+0x2f4>)
    2fc6:	a802      	add	r0, sp, #8
    2fc8:	47c8      	blx	r9
	if (pin <= _adc_extchannel_msb[index]) {
    2fca:	2c13      	cmp	r4, #19
    2fcc:	d8f1      	bhi.n	2fb2 <adc_init+0xfa>
		pin_map_result = pinmapping[pin >> ADC_INPUTCTRL_MUXPOS_Pos];
    2fce:	00a3      	lsls	r3, r4, #2
    2fd0:	aa02      	add	r2, sp, #8
    2fd2:	5898      	ldr	r0, [r3, r2]
	config->direction    = SYSTEM_PINMUX_PIN_DIR_INPUT;
    2fd4:	a901      	add	r1, sp, #4
    2fd6:	2300      	movs	r3, #0
    2fd8:	704b      	strb	r3, [r1, #1]
	config->powersave    = false;
    2fda:	70cb      	strb	r3, [r1, #3]
		config.input_pull   = SYSTEM_PINMUX_PIN_PULL_NONE;
    2fdc:	708b      	strb	r3, [r1, #2]
		config.mux_position = 1;
    2fde:	3301      	adds	r3, #1
    2fe0:	700b      	strb	r3, [r1, #0]
		system_pinmux_pin_set_config(pin_map_result, &config);
    2fe2:	b2c0      	uxtb	r0, r0
    2fe4:	4b73      	ldr	r3, [pc, #460]	; (31b4 <adc_init+0x2fc>)
    2fe6:	4798      	blx	r3
    2fe8:	e7e3      	b.n	2fb2 <adc_init+0xfa>
	adc_module->CTRLA.reg = ((config->run_in_standby << ADC_CTRLA_RUNSTDBY_Pos)
    2fea:	7b73      	ldrb	r3, [r6, #13]
    2fec:	019b      	lsls	r3, r3, #6
						    | (config->on_demand << ADC_CTRLA_ONDEMAND_Pos)) ;
    2fee:	7bb2      	ldrb	r2, [r6, #14]
    2ff0:	01d2      	lsls	r2, r2, #7
    2ff2:	4313      	orrs	r3, r2
    2ff4:	b2db      	uxtb	r3, r3
	adc_module->CTRLA.reg = ((config->run_in_standby << ADC_CTRLA_RUNSTDBY_Pos)
    2ff6:	703b      	strb	r3, [r7, #0]
			(config->reference_compensation_enable << ADC_REFCTRL_REFCOMP_Pos)
    2ff8:	7d33      	ldrb	r3, [r6, #20]
    2ffa:	01db      	lsls	r3, r3, #7
			| (config->reference);
    2ffc:	7872      	ldrb	r2, [r6, #1]
    2ffe:	4313      	orrs	r3, r2
    3000:	b2db      	uxtb	r3, r3
	adc_module->REFCTRL.reg =
    3002:	70bb      	strb	r3, [r7, #2]
	switch (config->resolution) {
    3004:	78f3      	ldrb	r3, [r6, #3]
    3006:	2b34      	cmp	r3, #52	; 0x34
    3008:	d900      	bls.n	300c <adc_init+0x154>
    300a:	e140      	b.n	328e <adc_init+0x3d6>
    300c:	009b      	lsls	r3, r3, #2
    300e:	4a6a      	ldr	r2, [pc, #424]	; (31b8 <adc_init+0x300>)
    3010:	58d3      	ldr	r3, [r2, r3]
    3012:	469f      	mov	pc, r3
		accumulate = ADC_ACCUMULATE_SAMPLES_16;
    3014:	2204      	movs	r2, #4
		resolution = ADC_RESOLUTION_16BIT;
    3016:	2010      	movs	r0, #16
		adjres = ADC_DIVIDE_RESULT_4;
    3018:	2102      	movs	r1, #2
    301a:	e01a      	b.n	3052 <adc_init+0x19a>
		adjres = config->divide_result;
    301c:	7a71      	ldrb	r1, [r6, #9]
		accumulate = config->accumulate_samples;
    301e:	7a32      	ldrb	r2, [r6, #8]
		resolution = ADC_RESOLUTION_16BIT;
    3020:	2010      	movs	r0, #16
    3022:	e016      	b.n	3052 <adc_init+0x19a>
		accumulate = ADC_ACCUMULATE_SAMPLES_64;
    3024:	2206      	movs	r2, #6
		resolution = ADC_RESOLUTION_16BIT;
    3026:	2010      	movs	r0, #16
		adjres = ADC_DIVIDE_RESULT_2;
    3028:	2101      	movs	r1, #1
    302a:	e012      	b.n	3052 <adc_init+0x19a>
		accumulate = ADC_ACCUMULATE_SAMPLES_256;
    302c:	2208      	movs	r2, #8
		resolution = ADC_RESOLUTION_16BIT;
    302e:	2010      	movs	r0, #16
		adjres = ADC_DIVIDE_RESULT_DISABLE;
    3030:	2100      	movs	r1, #0
    3032:	e00e      	b.n	3052 <adc_init+0x19a>
	enum adc_accumulate_samples accumulate = ADC_ACCUMULATE_DISABLE;
    3034:	2200      	movs	r2, #0
		resolution = ADC_RESOLUTION_8BIT;
    3036:	2030      	movs	r0, #48	; 0x30
	uint8_t adjres = 0;
    3038:	2100      	movs	r1, #0
    303a:	e00a      	b.n	3052 <adc_init+0x19a>
	enum adc_accumulate_samples accumulate = ADC_ACCUMULATE_DISABLE;
    303c:	2200      	movs	r2, #0
		resolution = ADC_RESOLUTION_10BIT;
    303e:	2020      	movs	r0, #32
	uint8_t adjres = 0;
    3040:	2100      	movs	r1, #0
    3042:	e006      	b.n	3052 <adc_init+0x19a>
	enum adc_accumulate_samples accumulate = ADC_ACCUMULATE_DISABLE;
    3044:	2200      	movs	r2, #0
		resolution = ADC_RESOLUTION_12BIT;
    3046:	2000      	movs	r0, #0
	uint8_t adjres = 0;
    3048:	2100      	movs	r1, #0
    304a:	e002      	b.n	3052 <adc_init+0x19a>
		accumulate = ADC_ACCUMULATE_SAMPLES_4;
    304c:	2202      	movs	r2, #2
		resolution = ADC_RESOLUTION_16BIT;
    304e:	2010      	movs	r0, #16
		adjres = ADC_DIVIDE_RESULT_2;
    3050:	2101      	movs	r1, #1
	adc_module->AVGCTRL.reg = ADC_AVGCTRL_ADJRES(adjres) | accumulate;
    3052:	0109      	lsls	r1, r1, #4
    3054:	2370      	movs	r3, #112	; 0x70
    3056:	400b      	ands	r3, r1
    3058:	4313      	orrs	r3, r2
    305a:	733b      	strb	r3, [r7, #12]
	Adc *const adc_module = module_inst->hw;
    305c:	682a      	ldr	r2, [r5, #0]
	if (adc_module->SYNCBUSY.reg) {
    305e:	8c13      	ldrh	r3, [r2, #32]
    3060:	b29b      	uxth	r3, r3
	while (adc_is_syncing(module_inst)) {
    3062:	2b00      	cmp	r3, #0
    3064:	d1fb      	bne.n	305e <adc_init+0x1a6>
	if (config->sample_length > 63) {
    3066:	7d72      	ldrb	r2, [r6, #21]
		return STATUS_ERR_INVALID_ARG;
    3068:	3317      	adds	r3, #23
	if (config->sample_length > 63) {
    306a:	2a3f      	cmp	r2, #63	; 0x3f
    306c:	d900      	bls.n	3070 <adc_init+0x1b8>
    306e:	e737      	b.n	2ee0 <adc_init+0x28>
				| (config->sampling_time_compensation_enable << ADC_SAMPCTRL_OFFCOMP_Pos);
    3070:	7bf3      	ldrb	r3, [r6, #15]
    3072:	01db      	lsls	r3, r3, #7
    3074:	431a      	orrs	r2, r3
    3076:	b2d2      	uxtb	r2, r2
		adc_module->SAMPCTRL.reg =
    3078:	737a      	strb	r2, [r7, #13]
	Adc *const adc_module = module_inst->hw;
    307a:	682a      	ldr	r2, [r5, #0]
	if (adc_module->SYNCBUSY.reg) {
    307c:	8c13      	ldrh	r3, [r2, #32]
    307e:	b29b      	uxth	r3, r3
	while (adc_is_syncing(module_inst)) {
    3080:	2b00      	cmp	r3, #0
    3082:	d1fb      	bne.n	307c <adc_init+0x1c4>
			config->clock_prescaler;
    3084:	78b3      	ldrb	r3, [r6, #2]
	adc_module->CTRLB.reg =
    3086:	707b      	strb	r3, [r7, #1]
			(config->correction.correction_enable << ADC_CTRLC_CORREN_Pos) |
    3088:	2324      	movs	r3, #36	; 0x24
    308a:	5cf3      	ldrb	r3, [r6, r3]
    308c:	00db      	lsls	r3, r3, #3
			(config->freerunning << ADC_CTRLC_FREERUN_Pos) |
    308e:	7b32      	ldrb	r2, [r6, #12]
    3090:	0092      	lsls	r2, r2, #2
			(config->left_adjust << ADC_CTRLC_LEFTADJ_Pos) |
    3092:	431a      	orrs	r2, r3
			(config->differential_mode << ADC_CTRLC_DIFFMODE_Pos);
    3094:	7af3      	ldrb	r3, [r6, #11]
			(config->left_adjust << ADC_CTRLC_LEFTADJ_Pos) |
    3096:	4313      	orrs	r3, r2
    3098:	7ab2      	ldrb	r2, [r6, #10]
    309a:	0052      	lsls	r2, r2, #1
    309c:	4313      	orrs	r3, r2
    309e:	4303      	orrs	r3, r0
	adc_module->CTRLC.reg =
    30a0:	817b      	strh	r3, [r7, #10]
	Adc *const adc_module = module_inst->hw;
    30a2:	682a      	ldr	r2, [r5, #0]
	if (adc_module->SYNCBUSY.reg) {
    30a4:	8c13      	ldrh	r3, [r2, #32]
    30a6:	b29b      	uxth	r3, r3
	while (adc_is_syncing(module_inst)) {
    30a8:	2b00      	cmp	r3, #0
    30aa:	d1fb      	bne.n	30a4 <adc_init+0x1ec>
	if (config->window.window_mode != ADC_WINDOW_MODE_DISABLE) {
    30ac:	8b32      	ldrh	r2, [r6, #24]
    30ae:	2a00      	cmp	r2, #0
    30b0:	d020      	beq.n	30f4 <adc_init+0x23c>
		switch (resolution) {
    30b2:	2810      	cmp	r0, #16
    30b4:	d100      	bne.n	30b8 <adc_init+0x200>
    30b6:	e0c9      	b.n	324c <adc_init+0x394>
    30b8:	d800      	bhi.n	30bc <adc_init+0x204>
    30ba:	e083      	b.n	31c4 <adc_init+0x30c>
    30bc:	2820      	cmp	r0, #32
    30be:	d100      	bne.n	30c2 <adc_init+0x20a>
    30c0:	e0a3      	b.n	320a <adc_init+0x352>
    30c2:	2830      	cmp	r0, #48	; 0x30
    30c4:	d116      	bne.n	30f4 <adc_init+0x23c>
			if (config->differential_mode &&
    30c6:	7af3      	ldrb	r3, [r6, #11]
    30c8:	2b00      	cmp	r3, #0
    30ca:	d00a      	beq.n	30e2 <adc_init+0x22a>
					(config->window.window_lower_value > 127 ||
    30cc:	69f1      	ldr	r1, [r6, #28]
    30ce:	3180      	adds	r1, #128	; 0x80
				return STATUS_ERR_INVALID_ARG;
    30d0:	2317      	movs	r3, #23
			if (config->differential_mode &&
    30d2:	29ff      	cmp	r1, #255	; 0xff
    30d4:	d900      	bls.n	30d8 <adc_init+0x220>
    30d6:	e703      	b.n	2ee0 <adc_init+0x28>
					config->window.window_lower_value < -128 ||
    30d8:	6a31      	ldr	r1, [r6, #32]
    30da:	3180      	adds	r1, #128	; 0x80
    30dc:	29ff      	cmp	r1, #255	; 0xff
    30de:	d900      	bls.n	30e2 <adc_init+0x22a>
    30e0:	e6fe      	b.n	2ee0 <adc_init+0x28>
				return STATUS_ERR_INVALID_ARG;
    30e2:	2317      	movs	r3, #23
			} else if (config->window.window_lower_value > 255 ||
    30e4:	69f1      	ldr	r1, [r6, #28]
    30e6:	29ff      	cmp	r1, #255	; 0xff
    30e8:	dd00      	ble.n	30ec <adc_init+0x234>
    30ea:	e6f9      	b.n	2ee0 <adc_init+0x28>
    30ec:	6a31      	ldr	r1, [r6, #32]
    30ee:	29ff      	cmp	r1, #255	; 0xff
    30f0:	dd00      	ble.n	30f4 <adc_init+0x23c>
    30f2:	e6f5      	b.n	2ee0 <adc_init+0x28>
	adc_module->CTRLC.reg |= config->window.window_mode;
    30f4:	897b      	ldrh	r3, [r7, #10]
    30f6:	431a      	orrs	r2, r3
    30f8:	817a      	strh	r2, [r7, #10]
	Adc *const adc_module = module_inst->hw;
    30fa:	682a      	ldr	r2, [r5, #0]
	if (adc_module->SYNCBUSY.reg) {
    30fc:	8c13      	ldrh	r3, [r2, #32]
    30fe:	b29b      	uxth	r3, r3
	while (adc_is_syncing(module_inst)) {
    3100:	2b00      	cmp	r3, #0
    3102:	d1fb      	bne.n	30fc <adc_init+0x244>
	adc_module->WINLT.reg =
    3104:	8bb3      	ldrh	r3, [r6, #28]
    3106:	81fb      	strh	r3, [r7, #14]
	Adc *const adc_module = module_inst->hw;
    3108:	682a      	ldr	r2, [r5, #0]
	if (adc_module->SYNCBUSY.reg) {
    310a:	8c13      	ldrh	r3, [r2, #32]
    310c:	b29b      	uxth	r3, r3
	while (adc_is_syncing(module_inst)) {
    310e:	2b00      	cmp	r3, #0
    3110:	d1fb      	bne.n	310a <adc_init+0x252>
	adc_module->WINUT.reg = config->window.window_upper_value <<
    3112:	8c33      	ldrh	r3, [r6, #32]
    3114:	823b      	strh	r3, [r7, #16]
	Adc *const adc_module = module_inst->hw;
    3116:	682a      	ldr	r2, [r5, #0]
	if (adc_module->SYNCBUSY.reg) {
    3118:	8c13      	ldrh	r3, [r2, #32]
    311a:	b29b      	uxth	r3, r3
	while (adc_is_syncing(module_inst)) {
    311c:	2b00      	cmp	r3, #0
    311e:	d1fb      	bne.n	3118 <adc_init+0x260>
			config->positive_input;
    3120:	7933      	ldrb	r3, [r6, #4]
			config->negative_input |
    3122:	88f2      	ldrh	r2, [r6, #6]
    3124:	4313      	orrs	r3, r2
	adc_module->INPUTCTRL.reg =
    3126:	813b      	strh	r3, [r7, #8]
	Adc *const adc_module = module_inst->hw;
    3128:	682a      	ldr	r2, [r5, #0]
	if (adc_module->SYNCBUSY.reg) {
    312a:	8c13      	ldrh	r3, [r2, #32]
    312c:	b29b      	uxth	r3, r3
	while (adc_is_syncing(module_inst)) {
    312e:	2b00      	cmp	r3, #0
    3130:	d1fb      	bne.n	312a <adc_init+0x272>
	adc_module->EVCTRL.reg = config->event_action;
    3132:	332a      	adds	r3, #42	; 0x2a
    3134:	5cf3      	ldrb	r3, [r6, r3]
    3136:	70fb      	strb	r3, [r7, #3]
	adc_module->INTENCLR.reg =
    3138:	2307      	movs	r3, #7
    313a:	713b      	strb	r3, [r7, #4]
	if (config->correction.correction_enable){
    313c:	331d      	adds	r3, #29
    313e:	5cf3      	ldrb	r3, [r6, r3]
    3140:	2b00      	cmp	r3, #0
    3142:	d01b      	beq.n	317c <adc_init+0x2c4>
		if (config->correction.gain_correction > ADC_GAINCORR_GAINCORR_Msk) {
    3144:	8cf2      	ldrh	r2, [r6, #38]	; 0x26
    3146:	491d      	ldr	r1, [pc, #116]	; (31bc <adc_init+0x304>)
			return STATUS_ERR_INVALID_ARG;
    3148:	2317      	movs	r3, #23
		if (config->correction.gain_correction > ADC_GAINCORR_GAINCORR_Msk) {
    314a:	428a      	cmp	r2, r1
    314c:	d900      	bls.n	3150 <adc_init+0x298>
    314e:	e6c7      	b.n	2ee0 <adc_init+0x28>
			adc_module->GAINCORR.reg = config->correction.gain_correction <<
    3150:	827a      	strh	r2, [r7, #18]
	Adc *const adc_module = module_inst->hw;
    3152:	682a      	ldr	r2, [r5, #0]
	if (adc_module->SYNCBUSY.reg) {
    3154:	8c13      	ldrh	r3, [r2, #32]
    3156:	b29b      	uxth	r3, r3
		while (adc_is_syncing(module_inst)) {
    3158:	2b00      	cmp	r3, #0
    315a:	d1fb      	bne.n	3154 <adc_init+0x29c>
		if (config->correction.offset_correction > 2047 ||
    315c:	8d31      	ldrh	r1, [r6, #40]	; 0x28
    315e:	2380      	movs	r3, #128	; 0x80
    3160:	011b      	lsls	r3, r3, #4
    3162:	18ca      	adds	r2, r1, r3
    3164:	4815      	ldr	r0, [pc, #84]	; (31bc <adc_init+0x304>)
    3166:	b292      	uxth	r2, r2
			return STATUS_ERR_INVALID_ARG;
    3168:	2317      	movs	r3, #23
		if (config->correction.offset_correction > 2047 ||
    316a:	4282      	cmp	r2, r0
    316c:	d900      	bls.n	3170 <adc_init+0x2b8>
    316e:	e6b7      	b.n	2ee0 <adc_init+0x28>
			adc_module->OFFSETCORR.reg = config->correction.offset_correction <<
    3170:	82b9      	strh	r1, [r7, #20]
	Adc *const adc_module = module_inst->hw;
    3172:	682a      	ldr	r2, [r5, #0]
	if (adc_module->SYNCBUSY.reg) {
    3174:	8c13      	ldrh	r3, [r2, #32]
    3176:	b29b      	uxth	r3, r3
		while (adc_is_syncing(module_inst)) {
    3178:	2b00      	cmp	r3, #0
    317a:	d1fb      	bne.n	3174 <adc_init+0x2bc>
			ADC_CALIB_BIASREFBUF(
    317c:	4b10      	ldr	r3, [pc, #64]	; (31c0 <adc_init+0x308>)
    317e:	681b      	ldr	r3, [r3, #0]
    3180:	021a      	lsls	r2, r3, #8
    3182:	21e0      	movs	r1, #224	; 0xe0
    3184:	00c9      	lsls	r1, r1, #3
    3186:	400a      	ands	r2, r1
			ADC_CALIB_BIASCOMP(
    3188:	069b      	lsls	r3, r3, #26
    318a:	0f5b      	lsrs	r3, r3, #29
			) |
    318c:	4313      	orrs	r3, r2
	adc_module->CALIB.reg =
    318e:	85bb      	strh	r3, [r7, #44]	; 0x2c
	return STATUS_OK;
    3190:	2300      	movs	r3, #0
    3192:	e6a5      	b.n	2ee0 <adc_init+0x28>
    3194:	00002e71 	.word	0x00002e71
    3198:	40000400 	.word	0x40000400
    319c:	40001400 	.word	0x40001400
    31a0:	20003d74 	.word	0x20003d74
    31a4:	00003899 	.word	0x00003899
    31a8:	00003829 	.word	0x00003829
    31ac:	00006c4c 	.word	0x00006c4c
    31b0:	00006329 	.word	0x00006329
    31b4:	00003995 	.word	0x00003995
    31b8:	00006b78 	.word	0x00006b78
    31bc:	00000fff 	.word	0x00000fff
    31c0:	00806020 	.word	0x00806020
		switch (resolution) {
    31c4:	2800      	cmp	r0, #0
    31c6:	d195      	bne.n	30f4 <adc_init+0x23c>
			if (config->differential_mode &&
    31c8:	7af3      	ldrb	r3, [r6, #11]
    31ca:	2b00      	cmp	r3, #0
    31cc:	d012      	beq.n	31f4 <adc_init+0x33c>
					(config->window.window_lower_value > 2047 ||
    31ce:	69f3      	ldr	r3, [r6, #28]
    31d0:	2080      	movs	r0, #128	; 0x80
    31d2:	0100      	lsls	r0, r0, #4
    31d4:	4684      	mov	ip, r0
    31d6:	4463      	add	r3, ip
    31d8:	0019      	movs	r1, r3
			if (config->differential_mode &&
    31da:	482e      	ldr	r0, [pc, #184]	; (3294 <adc_init+0x3dc>)
				return STATUS_ERR_INVALID_ARG;
    31dc:	2317      	movs	r3, #23
			if (config->differential_mode &&
    31de:	4281      	cmp	r1, r0
    31e0:	d900      	bls.n	31e4 <adc_init+0x32c>
    31e2:	e67d      	b.n	2ee0 <adc_init+0x28>
					config->window.window_lower_value < -2048 ||
    31e4:	6a33      	ldr	r3, [r6, #32]
    31e6:	4463      	add	r3, ip
    31e8:	0019      	movs	r1, r3
    31ea:	482a      	ldr	r0, [pc, #168]	; (3294 <adc_init+0x3dc>)
				return STATUS_ERR_INVALID_ARG;
    31ec:	2317      	movs	r3, #23
					config->window.window_lower_value < -2048 ||
    31ee:	4281      	cmp	r1, r0
    31f0:	d900      	bls.n	31f4 <adc_init+0x33c>
    31f2:	e675      	b.n	2ee0 <adc_init+0x28>
			} else if (config->window.window_lower_value > 4095 ||
    31f4:	4927      	ldr	r1, [pc, #156]	; (3294 <adc_init+0x3dc>)
				return STATUS_ERR_INVALID_ARG;
    31f6:	2317      	movs	r3, #23
			} else if (config->window.window_lower_value > 4095 ||
    31f8:	69f0      	ldr	r0, [r6, #28]
    31fa:	4288      	cmp	r0, r1
    31fc:	dd00      	ble.n	3200 <adc_init+0x348>
    31fe:	e66f      	b.n	2ee0 <adc_init+0x28>
    3200:	6a30      	ldr	r0, [r6, #32]
    3202:	4288      	cmp	r0, r1
    3204:	dd00      	ble.n	3208 <adc_init+0x350>
    3206:	e66b      	b.n	2ee0 <adc_init+0x28>
    3208:	e774      	b.n	30f4 <adc_init+0x23c>
			if (config->differential_mode &&
    320a:	7af3      	ldrb	r3, [r6, #11]
    320c:	2b00      	cmp	r3, #0
    320e:	d012      	beq.n	3236 <adc_init+0x37e>
					(config->window.window_lower_value > 511 ||
    3210:	69f3      	ldr	r3, [r6, #28]
    3212:	2080      	movs	r0, #128	; 0x80
    3214:	0080      	lsls	r0, r0, #2
    3216:	4684      	mov	ip, r0
    3218:	4463      	add	r3, ip
    321a:	0019      	movs	r1, r3
			if (config->differential_mode &&
    321c:	481e      	ldr	r0, [pc, #120]	; (3298 <adc_init+0x3e0>)
				return STATUS_ERR_INVALID_ARG;
    321e:	2317      	movs	r3, #23
			if (config->differential_mode &&
    3220:	4281      	cmp	r1, r0
    3222:	d900      	bls.n	3226 <adc_init+0x36e>
    3224:	e65c      	b.n	2ee0 <adc_init+0x28>
					config->window.window_lower_value < -512 ||
    3226:	6a33      	ldr	r3, [r6, #32]
    3228:	4463      	add	r3, ip
    322a:	0019      	movs	r1, r3
    322c:	481a      	ldr	r0, [pc, #104]	; (3298 <adc_init+0x3e0>)
				return STATUS_ERR_INVALID_ARG;
    322e:	2317      	movs	r3, #23
					config->window.window_lower_value < -512 ||
    3230:	4281      	cmp	r1, r0
    3232:	d900      	bls.n	3236 <adc_init+0x37e>
    3234:	e654      	b.n	2ee0 <adc_init+0x28>
			} else if (config->window.window_lower_value > 1023 ||
    3236:	4918      	ldr	r1, [pc, #96]	; (3298 <adc_init+0x3e0>)
				return STATUS_ERR_INVALID_ARG;
    3238:	2317      	movs	r3, #23
			} else if (config->window.window_lower_value > 1023 ||
    323a:	69f0      	ldr	r0, [r6, #28]
    323c:	4288      	cmp	r0, r1
    323e:	dd00      	ble.n	3242 <adc_init+0x38a>
    3240:	e64e      	b.n	2ee0 <adc_init+0x28>
    3242:	6a30      	ldr	r0, [r6, #32]
    3244:	4288      	cmp	r0, r1
    3246:	dd00      	ble.n	324a <adc_init+0x392>
    3248:	e64a      	b.n	2ee0 <adc_init+0x28>
    324a:	e753      	b.n	30f4 <adc_init+0x23c>
			if (config->differential_mode &&
    324c:	7af3      	ldrb	r3, [r6, #11]
    324e:	2b00      	cmp	r3, #0
    3250:	d012      	beq.n	3278 <adc_init+0x3c0>
					(config->window.window_lower_value > 32767 ||
    3252:	69f3      	ldr	r3, [r6, #28]
    3254:	2080      	movs	r0, #128	; 0x80
    3256:	0200      	lsls	r0, r0, #8
    3258:	4684      	mov	ip, r0
    325a:	4463      	add	r3, ip
    325c:	0019      	movs	r1, r3
			if (config->differential_mode &&
    325e:	480f      	ldr	r0, [pc, #60]	; (329c <adc_init+0x3e4>)
				return STATUS_ERR_INVALID_ARG;
    3260:	2317      	movs	r3, #23
			if (config->differential_mode &&
    3262:	4281      	cmp	r1, r0
    3264:	d900      	bls.n	3268 <adc_init+0x3b0>
    3266:	e63b      	b.n	2ee0 <adc_init+0x28>
					config->window.window_lower_value < -32768 ||
    3268:	6a33      	ldr	r3, [r6, #32]
    326a:	4463      	add	r3, ip
    326c:	0019      	movs	r1, r3
    326e:	480b      	ldr	r0, [pc, #44]	; (329c <adc_init+0x3e4>)
				return STATUS_ERR_INVALID_ARG;
    3270:	2317      	movs	r3, #23
					config->window.window_lower_value < -32768 ||
    3272:	4281      	cmp	r1, r0
    3274:	d900      	bls.n	3278 <adc_init+0x3c0>
    3276:	e633      	b.n	2ee0 <adc_init+0x28>
			} else if (config->window.window_lower_value > 65535 ||
    3278:	4908      	ldr	r1, [pc, #32]	; (329c <adc_init+0x3e4>)
				return STATUS_ERR_INVALID_ARG;
    327a:	2317      	movs	r3, #23
			} else if (config->window.window_lower_value > 65535 ||
    327c:	69f0      	ldr	r0, [r6, #28]
    327e:	4288      	cmp	r0, r1
    3280:	dd00      	ble.n	3284 <adc_init+0x3cc>
    3282:	e62d      	b.n	2ee0 <adc_init+0x28>
    3284:	6a30      	ldr	r0, [r6, #32]
    3286:	4288      	cmp	r0, r1
    3288:	dd00      	ble.n	328c <adc_init+0x3d4>
    328a:	e629      	b.n	2ee0 <adc_init+0x28>
    328c:	e732      	b.n	30f4 <adc_init+0x23c>
		return STATUS_ERR_INVALID_ARG;
    328e:	2317      	movs	r3, #23
    3290:	e626      	b.n	2ee0 <adc_init+0x28>
    3292:	46c0      	nop			; (mov r8, r8)
    3294:	00000fff 	.word	0x00000fff
    3298:	000003ff 	.word	0x000003ff
    329c:	0000ffff 	.word	0x0000ffff

000032a0 <ADC_Handler>:
		}

	MREPEAT(ADC_INST_NUM, _ADC_INTERRUPT_HANDLER, 0)
#else
void ADC_Handler(void)
{
    32a0:	b570      	push	{r4, r5, r6, lr}
	struct adc_module *module = _adc_instances[instance];
    32a2:	4b2e      	ldr	r3, [pc, #184]	; (335c <ADC_Handler+0xbc>)
    32a4:	681c      	ldr	r4, [r3, #0]
	uint32_t flags = module->hw->INTFLAG.reg;
    32a6:	6823      	ldr	r3, [r4, #0]
    32a8:	799d      	ldrb	r5, [r3, #6]
    32aa:	b2ed      	uxtb	r5, r5
	if (flags & ADC_INTFLAG_RESRDY) {
    32ac:	07ea      	lsls	r2, r5, #31
    32ae:	d52d      	bpl.n	330c <ADC_Handler+0x6c>
		if ((module->enabled_callback_mask & (1 << ADC_CALLBACK_READ_BUFFER)) &&
    32b0:	7ee2      	ldrb	r2, [r4, #27]
    32b2:	07d2      	lsls	r2, r2, #31
    32b4:	d52a      	bpl.n	330c <ADC_Handler+0x6c>
    32b6:	7ea2      	ldrb	r2, [r4, #26]
    32b8:	07d2      	lsls	r2, r2, #31
    32ba:	d527      	bpl.n	330c <ADC_Handler+0x6c>
			module->hw->INTFLAG.reg = ADC_INTFLAG_RESRDY;
    32bc:	2201      	movs	r2, #1
    32be:	719a      	strb	r2, [r3, #6]
			*(module->job_buffer++) = module->hw->RESULT.reg;
    32c0:	6962      	ldr	r2, [r4, #20]
    32c2:	1c93      	adds	r3, r2, #2
    32c4:	6163      	str	r3, [r4, #20]
    32c6:	6823      	ldr	r3, [r4, #0]
    32c8:	8c9b      	ldrh	r3, [r3, #36]	; 0x24
    32ca:	b29b      	uxth	r3, r3
    32cc:	8013      	strh	r3, [r2, #0]
			if (--module->remaining_conversions > 0) {
    32ce:	8b23      	ldrh	r3, [r4, #24]
    32d0:	3b01      	subs	r3, #1
    32d2:	b29b      	uxth	r3, r3
    32d4:	8323      	strh	r3, [r4, #24]
    32d6:	2b00      	cmp	r3, #0
    32d8:	d015      	beq.n	3306 <ADC_Handler+0x66>
				if (module->software_trigger == true
    32da:	7f63      	ldrb	r3, [r4, #29]
    32dc:	2b00      	cmp	r3, #0
    32de:	d015      	beq.n	330c <ADC_Handler+0x6c>
					&& (!(module->hw->SEQSTATUS.reg & ADC_SEQSTATUS_SEQBUSY))) {
    32e0:	6822      	ldr	r2, [r4, #0]
    32e2:	79d3      	ldrb	r3, [r2, #7]
    32e4:	b25b      	sxtb	r3, r3
    32e6:	2b00      	cmp	r3, #0
    32e8:	db10      	blt.n	330c <ADC_Handler+0x6c>
    32ea:	8c13      	ldrh	r3, [r2, #32]
    32ec:	b29b      	uxth	r3, r3
	Assert(module_inst);
	Assert(module_inst->hw);

	Adc *const adc_module = module_inst->hw;

	while (adc_is_syncing(module_inst)) {
    32ee:	2b00      	cmp	r3, #0
    32f0:	d1fb      	bne.n	32ea <ADC_Handler+0x4a>
		/* Wait for synchronization */
	}

	adc_module->SWTRIG.reg |= ADC_SWTRIG_START;
    32f2:	7e13      	ldrb	r3, [r2, #24]
    32f4:	2102      	movs	r1, #2
    32f6:	430b      	orrs	r3, r1
    32f8:	7613      	strb	r3, [r2, #24]
	Adc *const adc_module = module_inst->hw;
    32fa:	6822      	ldr	r2, [r4, #0]
	if (adc_module->SYNCBUSY.reg) {
    32fc:	8c13      	ldrh	r3, [r2, #32]
    32fe:	b29b      	uxth	r3, r3

	while (adc_is_syncing(module_inst)) {
    3300:	2b00      	cmp	r3, #0
    3302:	d1fb      	bne.n	32fc <ADC_Handler+0x5c>
    3304:	e002      	b.n	330c <ADC_Handler+0x6c>
				if (module->job_status == STATUS_BUSY) {
    3306:	7f23      	ldrb	r3, [r4, #28]
    3308:	2b05      	cmp	r3, #5
    330a:	d016      	beq.n	333a <ADC_Handler+0x9a>
	if (flags & ADC_INTFLAG_WINMON) {
    330c:	076b      	lsls	r3, r5, #29
    330e:	d508      	bpl.n	3322 <ADC_Handler+0x82>
		module->hw->INTFLAG.reg = ADC_INTFLAG_WINMON;
    3310:	2304      	movs	r3, #4
    3312:	6822      	ldr	r2, [r4, #0]
    3314:	7193      	strb	r3, [r2, #6]
		if ((module->enabled_callback_mask & (1 << ADC_CALLBACK_WINDOW)) &&
    3316:	7ee3      	ldrb	r3, [r4, #27]
    3318:	079b      	lsls	r3, r3, #30
    331a:	d502      	bpl.n	3322 <ADC_Handler+0x82>
    331c:	7ea3      	ldrb	r3, [r4, #26]
    331e:	079b      	lsls	r3, r3, #30
    3320:	d414      	bmi.n	334c <ADC_Handler+0xac>
	if (flags & ADC_INTFLAG_OVERRUN) {
    3322:	07ab      	lsls	r3, r5, #30
    3324:	d508      	bpl.n	3338 <ADC_Handler+0x98>
		module->hw->INTFLAG.reg = ADC_INTFLAG_OVERRUN;
    3326:	2302      	movs	r3, #2
    3328:	6822      	ldr	r2, [r4, #0]
    332a:	7193      	strb	r3, [r2, #6]
		if ((module->enabled_callback_mask & (1 << ADC_CALLBACK_ERROR)) &&
    332c:	7ee3      	ldrb	r3, [r4, #27]
    332e:	075b      	lsls	r3, r3, #29
    3330:	d502      	bpl.n	3338 <ADC_Handler+0x98>
    3332:	7ea3      	ldrb	r3, [r4, #26]
    3334:	075b      	lsls	r3, r3, #29
    3336:	d40d      	bmi.n	3354 <ADC_Handler+0xb4>
	_adc_interrupt_handler(0);
}
    3338:	bd70      	pop	{r4, r5, r6, pc}
					module->job_status = STATUS_OK;
    333a:	2300      	movs	r3, #0
    333c:	7723      	strb	r3, [r4, #28]
	Assert(module_inst);
	Assert(module_inst->hw);

	Adc *const adc_module = module_inst->hw;
	/* Enable interrupt */
	adc_module->INTENCLR.reg = interrupt;
    333e:	3301      	adds	r3, #1
    3340:	6822      	ldr	r2, [r4, #0]
    3342:	7113      	strb	r3, [r2, #4]
					(module->callback[ADC_CALLBACK_READ_BUFFER])(module);
    3344:	0020      	movs	r0, r4
    3346:	68a3      	ldr	r3, [r4, #8]
    3348:	4798      	blx	r3
    334a:	e7df      	b.n	330c <ADC_Handler+0x6c>
			(module->callback[ADC_CALLBACK_WINDOW])(module);
    334c:	0020      	movs	r0, r4
    334e:	68e3      	ldr	r3, [r4, #12]
    3350:	4798      	blx	r3
    3352:	e7e6      	b.n	3322 <ADC_Handler+0x82>
			(module->callback[ADC_CALLBACK_ERROR])(module);
    3354:	6923      	ldr	r3, [r4, #16]
    3356:	0020      	movs	r0, r4
    3358:	4798      	blx	r3
}
    335a:	e7ed      	b.n	3338 <ADC_Handler+0x98>
    335c:	20003d74 	.word	0x20003d74

00003360 <adc_register_callback>:
	/* Sanity check arguments */
	Assert(module);
	Assert(callback_func);

	/* Register callback function */
	module->callback[callback_type] = callback_func;
    3360:	1c93      	adds	r3, r2, #2
    3362:	009b      	lsls	r3, r3, #2
    3364:	5019      	str	r1, [r3, r0]

	/* Set the bit corresponding to the callback_type */
	module->registered_callback_mask |= (1 << callback_type);
    3366:	2301      	movs	r3, #1
    3368:	4093      	lsls	r3, r2
    336a:	001a      	movs	r2, r3
    336c:	7e83      	ldrb	r3, [r0, #26]
    336e:	4313      	orrs	r3, r2
    3370:	7683      	strb	r3, [r0, #26]
}
    3372:	4770      	bx	lr

00003374 <adc_read_buffer_job>:
 */
enum status_code adc_read_buffer_job(
		struct adc_module *const module_inst,
		uint16_t *buffer,
		uint16_t samples)
{
    3374:	b510      	push	{r4, lr}
	Assert(module_inst);
	Assert(samples);
	Assert(buffer);

	if(module_inst->remaining_conversions != 0 ||
    3376:	8b03      	ldrh	r3, [r0, #24]
    3378:	b29b      	uxth	r3, r3
			module_inst->job_status == STATUS_BUSY){
		return STATUS_BUSY;
    337a:	2405      	movs	r4, #5
	if(module_inst->remaining_conversions != 0 ||
    337c:	2b00      	cmp	r3, #0
    337e:	d001      	beq.n	3384 <adc_read_buffer_job+0x10>
	if(module_inst->software_trigger == true) {
		adc_start_conversion(module_inst);
	}

	return STATUS_OK;
}
    3380:	0020      	movs	r0, r4
    3382:	bd10      	pop	{r4, pc}
			module_inst->job_status == STATUS_BUSY){
    3384:	7f03      	ldrb	r3, [r0, #28]
	if(module_inst->remaining_conversions != 0 ||
    3386:	2b05      	cmp	r3, #5
    3388:	d0fa      	beq.n	3380 <adc_read_buffer_job+0xc>
	module_inst->job_status = STATUS_BUSY;
    338a:	2305      	movs	r3, #5
    338c:	7703      	strb	r3, [r0, #28]
	module_inst->remaining_conversions = samples;
    338e:	8302      	strh	r2, [r0, #24]
	module_inst->job_buffer = buffer;
    3390:	6141      	str	r1, [r0, #20]
	adc_module->INTENSET.reg = interrupt;
    3392:	3b04      	subs	r3, #4
    3394:	6802      	ldr	r2, [r0, #0]
    3396:	7153      	strb	r3, [r2, #5]
	if(module_inst->software_trigger == true) {
    3398:	7f43      	ldrb	r3, [r0, #29]
	return STATUS_OK;
    339a:	2400      	movs	r4, #0
	if(module_inst->software_trigger == true) {
    339c:	2b00      	cmp	r3, #0
    339e:	d0ef      	beq.n	3380 <adc_read_buffer_job+0xc>
	Adc *const adc_module = module_inst->hw;
    33a0:	6802      	ldr	r2, [r0, #0]
    33a2:	8c13      	ldrh	r3, [r2, #32]
    33a4:	b29b      	uxth	r3, r3
	while (adc_is_syncing(module_inst)) {
    33a6:	2b00      	cmp	r3, #0
    33a8:	d1fb      	bne.n	33a2 <adc_read_buffer_job+0x2e>
	adc_module->SWTRIG.reg |= ADC_SWTRIG_START;
    33aa:	7e13      	ldrb	r3, [r2, #24]
    33ac:	2102      	movs	r1, #2
    33ae:	430b      	orrs	r3, r1
    33b0:	7613      	strb	r3, [r2, #24]
	Adc *const adc_module = module_inst->hw;
    33b2:	6802      	ldr	r2, [r0, #0]
	if (adc_module->SYNCBUSY.reg) {
    33b4:	8c13      	ldrh	r3, [r2, #32]
    33b6:	b29b      	uxth	r3, r3
	while (adc_is_syncing(module_inst)) {
    33b8:	2b00      	cmp	r3, #0
    33ba:	d1fb      	bne.n	33b4 <adc_read_buffer_job+0x40>
	return STATUS_OK;
    33bc:	2400      	movs	r4, #0
    33be:	e7df      	b.n	3380 <adc_read_buffer_job+0xc>

000033c0 <opamp_module_init>:
 */

#include "opamp.h"

void opamp_module_init(void)
{
    33c0:	b500      	push	{lr}
    33c2:	b083      	sub	sp, #12
	config->write_once          = false;
    33c4:	a801      	add	r0, sp, #4
    33c6:	2300      	movs	r3, #0
    33c8:	7003      	strb	r3, [r0, #0]
	struct system_clock_source_osculp32k_config config;

	/* Enable the OSCULP32K clock. */
	system_clock_source_osculp32k_get_config_defaults(&config);
	system_clock_source_osculp32k_set_config(&config);
    33ca:	4b09      	ldr	r3, [pc, #36]	; (33f0 <opamp_module_init+0x30>)
    33cc:	4798      	blx	r3
			MCLK->APBDMASK.reg |= mask;
    33ce:	4a09      	ldr	r2, [pc, #36]	; (33f4 <opamp_module_init+0x34>)
    33d0:	6a13      	ldr	r3, [r2, #32]
    33d2:	2140      	movs	r1, #64	; 0x40
    33d4:	430b      	orrs	r3, r1
    33d6:	6213      	str	r3, [r2, #32]
 * and the OPAMP will be disabled.
 */
static inline void opamp_module_reset(void)
{
	/* Reset OPAMP. */
	OPAMP->CTRLA.reg |= OPAMP_CTRLA_SWRST;
    33d8:	4b07      	ldr	r3, [pc, #28]	; (33f8 <opamp_module_init+0x38>)
    33da:	781a      	ldrb	r2, [r3, #0]
    33dc:	393f      	subs	r1, #63	; 0x3f
    33de:	430a      	orrs	r2, r1
    33e0:	701a      	strb	r2, [r3, #0]
 *
 */
static inline void opamp_module_enable(void)
{
	/* Enable OPAMP. */
	OPAMP->CTRLA.reg |= OPAMP_CTRLA_ENABLE;
    33e2:	781a      	ldrb	r2, [r3, #0]
    33e4:	3101      	adds	r1, #1
    33e6:	430a      	orrs	r2, r1
    33e8:	701a      	strb	r2, [r3, #0]
	/* Reset module. */
	opamp_module_reset();

	/* Enable module. */
	opamp_module_enable();
}
    33ea:	b003      	add	sp, #12
    33ec:	bd00      	pop	{pc}
    33ee:	46c0      	nop			; (mov r8, r8)
    33f0:	0000359d 	.word	0x0000359d
    33f4:	40000400 	.word	0x40000400
    33f8:	43001800 	.word	0x43001800

000033fc <opamp2_get_config_defaults>:
{
	/* Sanity check arguments */
	Assert(config);

	/* Default configuration values */
	config->potentiometer_selection = OPAMP_POT_MUX_8R_8R;
    33fc:	2380      	movs	r3, #128	; 0x80
    33fe:	01db      	lsls	r3, r3, #7
    3400:	8143      	strh	r3, [r0, #10]
	config->r1_enable = false;
    3402:	2300      	movs	r3, #0
    3404:	7303      	strb	r3, [r0, #12]
	config->r2_vcc = false;
    3406:	7343      	strb	r3, [r0, #13]
	config->r2_out = false;
    3408:	7383      	strb	r3, [r0, #14]
	config->on_demand = false;
    340a:	73c3      	strb	r3, [r0, #15]
	config->run_in_standby = false;
    340c:	7403      	strb	r3, [r0, #16]
	config->bias_value = OPAMP_BIAS_MODE_0;
    340e:	7443      	strb	r3, [r0, #17]
	config->analog_out = false;
    3410:	7483      	strb	r3, [r0, #18]
	Assert(config);

	_opamp_get_config_common_defaults(&(config->config_common));

	/* Default configuration values */
	config->negative_input = OPAMP2_NEG_MUX_OUT2;
    3412:	2280      	movs	r2, #128	; 0x80
    3414:	0392      	lsls	r2, r2, #14
    3416:	6002      	str	r2, [r0, #0]
	config->positive_input = OPAMP2_POS_MUX_PIN2;
    3418:	6043      	str	r3, [r0, #4]
	config->r1_connection = OPAMP2_RES1_MUX_GND;
    341a:	23c0      	movs	r3, #192	; 0xc0
    341c:	015b      	lsls	r3, r3, #5
    341e:	8103      	strh	r3, [r0, #8]
}
    3420:	4770      	bx	lr
	...

00003424 <opamp2_set_config>:

void opamp2_set_config(struct opamp2_config *const config)
{
	uint32_t temp = 0;

	if (config->config_common.r1_enable) {
    3424:	7b03      	ldrb	r3, [r0, #12]
		temp |= OPAMP_OPAMPCTRL_RES1EN;
    3426:	1e5a      	subs	r2, r3, #1
    3428:	4193      	sbcs	r3, r2
    342a:	029a      	lsls	r2, r3, #10
	}

	if (config->config_common.r2_vcc) {
    342c:	7b43      	ldrb	r3, [r0, #13]
    342e:	2b00      	cmp	r3, #0
    3430:	d002      	beq.n	3438 <opamp2_set_config+0x14>
		temp |= OPAMP_OPAMPCTRL_RES2VCC;
    3432:	2380      	movs	r3, #128	; 0x80
    3434:	009b      	lsls	r3, r3, #2
    3436:	431a      	orrs	r2, r3
	}

	if (config->config_common.r2_out) {
    3438:	7b83      	ldrb	r3, [r0, #14]
    343a:	2b00      	cmp	r3, #0
    343c:	d002      	beq.n	3444 <opamp2_set_config+0x20>
		temp |= OPAMP_OPAMPCTRL_RES2OUT;
    343e:	2380      	movs	r3, #128	; 0x80
    3440:	005b      	lsls	r3, r3, #1
    3442:	431a      	orrs	r2, r3
	}

	if (config->config_common.on_demand) {
    3444:	7bc3      	ldrb	r3, [r0, #15]
    3446:	2b00      	cmp	r3, #0
    3448:	d001      	beq.n	344e <opamp2_set_config+0x2a>
		temp |= OPAMP_OPAMPCTRL_ONDEMAND;
    344a:	2380      	movs	r3, #128	; 0x80
    344c:	431a      	orrs	r2, r3
	}

	if (config->config_common.run_in_standby) {
    344e:	7c03      	ldrb	r3, [r0, #16]
    3450:	2b00      	cmp	r3, #0
    3452:	d001      	beq.n	3458 <opamp2_set_config+0x34>
		temp |= OPAMP_OPAMPCTRL_RUNSTDBY;
    3454:	2340      	movs	r3, #64	; 0x40
    3456:	431a      	orrs	r2, r3
	}

	if (config->config_common.analog_out) {
    3458:	7c83      	ldrb	r3, [r0, #18]
    345a:	2b00      	cmp	r3, #0
    345c:	d001      	beq.n	3462 <opamp2_set_config+0x3e>
		temp |= OPAMP_OPAMPCTRL_ANAOUT;
    345e:	2304      	movs	r3, #4
    3460:	431a      	orrs	r2, r3

	OPAMP->OPAMPCTRL[2].reg = temp |
		config->config_common.potentiometer_selection |
		config->config_common.bias_value |
		config->negative_input |
		config->positive_input|
    3462:	6803      	ldr	r3, [r0, #0]
    3464:	6841      	ldr	r1, [r0, #4]
    3466:	430b      	orrs	r3, r1
		config->config_common.potentiometer_selection |
    3468:	8941      	ldrh	r1, [r0, #10]
		config->positive_input|
    346a:	430b      	orrs	r3, r1
		config->config_common.bias_value |
    346c:	7c41      	ldrb	r1, [r0, #17]
		config->positive_input|
    346e:	430b      	orrs	r3, r1
		config->r1_connection;
    3470:	8901      	ldrh	r1, [r0, #8]
		config->positive_input|
    3472:	430b      	orrs	r3, r1
    3474:	4313      	orrs	r3, r2
	OPAMP->OPAMPCTRL[2].reg = temp |
    3476:	4a01      	ldr	r2, [pc, #4]	; (347c <opamp2_set_config+0x58>)
    3478:	60d3      	str	r3, [r2, #12]
}
    347a:	4770      	bx	lr
    347c:	43001800 	.word	0x43001800

00003480 <opamp_enable>:
{
	/* Sanity check arguments */
	Assert(number);

	/* Enable the OPAMP */
	if (number == OPAMP_0) {
    3480:	2800      	cmp	r0, #0
    3482:	d009      	beq.n	3498 <opamp_enable+0x18>
		OPAMP->OPAMPCTRL[0].reg |= OPAMP_OPAMPCTRL_ENABLE;
	} else if (number == OPAMP_1) {
    3484:	2801      	cmp	r0, #1
    3486:	d00d      	beq.n	34a4 <opamp_enable+0x24>
		OPAMP->OPAMPCTRL[1].reg |= OPAMP_OPAMPCTRL_ENABLE;
	} else if (number == OPAMP_2) {
    3488:	2802      	cmp	r0, #2
    348a:	d10a      	bne.n	34a2 <opamp_enable+0x22>
		OPAMP->OPAMPCTRL[2].reg |= OPAMP_OPAMPCTRL_ENABLE;
    348c:	4a08      	ldr	r2, [pc, #32]	; (34b0 <opamp_enable+0x30>)
    348e:	68d3      	ldr	r3, [r2, #12]
    3490:	2102      	movs	r1, #2
    3492:	430b      	orrs	r3, r1
    3494:	60d3      	str	r3, [r2, #12]
	}
}
    3496:	e004      	b.n	34a2 <opamp_enable+0x22>
		OPAMP->OPAMPCTRL[0].reg |= OPAMP_OPAMPCTRL_ENABLE;
    3498:	4a05      	ldr	r2, [pc, #20]	; (34b0 <opamp_enable+0x30>)
    349a:	6853      	ldr	r3, [r2, #4]
    349c:	2102      	movs	r1, #2
    349e:	430b      	orrs	r3, r1
    34a0:	6053      	str	r3, [r2, #4]
}
    34a2:	4770      	bx	lr
		OPAMP->OPAMPCTRL[1].reg |= OPAMP_OPAMPCTRL_ENABLE;
    34a4:	4a02      	ldr	r2, [pc, #8]	; (34b0 <opamp_enable+0x30>)
    34a6:	6893      	ldr	r3, [r2, #8]
    34a8:	2102      	movs	r1, #2
    34aa:	430b      	orrs	r3, r1
    34ac:	6093      	str	r3, [r2, #8]
    34ae:	e7f8      	b.n	34a2 <opamp_enable+0x22>
    34b0:	43001800 	.word	0x43001800

000034b4 <opamp_is_ready>:
		OPAMP->OPAMPCTRL[2].reg &= ~OPAMP_OPAMPCTRL_ENABLE;
	}
}

bool opamp_is_ready(const enum opamp_id number)
{
    34b4:	1e03      	subs	r3, r0, #0
	/* Sanity check arguments */
	Assert(number);

	/* Get the OPAMP output ready status*/
	if (number == OPAMP_0) {
    34b6:	d009      	beq.n	34cc <opamp_is_ready+0x18>
		return OPAMP->STATUS.bit.READY0;
	} else if (number == OPAMP_1) {
    34b8:	2801      	cmp	r0, #1
    34ba:	d00c      	beq.n	34d6 <opamp_is_ready+0x22>
		return OPAMP->STATUS.bit.READY1;
	} else if (number == OPAMP_2) {
		return OPAMP->STATUS.bit.READY2;
	}

	return false;
    34bc:	2000      	movs	r0, #0
	} else if (number == OPAMP_2) {
    34be:	2b02      	cmp	r3, #2
    34c0:	d108      	bne.n	34d4 <opamp_is_ready+0x20>
		return OPAMP->STATUS.bit.READY2;
    34c2:	4b07      	ldr	r3, [pc, #28]	; (34e0 <opamp_is_ready+0x2c>)
    34c4:	7898      	ldrb	r0, [r3, #2]
    34c6:	0740      	lsls	r0, r0, #29
    34c8:	0fc0      	lsrs	r0, r0, #31
    34ca:	e003      	b.n	34d4 <opamp_is_ready+0x20>
		return OPAMP->STATUS.bit.READY0;
    34cc:	4b04      	ldr	r3, [pc, #16]	; (34e0 <opamp_is_ready+0x2c>)
    34ce:	7898      	ldrb	r0, [r3, #2]
    34d0:	07c0      	lsls	r0, r0, #31
    34d2:	0fc0      	lsrs	r0, r0, #31
}
    34d4:	4770      	bx	lr
		return OPAMP->STATUS.bit.READY1;
    34d6:	4b02      	ldr	r3, [pc, #8]	; (34e0 <opamp_is_ready+0x2c>)
    34d8:	7898      	ldrb	r0, [r3, #2]
    34da:	0780      	lsls	r0, r0, #30
    34dc:	0fc0      	lsrs	r0, r0, #31
    34de:	e7f9      	b.n	34d4 <opamp_is_ready+0x20>
    34e0:	43001800 	.word	0x43001800

000034e4 <port_pin_set_config>:
 *  \param[in] config    Configuration settings for the pin
 */
void port_pin_set_config(
		const uint8_t gpio_pin,
		const struct port_config *const config)
{
    34e4:	b500      	push	{lr}
    34e6:	b083      	sub	sp, #12
	config->mux_position = SYSTEM_PINMUX_GPIO;
    34e8:	ab01      	add	r3, sp, #4
    34ea:	2280      	movs	r2, #128	; 0x80
    34ec:	701a      	strb	r2, [r3, #0]

	struct system_pinmux_config pinmux_config;
	system_pinmux_get_config_defaults(&pinmux_config);

	pinmux_config.mux_position = SYSTEM_PINMUX_GPIO;
	pinmux_config.direction    = (enum system_pinmux_pin_dir)config->direction;
    34ee:	780a      	ldrb	r2, [r1, #0]
    34f0:	705a      	strb	r2, [r3, #1]
	pinmux_config.input_pull   = (enum system_pinmux_pin_pull)config->input_pull;
    34f2:	784a      	ldrb	r2, [r1, #1]
    34f4:	709a      	strb	r2, [r3, #2]
	pinmux_config.powersave    = config->powersave;
    34f6:	788a      	ldrb	r2, [r1, #2]
    34f8:	70da      	strb	r2, [r3, #3]

	system_pinmux_pin_set_config(gpio_pin, &pinmux_config);
    34fa:	0019      	movs	r1, r3
    34fc:	4b01      	ldr	r3, [pc, #4]	; (3504 <port_pin_set_config+0x20>)
    34fe:	4798      	blx	r3
}
    3500:	b003      	add	sp, #12
    3502:	bd00      	pop	{pc}
    3504:	00003995 	.word	0x00003995

00003508 <system_clock_source_get_hz>:
 *
 * \returns Frequency of the given clock source, in Hz.
 */
uint32_t system_clock_source_get_hz(
		const enum system_clock_source clock_source)
{
    3508:	b510      	push	{r4, lr}
	switch (clock_source) {
    350a:	2808      	cmp	r0, #8
    350c:	d803      	bhi.n	3516 <system_clock_source_get_hz+0xe>
    350e:	0080      	lsls	r0, r0, #2
    3510:	4b1c      	ldr	r3, [pc, #112]	; (3584 <system_clock_source_get_hz+0x7c>)
    3512:	581b      	ldr	r3, [r3, r0]
    3514:	469f      	mov	pc, r3
		}

		return _system_clock_inst.dpll.frequency;

	default:
		return 0;
    3516:	2000      	movs	r0, #0
    3518:	e032      	b.n	3580 <system_clock_source_get_hz+0x78>
		return _system_clock_inst.xosc.frequency;
    351a:	4b1b      	ldr	r3, [pc, #108]	; (3588 <system_clock_source_get_hz+0x80>)
    351c:	6918      	ldr	r0, [r3, #16]
    351e:	e02f      	b.n	3580 <system_clock_source_get_hz+0x78>
		return (OSCCTRL->OSC16MCTRL.bit.FSEL+1)*4000000UL;
    3520:	4b1a      	ldr	r3, [pc, #104]	; (358c <system_clock_source_get_hz+0x84>)
    3522:	7d18      	ldrb	r0, [r3, #20]
    3524:	0700      	lsls	r0, r0, #28
    3526:	0f80      	lsrs	r0, r0, #30
    3528:	1c43      	adds	r3, r0, #1
    352a:	4819      	ldr	r0, [pc, #100]	; (3590 <system_clock_source_get_hz+0x88>)
    352c:	4358      	muls	r0, r3
    352e:	e027      	b.n	3580 <system_clock_source_get_hz+0x78>
		return _system_clock_inst.xosc32k.frequency;
    3530:	4b15      	ldr	r3, [pc, #84]	; (3588 <system_clock_source_get_hz+0x80>)
    3532:	6958      	ldr	r0, [r3, #20]
    3534:	e024      	b.n	3580 <system_clock_source_get_hz+0x78>
		if (!(_system_clock_inst.dfll.control & OSCCTRL_DFLLCTRL_ENABLE))
    3536:	4b14      	ldr	r3, [pc, #80]	; (3588 <system_clock_source_get_hz+0x80>)
    3538:	681b      	ldr	r3, [r3, #0]
			return 0;
    353a:	2000      	movs	r0, #0
		if (!(_system_clock_inst.dfll.control & OSCCTRL_DFLLCTRL_ENABLE))
    353c:	079b      	lsls	r3, r3, #30
    353e:	d51f      	bpl.n	3580 <system_clock_source_get_hz+0x78>
	while (!(OSCCTRL->STATUS.reg & OSCCTRL_STATUS_DFLLRDY)) {
    3540:	4912      	ldr	r1, [pc, #72]	; (358c <system_clock_source_get_hz+0x84>)
    3542:	2280      	movs	r2, #128	; 0x80
    3544:	0052      	lsls	r2, r2, #1
    3546:	68cb      	ldr	r3, [r1, #12]
    3548:	4213      	tst	r3, r2
    354a:	d0fc      	beq.n	3546 <system_clock_source_get_hz+0x3e>
		if (_system_clock_inst.dfll.control & OSCCTRL_DFLLCTRL_MODE) {
    354c:	4b0e      	ldr	r3, [pc, #56]	; (3588 <system_clock_source_get_hz+0x80>)
    354e:	681b      	ldr	r3, [r3, #0]
    3550:	075b      	lsls	r3, r3, #29
    3552:	d401      	bmi.n	3558 <system_clock_source_get_hz+0x50>
		return 48000000UL;
    3554:	480f      	ldr	r0, [pc, #60]	; (3594 <system_clock_source_get_hz+0x8c>)
    3556:	e013      	b.n	3580 <system_clock_source_get_hz+0x78>
			return system_gclk_chan_get_hz(OSCCTRL_GCLK_ID_DFLL48) *
    3558:	2000      	movs	r0, #0
    355a:	4b0f      	ldr	r3, [pc, #60]	; (3598 <system_clock_source_get_hz+0x90>)
    355c:	4798      	blx	r3
					(_system_clock_inst.dfll.mul & 0xffff);
    355e:	4b0a      	ldr	r3, [pc, #40]	; (3588 <system_clock_source_get_hz+0x80>)
    3560:	689b      	ldr	r3, [r3, #8]
    3562:	041b      	lsls	r3, r3, #16
    3564:	0c1b      	lsrs	r3, r3, #16
			return system_gclk_chan_get_hz(OSCCTRL_GCLK_ID_DFLL48) *
    3566:	4358      	muls	r0, r3
    3568:	e00a      	b.n	3580 <system_clock_source_get_hz+0x78>
		if (!(OSCCTRL->DPLLCTRLA.reg & OSCCTRL_DPLLCTRLA_ENABLE)) {
    356a:	2328      	movs	r3, #40	; 0x28
    356c:	4a07      	ldr	r2, [pc, #28]	; (358c <system_clock_source_get_hz+0x84>)
    356e:	5cd3      	ldrb	r3, [r2, r3]
			return 0;
    3570:	2000      	movs	r0, #0
		if (!(OSCCTRL->DPLLCTRLA.reg & OSCCTRL_DPLLCTRLA_ENABLE)) {
    3572:	079b      	lsls	r3, r3, #30
    3574:	d504      	bpl.n	3580 <system_clock_source_get_hz+0x78>
		return _system_clock_inst.dpll.frequency;
    3576:	4b04      	ldr	r3, [pc, #16]	; (3588 <system_clock_source_get_hz+0x80>)
    3578:	68d8      	ldr	r0, [r3, #12]
    357a:	e001      	b.n	3580 <system_clock_source_get_hz+0x78>
		return 32768UL;
    357c:	2080      	movs	r0, #128	; 0x80
    357e:	0200      	lsls	r0, r0, #8
	}
}
    3580:	bd10      	pop	{r4, pc}
    3582:	46c0      	nop			; (mov r8, r8)
    3584:	00006cac 	.word	0x00006cac
    3588:	20003ccc 	.word	0x20003ccc
    358c:	40000c00 	.word	0x40000c00
    3590:	003d0900 	.word	0x003d0900
    3594:	02dc6c00 	.word	0x02dc6c00
    3598:	000038bd 	.word	0x000038bd

0000359c <system_clock_source_osculp32k_set_config>:
 * \param[in] config  OSCULP32K configuration structure containing the new config
 */
void system_clock_source_osculp32k_set_config(
		struct system_clock_source_osculp32k_config *const config)
{
	OSC32KCTRL_OSCULP32K_Type temp = OSC32KCTRL->OSCULP32K;
    359c:	4905      	ldr	r1, [pc, #20]	; (35b4 <system_clock_source_osculp32k_set_config+0x18>)
    359e:	69cb      	ldr	r3, [r1, #28]
	/* Update settings via a temporary struct to reduce register access */
	temp.bit.WRTLOCK  = config->write_once;
	OSC32KCTRL->OSCULP32K  = temp;
    35a0:	7800      	ldrb	r0, [r0, #0]
    35a2:	2201      	movs	r2, #1
    35a4:	4002      	ands	r2, r0
    35a6:	03d2      	lsls	r2, r2, #15
    35a8:	4803      	ldr	r0, [pc, #12]	; (35b8 <system_clock_source_osculp32k_set_config+0x1c>)
    35aa:	4003      	ands	r3, r0
    35ac:	4313      	orrs	r3, r2
    35ae:	61cb      	str	r3, [r1, #28]
}
    35b0:	4770      	bx	lr
    35b2:	46c0      	nop			; (mov r8, r8)
    35b4:	40001000 	.word	0x40001000
    35b8:	ffff7fff 	.word	0xffff7fff

000035bc <system_clock_init>:
 * \note OSC16M is always enabled and if user selects other clocks for GCLK generators,
 * the OSC16M default enable can be disabled after system_clock_init. Make sure the
 * clock switches successfully before disabling OSC8M.
 */
void system_clock_init(void)
{
    35bc:	b510      	push	{r4, lr}
    35be:	b084      	sub	sp, #16
	/* Various bits in the INTFLAG register can be set to one at startup.
	   This will ensure that these bits are cleared */
	OSCCTRL->INTFLAG.reg = OSCCTRL_INTFLAG_DFLLRDY;
    35c0:	2280      	movs	r2, #128	; 0x80
    35c2:	0052      	lsls	r2, r2, #1
    35c4:	4b2f      	ldr	r3, [pc, #188]	; (3684 <system_clock_init+0xc8>)
    35c6:	609a      	str	r2, [r3, #8]
	SUPC->INTFLAG.reg = SUPC_INTFLAG_BOD33RDY | SUPC_INTFLAG_BOD33DET;
    35c8:	3afd      	subs	r2, #253	; 0xfd
    35ca:	4b2f      	ldr	r3, [pc, #188]	; (3688 <system_clock_init+0xcc>)
    35cc:	609a      	str	r2, [r3, #8]
static inline void system_flash_set_waitstates(uint8_t wait_states)
{
	Assert(NVMCTRL_CTRLB_RWS((uint32_t)wait_states) ==
			((uint32_t)wait_states << NVMCTRL_CTRLB_RWS_Pos));

	NVMCTRL->CTRLB.bit.RWS = wait_states;
    35ce:	4a2f      	ldr	r2, [pc, #188]	; (368c <system_clock_init+0xd0>)
    35d0:	6853      	ldr	r3, [r2, #4]
    35d2:	211e      	movs	r1, #30
    35d4:	438b      	bics	r3, r1
    35d6:	6053      	str	r3, [r2, #4]
 */
static inline enum status_code system_switch_performance_level(
					const enum system_performance_level performance_level)
{

	if (performance_level == (enum system_performance_level)PM->PLCFG.reg) {
    35d8:	2380      	movs	r3, #128	; 0x80
    35da:	05db      	lsls	r3, r3, #23
    35dc:	789b      	ldrb	r3, [r3, #2]
    35de:	2b02      	cmp	r3, #2
    35e0:	d00f      	beq.n	3602 <system_clock_init+0x46>
		return STATUS_OK;
	}

#if SAML22 || SAML21XXXB
	if (PM->PLCFG.reg & PM_PLCFG_PLDIS) {
    35e2:	2380      	movs	r3, #128	; 0x80
    35e4:	05db      	lsls	r3, r3, #23
    35e6:	789b      	ldrb	r3, [r3, #2]
    35e8:	b25b      	sxtb	r3, r3
    35ea:	2b00      	cmp	r3, #0
    35ec:	db09      	blt.n	3602 <system_clock_init+0x46>
		return STATUS_ERR_INVALID_ARG;
	}
#endif

	/* Clear performance level status */
	PM->INTFLAG.reg = PM_INTFLAG_PLRDY;
    35ee:	2380      	movs	r3, #128	; 0x80
    35f0:	05db      	lsls	r3, r3, #23
    35f2:	2201      	movs	r2, #1
    35f4:	719a      	strb	r2, [r3, #6]

	/* Switch performance level */
	PM->PLCFG.reg = performance_level;
    35f6:	3201      	adds	r2, #1
    35f8:	709a      	strb	r2, [r3, #2]

	/* Waiting performance level ready */
	while (!PM->INTFLAG.reg) {
    35fa:	001a      	movs	r2, r3
    35fc:	7993      	ldrb	r3, [r2, #6]
    35fe:	2b00      	cmp	r3, #0
    3600:	d0fc      	beq.n	35fc <system_clock_init+0x40>
	system_clock_source_enable(SYSTEM_CLOCK_SOURCE_OSC32K);
#endif

	/* OSC16M */
	if (CONF_CLOCK_OSC16M_FREQ_SEL == SYSTEM_OSC16M_4M){
		OSCCTRL->OSC16MCTRL.bit.ONDEMAND = CONF_CLOCK_OSC16M_ON_DEMAND ;
    3602:	4b20      	ldr	r3, [pc, #128]	; (3684 <system_clock_init+0xc8>)
    3604:	7d19      	ldrb	r1, [r3, #20]
    3606:	2280      	movs	r2, #128	; 0x80
    3608:	4252      	negs	r2, r2
    360a:	430a      	orrs	r2, r1
    360c:	751a      	strb	r2, [r3, #20]
		OSCCTRL->OSC16MCTRL.bit.RUNSTDBY = CONF_CLOCK_OSC16M_RUN_IN_STANDBY;
    360e:	7d1a      	ldrb	r2, [r3, #20]
    3610:	2140      	movs	r1, #64	; 0x40
    3612:	438a      	bics	r2, r1
    3614:	751a      	strb	r2, [r3, #20]
	system_clock_source_dfll_set_config(&dfll_conf);
#endif

	/* GCLK */
#if CONF_CLOCK_CONFIGURE_GCLK == true
	system_gclk_init();
    3616:	4b1e      	ldr	r3, [pc, #120]	; (3690 <system_clock_init+0xd4>)
    3618:	4798      	blx	r3
	MCLK->BUPDIV.reg = MCLK_BUPDIV_BUPDIV(1 << divider);
    361a:	4c1e      	ldr	r4, [pc, #120]	; (3694 <system_clock_init+0xd8>)
    361c:	2301      	movs	r3, #1
    361e:	71a3      	strb	r3, [r4, #6]
	MCLK->LPDIV.reg = MCLK_LPDIV_LPDIV(1 << divider);
    3620:	7163      	strb	r3, [r4, #5]
	MCLK->CPUDIV.reg = MCLK_CPUDIV_CPUDIV(1 << divider);
    3622:	7123      	strb	r3, [r4, #4]
{
	/* Sanity check arguments */
	Assert(config);

	/* Default configuration values */
	config->division_factor    = 1;
    3624:	a901      	add	r1, sp, #4
    3626:	604b      	str	r3, [r1, #4]
	config->high_when_disabled = false;
    3628:	2300      	movs	r3, #0
    362a:	704b      	strb	r3, [r1, #1]
#if SAML21 || SAML22  || SAMR30
	config->source_clock       = GCLK_SOURCE_OSC16M;
    362c:	2206      	movs	r2, #6
    362e:	700a      	strb	r2, [r1, #0]
#elif (SAMC20) || (SAMC21)
	config->source_clock       = GCLK_SOURCE_OSC48M;
#else
	config->source_clock       = GCLK_SOURCE_OSC8M;
#endif
	config->run_in_standby     = false;
    3630:	720b      	strb	r3, [r1, #8]
	config->output_enable      = false;
    3632:	724b      	strb	r3, [r1, #9]
	system_main_clock_set_failure_detect(CONF_CLOCK_CPU_CLOCK_FAILURE_DETECT);

	/* GCLK 0 */
#if CONF_CLOCK_CONFIGURE_GCLK == true
	/* Configure the main GCLK last as it might depend on other generators */
	_CONF_CLOCK_GCLK_CONFIG(0, ~);
    3634:	2000      	movs	r0, #0
    3636:	4b18      	ldr	r3, [pc, #96]	; (3698 <system_clock_init+0xdc>)
    3638:	4798      	blx	r3
    363a:	2000      	movs	r0, #0
    363c:	4b17      	ldr	r3, [pc, #92]	; (369c <system_clock_init+0xe0>)
    363e:	4798      	blx	r3
	return (system_gclk_gen_get_hz(GCLK_GENERATOR_0) / MCLK->CPUDIV.reg);
    3640:	2000      	movs	r0, #0
    3642:	4b17      	ldr	r3, [pc, #92]	; (36a0 <system_clock_init+0xe4>)
    3644:	4798      	blx	r3
    3646:	7921      	ldrb	r1, [r4, #4]
    3648:	b2c9      	uxtb	r1, r1
    364a:	4b16      	ldr	r3, [pc, #88]	; (36a4 <system_clock_init+0xe8>)
    364c:	4798      	blx	r3
#endif

	/* If CPU frequency is less than 12MHz, scale down performance level to PL0 */
	uint32_t cpu_freq = system_cpu_clock_get_hz();
	if (cpu_freq <= 12000000) {
    364e:	4b16      	ldr	r3, [pc, #88]	; (36a8 <system_clock_init+0xec>)
    3650:	4298      	cmp	r0, r3
    3652:	d814      	bhi.n	367e <system_clock_init+0xc2>
	if (performance_level == (enum system_performance_level)PM->PLCFG.reg) {
    3654:	2380      	movs	r3, #128	; 0x80
    3656:	05db      	lsls	r3, r3, #23
    3658:	789b      	ldrb	r3, [r3, #2]
    365a:	2b00      	cmp	r3, #0
    365c:	d00f      	beq.n	367e <system_clock_init+0xc2>
	if (PM->PLCFG.reg & PM_PLCFG_PLDIS) {
    365e:	2380      	movs	r3, #128	; 0x80
    3660:	05db      	lsls	r3, r3, #23
    3662:	789b      	ldrb	r3, [r3, #2]
    3664:	b25b      	sxtb	r3, r3
    3666:	2b00      	cmp	r3, #0
    3668:	db09      	blt.n	367e <system_clock_init+0xc2>
	PM->INTFLAG.reg = PM_INTFLAG_PLRDY;
    366a:	2380      	movs	r3, #128	; 0x80
    366c:	05db      	lsls	r3, r3, #23
    366e:	2201      	movs	r2, #1
    3670:	719a      	strb	r2, [r3, #6]
	PM->PLCFG.reg = performance_level;
    3672:	2200      	movs	r2, #0
    3674:	709a      	strb	r2, [r3, #2]
	while (!PM->INTFLAG.reg) {
    3676:	001a      	movs	r2, r3
    3678:	7993      	ldrb	r3, [r2, #6]
    367a:	2b00      	cmp	r3, #0
    367c:	d0fc      	beq.n	3678 <system_clock_init+0xbc>
		system_switch_performance_level(SYSTEM_PERFORMANCE_LEVEL_0);
	}
}
    367e:	b004      	add	sp, #16
    3680:	bd10      	pop	{r4, pc}
    3682:	46c0      	nop			; (mov r8, r8)
    3684:	40000c00 	.word	0x40000c00
    3688:	40001400 	.word	0x40001400
    368c:	41004000 	.word	0x41004000
    3690:	000036ad 	.word	0x000036ad
    3694:	40000400 	.word	0x40000400
    3698:	000036d1 	.word	0x000036d1
    369c:	0000377d 	.word	0x0000377d
    36a0:	000037bd 	.word	0x000037bd
    36a4:	000046d9 	.word	0x000046d9
    36a8:	00b71b00 	.word	0x00b71b00

000036ac <system_gclk_init>:
			MCLK->APBAMASK.reg |= mask;
    36ac:	4a06      	ldr	r2, [pc, #24]	; (36c8 <system_gclk_init+0x1c>)
    36ae:	6953      	ldr	r3, [r2, #20]
    36b0:	2140      	movs	r1, #64	; 0x40
    36b2:	430b      	orrs	r3, r1
    36b4:	6153      	str	r3, [r2, #20]
{
	/* Turn on the digital interface clock */
	system_apb_clock_set_mask(SYSTEM_CLOCK_APB_APBA, MCLK_APBAMASK_GCLK);

	/* Software reset the module to ensure it is re-initialized correctly */
	GCLK->CTRLA.reg = GCLK_CTRLA_SWRST;
    36b6:	2201      	movs	r2, #1
    36b8:	4b04      	ldr	r3, [pc, #16]	; (36cc <system_gclk_init+0x20>)
    36ba:	701a      	strb	r2, [r3, #0]
	while (GCLK->CTRLA.reg & GCLK_CTRLA_SWRST) {
    36bc:	0019      	movs	r1, r3
    36be:	780b      	ldrb	r3, [r1, #0]
    36c0:	4213      	tst	r3, r2
    36c2:	d1fc      	bne.n	36be <system_gclk_init+0x12>
		/* Wait for reset to complete */
	}
}
    36c4:	4770      	bx	lr
    36c6:	46c0      	nop			; (mov r8, r8)
    36c8:	40000400 	.word	0x40000400
    36cc:	40001800 	.word	0x40001800

000036d0 <system_gclk_gen_set_config>:
 * \param[in] config     Configuration settings for the generator
 */
void system_gclk_gen_set_config(
		const uint8_t generator,
		struct system_gclk_gen_config *const config)
{
    36d0:	b570      	push	{r4, r5, r6, lr}
    36d2:	0004      	movs	r4, r0
	/* Cache new register configurations to minimize sync requirements. */
	uint32_t new_genctrl_config ;


	/* Select the requested source clock for the generator */
	new_genctrl_config = config->source_clock << GCLK_GENCTRL_SRC_Pos;
    36d4:	780d      	ldrb	r5, [r1, #0]

	/* Configure the clock to be either high or low when disabled */
	if (config->high_when_disabled) {
    36d6:	784b      	ldrb	r3, [r1, #1]
    36d8:	2b00      	cmp	r3, #0
    36da:	d002      	beq.n	36e2 <system_gclk_gen_set_config+0x12>
		new_genctrl_config |= GCLK_GENCTRL_OOV;
    36dc:	2380      	movs	r3, #128	; 0x80
    36de:	00db      	lsls	r3, r3, #3
    36e0:	431d      	orrs	r5, r3
	}

	/* Configure if the clock output to I/O pin should be enabled. */
	if (config->output_enable) {
    36e2:	7a4b      	ldrb	r3, [r1, #9]
    36e4:	2b00      	cmp	r3, #0
    36e6:	d002      	beq.n	36ee <system_gclk_gen_set_config+0x1e>
		new_genctrl_config |= GCLK_GENCTRL_OE;
    36e8:	2380      	movs	r3, #128	; 0x80
    36ea:	011b      	lsls	r3, r3, #4
    36ec:	431d      	orrs	r5, r3
	}

	/* Set division factor */
	if (config->division_factor > 1) {
    36ee:	6848      	ldr	r0, [r1, #4]
    36f0:	2801      	cmp	r0, #1
    36f2:	d90f      	bls.n	3714 <system_gclk_gen_set_config+0x44>
		/* Check if division is a power of two */
		if (((config->division_factor & (config->division_factor - 1)) == 0)) {
    36f4:	1e43      	subs	r3, r0, #1
    36f6:	4218      	tst	r0, r3
    36f8:	d131      	bne.n	375e <system_gclk_gen_set_config+0x8e>
			 * register */

			uint32_t div2_count = 0;

			uint32_t mask;
			for (mask = (1UL << 1); mask < config->division_factor;
    36fa:	2802      	cmp	r0, #2
    36fc:	d92d      	bls.n	375a <system_gclk_gen_set_config+0x8a>
    36fe:	2302      	movs	r3, #2
    3700:	2200      	movs	r2, #0
						mask <<= 1) {
				div2_count++;
    3702:	3201      	adds	r2, #1
						mask <<= 1) {
    3704:	005b      	lsls	r3, r3, #1
			for (mask = (1UL << 1); mask < config->division_factor;
    3706:	4298      	cmp	r0, r3
    3708:	d8fb      	bhi.n	3702 <system_gclk_gen_set_config+0x32>
    370a:	2380      	movs	r3, #128	; 0x80
    370c:	015b      	lsls	r3, r3, #5
    370e:	431d      	orrs	r5, r3
			}

			/* Set binary divider power of 2 division factor */
			new_genctrl_config  |= div2_count << GCLK_GENCTRL_DIV_Pos;
    3710:	0412      	lsls	r2, r2, #16
			new_genctrl_config |= GCLK_GENCTRL_DIVSEL;
    3712:	4315      	orrs	r5, r2
		}

	}

	/* Enable or disable the clock in standby mode */
	if (config->run_in_standby) {
    3714:	7a0b      	ldrb	r3, [r1, #8]
    3716:	2b00      	cmp	r3, #0
    3718:	d002      	beq.n	3720 <system_gclk_gen_set_config+0x50>
		new_genctrl_config |= GCLK_GENCTRL_RUNSTDBY;
    371a:	2380      	movs	r3, #128	; 0x80
    371c:	019b      	lsls	r3, r3, #6
    371e:	431d      	orrs	r5, r3
	 if (GCLK->SYNCBUSY.reg & GCLK_SYNCBUSY_GENCTRL(1 << generator )){
    3720:	2604      	movs	r6, #4
    3722:	40a6      	lsls	r6, r4
    3724:	4911      	ldr	r1, [pc, #68]	; (376c <system_gclk_gen_set_config+0x9c>)
    3726:	4a12      	ldr	r2, [pc, #72]	; (3770 <system_gclk_gen_set_config+0xa0>)
    3728:	684b      	ldr	r3, [r1, #4]
    372a:	4013      	ands	r3, r2
	}

	while (system_gclk_is_syncing(generator)) {
    372c:	421e      	tst	r6, r3
    372e:	d1fb      	bne.n	3728 <system_gclk_gen_set_config+0x58>
 * are only re-enabled upon leaving the outermost nested critical section.
 *
 */
static inline void system_interrupt_enter_critical_section(void)
{
	cpu_irq_enter_critical();
    3730:	4b10      	ldr	r3, [pc, #64]	; (3774 <system_gclk_gen_set_config+0xa4>)
    3732:	4798      	blx	r3
    3734:	00a4      	lsls	r4, r4, #2
    3736:	4b0d      	ldr	r3, [pc, #52]	; (376c <system_gclk_gen_set_config+0x9c>)
    3738:	469c      	mov	ip, r3
    373a:	4464      	add	r4, ip
		/* Wait for synchronization */
	};

	system_interrupt_enter_critical_section();

	GCLK->GENCTRL[generator].reg = new_genctrl_config | (GCLK->GENCTRL[generator].reg & GCLK_GENCTRL_GENEN);
    373c:	6a22      	ldr	r2, [r4, #32]
    373e:	2380      	movs	r3, #128	; 0x80
    3740:	005b      	lsls	r3, r3, #1
    3742:	401a      	ands	r2, r3
    3744:	432a      	orrs	r2, r5
    3746:	6222      	str	r2, [r4, #32]
	 if (GCLK->SYNCBUSY.reg & GCLK_SYNCBUSY_GENCTRL(1 << generator )){
    3748:	4661      	mov	r1, ip
    374a:	4a09      	ldr	r2, [pc, #36]	; (3770 <system_gclk_gen_set_config+0xa0>)
    374c:	684b      	ldr	r3, [r1, #4]
    374e:	4013      	ands	r3, r2

	while (system_gclk_is_syncing(generator)) {
    3750:	421e      	tst	r6, r3
    3752:	d1fb      	bne.n	374c <system_gclk_gen_set_config+0x7c>
 * are only re-enabled upon leaving the outermost nested critical section.
 *
 */
static inline void system_interrupt_leave_critical_section(void)
{
	cpu_irq_leave_critical();
    3754:	4b08      	ldr	r3, [pc, #32]	; (3778 <system_gclk_gen_set_config+0xa8>)
    3756:	4798      	blx	r3
		/* Wait for synchronization */
	};

	system_interrupt_leave_critical_section();
}
    3758:	bd70      	pop	{r4, r5, r6, pc}
			for (mask = (1UL << 1); mask < config->division_factor;
    375a:	2200      	movs	r2, #0
    375c:	e7d5      	b.n	370a <system_gclk_gen_set_config+0x3a>
					(config->division_factor) << GCLK_GENCTRL_DIV_Pos;
    375e:	0400      	lsls	r0, r0, #16
			new_genctrl_config |= GCLK_GENCTRL_IDC;
    3760:	2380      	movs	r3, #128	; 0x80
    3762:	009b      	lsls	r3, r3, #2
    3764:	4318      	orrs	r0, r3
    3766:	4305      	orrs	r5, r0
    3768:	e7d4      	b.n	3714 <system_gclk_gen_set_config+0x44>
    376a:	46c0      	nop			; (mov r8, r8)
    376c:	40001800 	.word	0x40001800
    3770:	000007fc 	.word	0x000007fc
    3774:	00002db5 	.word	0x00002db5
    3778:	00002df5 	.word	0x00002df5

0000377c <system_gclk_gen_enable>:
 *
 * \param[in] generator  Generic Clock Generator index to enable
 */
void system_gclk_gen_enable(
		const uint8_t generator)
{
    377c:	b510      	push	{r4, lr}
    377e:	0004      	movs	r4, r0
	 if (GCLK->SYNCBUSY.reg & GCLK_SYNCBUSY_GENCTRL(1 << generator )){
    3780:	2204      	movs	r2, #4
    3782:	4082      	lsls	r2, r0
    3784:	4809      	ldr	r0, [pc, #36]	; (37ac <system_gclk_gen_enable+0x30>)
    3786:	490a      	ldr	r1, [pc, #40]	; (37b0 <system_gclk_gen_enable+0x34>)
    3788:	6843      	ldr	r3, [r0, #4]
    378a:	400b      	ands	r3, r1
	while (system_gclk_is_syncing(generator)) {
    378c:	421a      	tst	r2, r3
    378e:	d1fb      	bne.n	3788 <system_gclk_gen_enable+0xc>
	cpu_irq_enter_critical();
    3790:	4b08      	ldr	r3, [pc, #32]	; (37b4 <system_gclk_gen_enable+0x38>)
    3792:	4798      	blx	r3
    3794:	00a4      	lsls	r4, r4, #2
    3796:	4b05      	ldr	r3, [pc, #20]	; (37ac <system_gclk_gen_enable+0x30>)
    3798:	469c      	mov	ip, r3
    379a:	4464      	add	r4, ip
	};

	system_interrupt_enter_critical_section();

	/* Enable generator */
	GCLK->GENCTRL[generator].reg |= GCLK_GENCTRL_GENEN;
    379c:	6a22      	ldr	r2, [r4, #32]
    379e:	2380      	movs	r3, #128	; 0x80
    37a0:	005b      	lsls	r3, r3, #1
    37a2:	4313      	orrs	r3, r2
    37a4:	6223      	str	r3, [r4, #32]
	cpu_irq_leave_critical();
    37a6:	4b04      	ldr	r3, [pc, #16]	; (37b8 <system_gclk_gen_enable+0x3c>)
    37a8:	4798      	blx	r3

	system_interrupt_leave_critical_section();
}
    37aa:	bd10      	pop	{r4, pc}
    37ac:	40001800 	.word	0x40001800
    37b0:	000007fc 	.word	0x000007fc
    37b4:	00002db5 	.word	0x00002db5
    37b8:	00002df5 	.word	0x00002df5

000037bc <system_gclk_gen_get_hz>:
 *
 * \return The frequency of the generic clock generator, in Hz.
 */
uint32_t system_gclk_gen_get_hz(
		const uint8_t generator)
{
    37bc:	b5f8      	push	{r3, r4, r5, r6, r7, lr}
    37be:	0004      	movs	r4, r0
	 if (GCLK->SYNCBUSY.reg & GCLK_SYNCBUSY_GENCTRL(1 << generator )){
    37c0:	2204      	movs	r2, #4
    37c2:	4082      	lsls	r2, r0
    37c4:	4812      	ldr	r0, [pc, #72]	; (3810 <system_gclk_gen_get_hz+0x54>)
    37c6:	4913      	ldr	r1, [pc, #76]	; (3814 <system_gclk_gen_get_hz+0x58>)
    37c8:	6843      	ldr	r3, [r0, #4]
    37ca:	400b      	ands	r3, r1
	while (system_gclk_is_syncing(generator)) {
    37cc:	421a      	tst	r2, r3
    37ce:	d1fb      	bne.n	37c8 <system_gclk_gen_get_hz+0xc>
	cpu_irq_enter_critical();
    37d0:	4b11      	ldr	r3, [pc, #68]	; (3818 <system_gclk_gen_get_hz+0x5c>)
    37d2:	4798      	blx	r3

	system_interrupt_enter_critical_section();

	/* Get the frequency of the source connected to the GCLK generator */
	uint32_t gen_input_hz = system_clock_source_get_hz(
			(enum system_clock_source)GCLK->GENCTRL[generator].bit.SRC);
    37d4:	4f0e      	ldr	r7, [pc, #56]	; (3810 <system_gclk_gen_get_hz+0x54>)
    37d6:	3408      	adds	r4, #8
    37d8:	00a4      	lsls	r4, r4, #2
    37da:	59e0      	ldr	r0, [r4, r7]
    37dc:	0700      	lsls	r0, r0, #28
    37de:	0f00      	lsrs	r0, r0, #28
	uint32_t gen_input_hz = system_clock_source_get_hz(
    37e0:	4b0e      	ldr	r3, [pc, #56]	; (381c <system_gclk_gen_get_hz+0x60>)
    37e2:	4798      	blx	r3
    37e4:	0006      	movs	r6, r0

	uint8_t divsel = GCLK->GENCTRL[generator].bit.DIVSEL;
    37e6:	59e5      	ldr	r5, [r4, r7]
    37e8:	04ed      	lsls	r5, r5, #19
    37ea:	0fed      	lsrs	r5, r5, #31
	uint32_t divider = GCLK->GENCTRL[generator].bit.DIV;
    37ec:	59e4      	ldr	r4, [r4, r7]
    37ee:	0c24      	lsrs	r4, r4, #16
	cpu_irq_leave_critical();
    37f0:	4b0b      	ldr	r3, [pc, #44]	; (3820 <system_gclk_gen_get_hz+0x64>)
    37f2:	4798      	blx	r3

	system_interrupt_leave_critical_section();

	/* Check if the generator is using fractional or binary division */
	if (!divsel && divider > 1) {
    37f4:	2d00      	cmp	r5, #0
    37f6:	d107      	bne.n	3808 <system_gclk_gen_get_hz+0x4c>
    37f8:	2c01      	cmp	r4, #1
    37fa:	d907      	bls.n	380c <system_gclk_gen_get_hz+0x50>
		gen_input_hz /= divider;
    37fc:	0021      	movs	r1, r4
    37fe:	0030      	movs	r0, r6
    3800:	4b08      	ldr	r3, [pc, #32]	; (3824 <system_gclk_gen_get_hz+0x68>)
    3802:	4798      	blx	r3
    3804:	0006      	movs	r6, r0
    3806:	e001      	b.n	380c <system_gclk_gen_get_hz+0x50>
	} else if (divsel) {
		gen_input_hz >>= (divider+1);
    3808:	3401      	adds	r4, #1
    380a:	40e6      	lsrs	r6, r4
	}

	return gen_input_hz;
}
    380c:	0030      	movs	r0, r6
    380e:	bdf8      	pop	{r3, r4, r5, r6, r7, pc}
    3810:	40001800 	.word	0x40001800
    3814:	000007fc 	.word	0x000007fc
    3818:	00002db5 	.word	0x00002db5
    381c:	00003509 	.word	0x00003509
    3820:	00002df5 	.word	0x00002df5
    3824:	000046d9 	.word	0x000046d9

00003828 <system_gclk_chan_enable>:
 *
 * \param[in] channel   Generic Clock channel to enable
 */
void system_gclk_chan_enable(
		const uint8_t channel)
{
    3828:	b510      	push	{r4, lr}
    382a:	0004      	movs	r4, r0
	cpu_irq_enter_critical();
    382c:	4b09      	ldr	r3, [pc, #36]	; (3854 <system_gclk_chan_enable+0x2c>)
    382e:	4798      	blx	r3
    3830:	00a0      	lsls	r0, r4, #2
    3832:	4b09      	ldr	r3, [pc, #36]	; (3858 <system_gclk_chan_enable+0x30>)
    3834:	469c      	mov	ip, r3
    3836:	4460      	add	r0, ip
	system_interrupt_enter_critical_section();

	/* Enable the peripheral channel */
	GCLK->PCHCTRL[channel].reg |= GCLK_PCHCTRL_CHEN;
    3838:	2280      	movs	r2, #128	; 0x80
    383a:	5883      	ldr	r3, [r0, r2]
    383c:	2140      	movs	r1, #64	; 0x40
    383e:	430b      	orrs	r3, r1
    3840:	5083      	str	r3, [r0, r2]

	while (!(GCLK->PCHCTRL[channel].reg & GCLK_PCHCTRL_CHEN)) {
    3842:	3140      	adds	r1, #64	; 0x40
    3844:	3a40      	subs	r2, #64	; 0x40
    3846:	5843      	ldr	r3, [r0, r1]
    3848:	421a      	tst	r2, r3
    384a:	d0fc      	beq.n	3846 <system_gclk_chan_enable+0x1e>
	cpu_irq_leave_critical();
    384c:	4b03      	ldr	r3, [pc, #12]	; (385c <system_gclk_chan_enable+0x34>)
    384e:	4798      	blx	r3
		/* Wait for clock synchronization */
	}

	system_interrupt_leave_critical_section();
}
    3850:	bd10      	pop	{r4, pc}
    3852:	46c0      	nop			; (mov r8, r8)
    3854:	00002db5 	.word	0x00002db5
    3858:	40001800 	.word	0x40001800
    385c:	00002df5 	.word	0x00002df5

00003860 <system_gclk_chan_disable>:
 *
 * \param[in] channel  Generic Clock channel to disable
 */
void system_gclk_chan_disable(
		const uint8_t channel)
{
    3860:	b510      	push	{r4, lr}
    3862:	0004      	movs	r4, r0
	cpu_irq_enter_critical();
    3864:	4b09      	ldr	r3, [pc, #36]	; (388c <system_gclk_chan_disable+0x2c>)
    3866:	4798      	blx	r3
    3868:	00a0      	lsls	r0, r4, #2
    386a:	4b09      	ldr	r3, [pc, #36]	; (3890 <system_gclk_chan_disable+0x30>)
    386c:	469c      	mov	ip, r3
    386e:	4460      	add	r0, ip

	/* Sanity check WRTLOCK */
	Assert(!GCLK->PCHCTRL[channel].bit.WRTLOCK);

	/* Disable the peripheral channel */
	GCLK->PCHCTRL[channel].reg &= ~GCLK_PCHCTRL_CHEN;
    3870:	2280      	movs	r2, #128	; 0x80
    3872:	5883      	ldr	r3, [r0, r2]
    3874:	2140      	movs	r1, #64	; 0x40
    3876:	438b      	bics	r3, r1
    3878:	5083      	str	r3, [r0, r2]

	while (GCLK->PCHCTRL[channel].reg & GCLK_PCHCTRL_CHEN) {
    387a:	3140      	adds	r1, #64	; 0x40
    387c:	3a40      	subs	r2, #64	; 0x40
    387e:	5843      	ldr	r3, [r0, r1]
    3880:	421a      	tst	r2, r3
    3882:	d1fc      	bne.n	387e <system_gclk_chan_disable+0x1e>
	cpu_irq_leave_critical();
    3884:	4b03      	ldr	r3, [pc, #12]	; (3894 <system_gclk_chan_disable+0x34>)
    3886:	4798      	blx	r3
		/* Wait for clock synchronization */
	}

	system_interrupt_leave_critical_section();
}
    3888:	bd10      	pop	{r4, pc}
    388a:	46c0      	nop			; (mov r8, r8)
    388c:	00002db5 	.word	0x00002db5
    3890:	40001800 	.word	0x40001800
    3894:	00002df5 	.word	0x00002df5

00003898 <system_gclk_chan_set_config>:
{
    3898:	b570      	push	{r4, r5, r6, lr}
    389a:	0004      	movs	r4, r0
    389c:	000d      	movs	r5, r1
	system_gclk_chan_disable(channel);
    389e:	4b05      	ldr	r3, [pc, #20]	; (38b4 <system_gclk_chan_set_config+0x1c>)
    38a0:	4798      	blx	r3
	GCLK->PCHCTRL[channel].reg = GCLK_PCHCTRL_GEN(config->source_generator);
    38a2:	782a      	ldrb	r2, [r5, #0]
    38a4:	230f      	movs	r3, #15
    38a6:	4013      	ands	r3, r2
    38a8:	3420      	adds	r4, #32
    38aa:	00a4      	lsls	r4, r4, #2
    38ac:	4a02      	ldr	r2, [pc, #8]	; (38b8 <system_gclk_chan_set_config+0x20>)
    38ae:	50a3      	str	r3, [r4, r2]
}
    38b0:	bd70      	pop	{r4, r5, r6, pc}
    38b2:	46c0      	nop			; (mov r8, r8)
    38b4:	00003861 	.word	0x00003861
    38b8:	40001800 	.word	0x40001800

000038bc <system_gclk_chan_get_hz>:
 *
 * \return The frequency of the generic clock channel, in Hz.
 */
uint32_t system_gclk_chan_get_hz(
		const uint8_t channel)
{
    38bc:	b510      	push	{r4, lr}
    38be:	0004      	movs	r4, r0
	cpu_irq_enter_critical();
    38c0:	4b06      	ldr	r3, [pc, #24]	; (38dc <system_gclk_chan_get_hz+0x20>)
    38c2:	4798      	blx	r3
	uint8_t gen_id;

	system_interrupt_enter_critical_section();
	/* Select the requested generic clock channel */
	gen_id = GCLK->PCHCTRL[channel].bit.GEN;
    38c4:	3420      	adds	r4, #32
    38c6:	00a4      	lsls	r4, r4, #2
    38c8:	4b05      	ldr	r3, [pc, #20]	; (38e0 <system_gclk_chan_get_hz+0x24>)
    38ca:	58e4      	ldr	r4, [r4, r3]
    38cc:	0724      	lsls	r4, r4, #28
    38ce:	0f24      	lsrs	r4, r4, #28
	cpu_irq_leave_critical();
    38d0:	4b04      	ldr	r3, [pc, #16]	; (38e4 <system_gclk_chan_get_hz+0x28>)
    38d2:	4798      	blx	r3
	system_interrupt_leave_critical_section();

	/* Return the clock speed of the associated GCLK generator */
	return system_gclk_gen_get_hz(gen_id);
    38d4:	0020      	movs	r0, r4
    38d6:	4b04      	ldr	r3, [pc, #16]	; (38e8 <system_gclk_chan_get_hz+0x2c>)
    38d8:	4798      	blx	r3
}
    38da:	bd10      	pop	{r4, pc}
    38dc:	00002db5 	.word	0x00002db5
    38e0:	40001800 	.word	0x40001800
    38e4:	00002df5 	.word	0x00002df5
    38e8:	000037bd 	.word	0x000037bd

000038ec <_system_pinmux_config>:
 */
static void _system_pinmux_config(
		PortGroup *const port,
		const uint32_t pin_mask,
		const struct system_pinmux_config *const config)
{
    38ec:	b530      	push	{r4, r5, lr}

	/* Track the configuration bits into a temporary variable before writing */
	uint32_t pin_cfg = 0;

	/* Enabled powersave mode, don't create configuration */
	if (!config->powersave) {
    38ee:	78d3      	ldrb	r3, [r2, #3]
    38f0:	2b00      	cmp	r3, #0
    38f2:	d135      	bne.n	3960 <_system_pinmux_config+0x74>
		/* Enable the pin peripheral MUX flag if non-GPIO selected (pinmux will
		 * be written later) and store the new MUX mask */
		if (config->mux_position != SYSTEM_PINMUX_GPIO) {
    38f4:	7813      	ldrb	r3, [r2, #0]
    38f6:	2b80      	cmp	r3, #128	; 0x80
    38f8:	d029      	beq.n	394e <_system_pinmux_config+0x62>
			pin_cfg |= PORT_WRCONFIG_PMUXEN;
			pin_cfg |= (config->mux_position << PORT_WRCONFIG_PMUX_Pos);
    38fa:	061b      	lsls	r3, r3, #24
    38fc:	2480      	movs	r4, #128	; 0x80
    38fe:	0264      	lsls	r4, r4, #9
    3900:	4323      	orrs	r3, r4
		}

		/* Check if the user has requested that the input buffer be enabled */
		if ((config->direction == SYSTEM_PINMUX_PIN_DIR_INPUT) ||
    3902:	7854      	ldrb	r4, [r2, #1]
    3904:	2502      	movs	r5, #2
    3906:	43ac      	bics	r4, r5
    3908:	d106      	bne.n	3918 <_system_pinmux_config+0x2c>
				(config->direction == SYSTEM_PINMUX_PIN_DIR_OUTPUT_WITH_READBACK)) {
			/* Enable input buffer flag */
			pin_cfg |= PORT_WRCONFIG_INEN;

			/* Enable pull-up/pull-down control flag if requested */
			if (config->input_pull != SYSTEM_PINMUX_PIN_PULL_NONE) {
    390a:	7894      	ldrb	r4, [r2, #2]
    390c:	2c00      	cmp	r4, #0
    390e:	d120      	bne.n	3952 <_system_pinmux_config+0x66>
			pin_cfg |= PORT_WRCONFIG_INEN;
    3910:	2480      	movs	r4, #128	; 0x80
    3912:	02a4      	lsls	r4, r4, #10
    3914:	4323      	orrs	r3, r4
				pin_cfg |= PORT_WRCONFIG_PULLEN;
			}

			/* Clear the port DIR bits to disable the output buffer */
			port->DIRCLR.reg = pin_mask;
    3916:	6041      	str	r1, [r0, #4]
		}

		/* Check if the user has requested that the output buffer be enabled */
		if ((config->direction == SYSTEM_PINMUX_PIN_DIR_OUTPUT) ||
    3918:	7854      	ldrb	r4, [r2, #1]
    391a:	3c01      	subs	r4, #1
    391c:	2c01      	cmp	r4, #1
    391e:	d91c      	bls.n	395a <_system_pinmux_config+0x6e>
		port->DIRCLR.reg = pin_mask;
	}

	/* The Write Configuration register (WRCONFIG) requires the
	 * pins to to grouped into two 16-bit half-words - split them out here */
	uint32_t lower_pin_mask = (pin_mask & 0xFFFF);
    3920:	040d      	lsls	r5, r1, #16
    3922:	0c2d      	lsrs	r5, r5, #16

	/* Configure the lower 16-bits of the port to the desired configuration,
	 * including the pin peripheral multiplexer just in case it is enabled */
	port->WRCONFIG.reg
		= (lower_pin_mask << PORT_WRCONFIG_PINMASK_Pos) |
			pin_cfg | PORT_WRCONFIG_WRPMUX | PORT_WRCONFIG_WRPINCFG;
    3924:	24a0      	movs	r4, #160	; 0xa0
    3926:	05e4      	lsls	r4, r4, #23
    3928:	432c      	orrs	r4, r5
    392a:	431c      	orrs	r4, r3
		= (lower_pin_mask << PORT_WRCONFIG_PINMASK_Pos) |
    392c:	6284      	str	r4, [r0, #40]	; 0x28
	uint32_t upper_pin_mask = (pin_mask >> 16);
    392e:	0c0d      	lsrs	r5, r1, #16

	/* Configure the upper 16-bits of the port to the desired configuration,
	 * including the pin peripheral multiplexer just in case it is enabled */
	port->WRCONFIG.reg
		= (upper_pin_mask << PORT_WRCONFIG_PINMASK_Pos) |
			pin_cfg | PORT_WRCONFIG_WRPMUX | PORT_WRCONFIG_WRPINCFG |
    3930:	24d0      	movs	r4, #208	; 0xd0
    3932:	0624      	lsls	r4, r4, #24
    3934:	432c      	orrs	r4, r5
    3936:	431c      	orrs	r4, r3
		= (upper_pin_mask << PORT_WRCONFIG_PINMASK_Pos) |
    3938:	6284      	str	r4, [r0, #40]	; 0x28
			PORT_WRCONFIG_HWSEL;

	if(!config->powersave) {
    393a:	78d4      	ldrb	r4, [r2, #3]
    393c:	2c00      	cmp	r4, #0
    393e:	d122      	bne.n	3986 <_system_pinmux_config+0x9a>
		/* Set the pull-up state once the port pins are configured if one was
		 * requested and it does not violate the valid set of port
		 * configurations */
		if (pin_cfg & PORT_WRCONFIG_PULLEN) {
    3940:	035b      	lsls	r3, r3, #13
    3942:	d51c      	bpl.n	397e <_system_pinmux_config+0x92>
			/* Set the OUT register bits to enable the pull-up if requested,
			 * clear to enable pull-down */
			if (config->input_pull == SYSTEM_PINMUX_PIN_PULL_UP) {
    3944:	7893      	ldrb	r3, [r2, #2]
    3946:	2b01      	cmp	r3, #1
    3948:	d01e      	beq.n	3988 <_system_pinmux_config+0x9c>
				port->OUTSET.reg = pin_mask;
			} else {
				port->OUTCLR.reg = pin_mask;
    394a:	6141      	str	r1, [r0, #20]
    394c:	e017      	b.n	397e <_system_pinmux_config+0x92>
	uint32_t pin_cfg = 0;
    394e:	2300      	movs	r3, #0
    3950:	e7d7      	b.n	3902 <_system_pinmux_config+0x16>
				pin_cfg |= PORT_WRCONFIG_PULLEN;
    3952:	24c0      	movs	r4, #192	; 0xc0
    3954:	02e4      	lsls	r4, r4, #11
    3956:	4323      	orrs	r3, r4
    3958:	e7dd      	b.n	3916 <_system_pinmux_config+0x2a>
			pin_cfg &= ~PORT_WRCONFIG_PULLEN;
    395a:	4c0d      	ldr	r4, [pc, #52]	; (3990 <_system_pinmux_config+0xa4>)
    395c:	4023      	ands	r3, r4
    395e:	e7df      	b.n	3920 <_system_pinmux_config+0x34>
		port->DIRCLR.reg = pin_mask;
    3960:	6041      	str	r1, [r0, #4]
	uint32_t lower_pin_mask = (pin_mask & 0xFFFF);
    3962:	040c      	lsls	r4, r1, #16
    3964:	0c24      	lsrs	r4, r4, #16
			pin_cfg | PORT_WRCONFIG_WRPMUX | PORT_WRCONFIG_WRPINCFG;
    3966:	23a0      	movs	r3, #160	; 0xa0
    3968:	05db      	lsls	r3, r3, #23
    396a:	4323      	orrs	r3, r4
		= (lower_pin_mask << PORT_WRCONFIG_PINMASK_Pos) |
    396c:	6283      	str	r3, [r0, #40]	; 0x28
	uint32_t upper_pin_mask = (pin_mask >> 16);
    396e:	0c0c      	lsrs	r4, r1, #16
			pin_cfg | PORT_WRCONFIG_WRPMUX | PORT_WRCONFIG_WRPINCFG |
    3970:	23d0      	movs	r3, #208	; 0xd0
    3972:	061b      	lsls	r3, r3, #24
    3974:	4323      	orrs	r3, r4
		= (upper_pin_mask << PORT_WRCONFIG_PINMASK_Pos) |
    3976:	6283      	str	r3, [r0, #40]	; 0x28
	if(!config->powersave) {
    3978:	78d3      	ldrb	r3, [r2, #3]
    397a:	2b00      	cmp	r3, #0
    397c:	d103      	bne.n	3986 <_system_pinmux_config+0x9a>
			}
		}

		/* Check if the user has requested that the output buffer be enabled */
		if ((config->direction == SYSTEM_PINMUX_PIN_DIR_OUTPUT) ||
    397e:	7853      	ldrb	r3, [r2, #1]
    3980:	3b01      	subs	r3, #1
    3982:	2b01      	cmp	r3, #1
    3984:	d902      	bls.n	398c <_system_pinmux_config+0xa0>
				(config->direction == SYSTEM_PINMUX_PIN_DIR_OUTPUT_WITH_READBACK)) {
			/* Set the port DIR bits to enable the output buffer */
			port->DIRSET.reg = pin_mask;
		}
	}
}
    3986:	bd30      	pop	{r4, r5, pc}
				port->OUTSET.reg = pin_mask;
    3988:	6181      	str	r1, [r0, #24]
    398a:	e7f8      	b.n	397e <_system_pinmux_config+0x92>
			port->DIRSET.reg = pin_mask;
    398c:	6081      	str	r1, [r0, #8]
}
    398e:	e7fa      	b.n	3986 <_system_pinmux_config+0x9a>
    3990:	fffbffff 	.word	0xfffbffff

00003994 <system_pinmux_pin_set_config>:
 * \param[in] config    Configuration settings for the pin
 */
void system_pinmux_pin_set_config(
		const uint8_t gpio_pin,
		const struct system_pinmux_config *const config)
{
    3994:	b510      	push	{r4, lr}
    3996:	000a      	movs	r2, r1
	uint8_t group_index = (gpio_pin / 32);

	/* Array of available ports */
	Port *const ports[PORT_INST_NUM] = PORT_INSTS;

	if (port_index < PORT_INST_NUM) {
    3998:	09c1      	lsrs	r1, r0, #7
		return &(ports[port_index]->Group[group_index]);
	} else {
		Assert(false);
		return NULL;
    399a:	2300      	movs	r3, #0
	if (port_index < PORT_INST_NUM) {
    399c:	2900      	cmp	r1, #0
    399e:	d104      	bne.n	39aa <system_pinmux_pin_set_config+0x16>
		return &(ports[port_index]->Group[group_index]);
    39a0:	0943      	lsrs	r3, r0, #5
    39a2:	01db      	lsls	r3, r3, #7
    39a4:	4905      	ldr	r1, [pc, #20]	; (39bc <system_pinmux_pin_set_config+0x28>)
    39a6:	468c      	mov	ip, r1
    39a8:	4463      	add	r3, ip
	PortGroup *const port = system_pinmux_get_group_from_gpio_pin(gpio_pin);
	uint32_t pin_mask = (1UL << (gpio_pin % 32));
    39aa:	241f      	movs	r4, #31
    39ac:	4020      	ands	r0, r4
    39ae:	2101      	movs	r1, #1
    39b0:	4081      	lsls	r1, r0

	_system_pinmux_config(port, pin_mask, config);
    39b2:	0018      	movs	r0, r3
    39b4:	4b02      	ldr	r3, [pc, #8]	; (39c0 <system_pinmux_pin_set_config+0x2c>)
    39b6:	4798      	blx	r3
}
    39b8:	bd10      	pop	{r4, pc}
    39ba:	46c0      	nop			; (mov r8, r8)
    39bc:	40002800 	.word	0x40002800
    39c0:	000038ed 	.word	0x000038ed

000039c4 <_system_dummy_init>:
 */
void _system_dummy_init(void);
void _system_dummy_init(void)
{
	return;
}
    39c4:	4770      	bx	lr
	...

000039c8 <system_init>:
 *  - Board hardware initialization (via the Board module)
 *  - Event system driver initialization (via the EVSYS module)
 *  - External Interrupt driver initialization (via the EXTINT module)
 */
void system_init(void)
{
    39c8:	b510      	push	{r4, lr}
	/* Configure GCLK and clock sources according to conf_clocks.h */
	system_clock_init();
    39ca:	4b05      	ldr	r3, [pc, #20]	; (39e0 <system_init+0x18>)
    39cc:	4798      	blx	r3

	/* Initialize board hardware */
	system_board_init();
    39ce:	4b05      	ldr	r3, [pc, #20]	; (39e4 <system_init+0x1c>)
    39d0:	4798      	blx	r3

	/* Initialize EVSYS hardware */
	_system_events_init();
    39d2:	4b05      	ldr	r3, [pc, #20]	; (39e8 <system_init+0x20>)
    39d4:	4798      	blx	r3

	/* Initialize External hardware */
	_system_extint_init();
    39d6:	4b05      	ldr	r3, [pc, #20]	; (39ec <system_init+0x24>)
    39d8:	4798      	blx	r3
	
	/* Initialize DIVAS hardware */
	_system_divas_init();
    39da:	4b05      	ldr	r3, [pc, #20]	; (39f0 <system_init+0x28>)
    39dc:	4798      	blx	r3
}
    39de:	bd10      	pop	{r4, pc}
    39e0:	000035bd 	.word	0x000035bd
    39e4:	00002e25 	.word	0x00002e25
    39e8:	000039c5 	.word	0x000039c5
    39ec:	000039c5 	.word	0x000039c5
    39f0:	000039c5 	.word	0x000039c5

000039f4 <Dummy_Handler>:

/**
 * \brief Default interrupt handler for unused IRQs.
 */
void Dummy_Handler(void)
{
    39f4:	e7fe      	b.n	39f4 <Dummy_Handler>
	...

000039f8 <Reset_Handler>:
{
    39f8:	b510      	push	{r4, lr}
        if (pSrc != pDest) {
    39fa:	4a1a      	ldr	r2, [pc, #104]	; (3a64 <Reset_Handler+0x6c>)
    39fc:	4b1a      	ldr	r3, [pc, #104]	; (3a68 <Reset_Handler+0x70>)
    39fe:	429a      	cmp	r2, r3
    3a00:	d011      	beq.n	3a26 <Reset_Handler+0x2e>
                for (; pDest < &_erelocate;) {
    3a02:	001a      	movs	r2, r3
    3a04:	4b19      	ldr	r3, [pc, #100]	; (3a6c <Reset_Handler+0x74>)
    3a06:	429a      	cmp	r2, r3
    3a08:	d20d      	bcs.n	3a26 <Reset_Handler+0x2e>
    3a0a:	4a19      	ldr	r2, [pc, #100]	; (3a70 <Reset_Handler+0x78>)
    3a0c:	3303      	adds	r3, #3
    3a0e:	1a9b      	subs	r3, r3, r2
    3a10:	089b      	lsrs	r3, r3, #2
    3a12:	3301      	adds	r3, #1
    3a14:	009b      	lsls	r3, r3, #2
    3a16:	2200      	movs	r2, #0
                        *pDest++ = *pSrc++;
    3a18:	4813      	ldr	r0, [pc, #76]	; (3a68 <Reset_Handler+0x70>)
    3a1a:	4912      	ldr	r1, [pc, #72]	; (3a64 <Reset_Handler+0x6c>)
    3a1c:	588c      	ldr	r4, [r1, r2]
    3a1e:	5084      	str	r4, [r0, r2]
    3a20:	3204      	adds	r2, #4
                for (; pDest < &_erelocate;) {
    3a22:	429a      	cmp	r2, r3
    3a24:	d1fa      	bne.n	3a1c <Reset_Handler+0x24>
        for (pDest = &_szero; pDest < &_ezero;) {
    3a26:	4a13      	ldr	r2, [pc, #76]	; (3a74 <Reset_Handler+0x7c>)
    3a28:	4b13      	ldr	r3, [pc, #76]	; (3a78 <Reset_Handler+0x80>)
    3a2a:	429a      	cmp	r2, r3
    3a2c:	d20a      	bcs.n	3a44 <Reset_Handler+0x4c>
    3a2e:	43d3      	mvns	r3, r2
    3a30:	4911      	ldr	r1, [pc, #68]	; (3a78 <Reset_Handler+0x80>)
    3a32:	185b      	adds	r3, r3, r1
    3a34:	2103      	movs	r1, #3
    3a36:	438b      	bics	r3, r1
    3a38:	3304      	adds	r3, #4
    3a3a:	189b      	adds	r3, r3, r2
                *pDest++ = 0;
    3a3c:	2100      	movs	r1, #0
    3a3e:	c202      	stmia	r2!, {r1}
        for (pDest = &_szero; pDest < &_ezero;) {
    3a40:	4293      	cmp	r3, r2
    3a42:	d1fc      	bne.n	3a3e <Reset_Handler+0x46>
        SCB->VTOR = ((uint32_t) pSrc & SCB_VTOR_TBLOFF_Msk);
    3a44:	4a0d      	ldr	r2, [pc, #52]	; (3a7c <Reset_Handler+0x84>)
    3a46:	21ff      	movs	r1, #255	; 0xff
    3a48:	4b0d      	ldr	r3, [pc, #52]	; (3a80 <Reset_Handler+0x88>)
    3a4a:	438b      	bics	r3, r1
    3a4c:	6093      	str	r3, [r2, #8]
        NVMCTRL->CTRLB.bit.MANW = 1;
    3a4e:	4a0d      	ldr	r2, [pc, #52]	; (3a84 <Reset_Handler+0x8c>)
    3a50:	6853      	ldr	r3, [r2, #4]
    3a52:	397f      	subs	r1, #127	; 0x7f
    3a54:	430b      	orrs	r3, r1
    3a56:	6053      	str	r3, [r2, #4]
        __libc_init_array();
    3a58:	4b0b      	ldr	r3, [pc, #44]	; (3a88 <Reset_Handler+0x90>)
    3a5a:	4798      	blx	r3
        main();
    3a5c:	4b0b      	ldr	r3, [pc, #44]	; (3a8c <Reset_Handler+0x94>)
    3a5e:	4798      	blx	r3
    3a60:	e7fe      	b.n	3a60 <Reset_Handler+0x68>
    3a62:	46c0      	nop			; (mov r8, r8)
    3a64:	00006e08 	.word	0x00006e08
    3a68:	20000000 	.word	0x20000000
    3a6c:	200000b4 	.word	0x200000b4
    3a70:	20000004 	.word	0x20000004
    3a74:	200000b4 	.word	0x200000b4
    3a78:	2000406c 	.word	0x2000406c
    3a7c:	e000ed00 	.word	0xe000ed00
    3a80:	00000000 	.word	0x00000000
    3a84:	41004000 	.word	0x41004000
    3a88:	000062e1 	.word	0x000062e1
    3a8c:	00003f45 	.word	0x00003f45

00003a90 <_sbrk>:
extern void _exit(int status);
extern void _kill(int pid, int sig);
extern int _getpid(void);

extern caddr_t _sbrk(int incr)
{
    3a90:	0003      	movs	r3, r0
	static unsigned char *heap = NULL;
	unsigned char *prev_heap;

	if (heap == NULL) {
    3a92:	4a06      	ldr	r2, [pc, #24]	; (3aac <_sbrk+0x1c>)
    3a94:	6812      	ldr	r2, [r2, #0]
    3a96:	2a00      	cmp	r2, #0
    3a98:	d004      	beq.n	3aa4 <_sbrk+0x14>
		heap = (unsigned char *)&_end;
	}
	prev_heap = heap;
    3a9a:	4a04      	ldr	r2, [pc, #16]	; (3aac <_sbrk+0x1c>)
    3a9c:	6810      	ldr	r0, [r2, #0]

	heap += incr;
    3a9e:	18c3      	adds	r3, r0, r3
    3aa0:	6013      	str	r3, [r2, #0]

	return (caddr_t) prev_heap;
}
    3aa2:	4770      	bx	lr
		heap = (unsigned char *)&_end;
    3aa4:	4902      	ldr	r1, [pc, #8]	; (3ab0 <_sbrk+0x20>)
    3aa6:	4a01      	ldr	r2, [pc, #4]	; (3aac <_sbrk+0x1c>)
    3aa8:	6011      	str	r1, [r2, #0]
    3aaa:	e7f6      	b.n	3a9a <_sbrk+0xa>
    3aac:	20003ce4 	.word	0x20003ce4
    3ab0:	20006070 	.word	0x20006070

00003ab4 <_close>:
}

extern int _close(int file)
{
	return -1;
}
    3ab4:	2001      	movs	r0, #1
    3ab6:	4240      	negs	r0, r0
    3ab8:	4770      	bx	lr

00003aba <_fstat>:

extern int _fstat(int file, struct stat *st)
{
	st->st_mode = S_IFCHR;
    3aba:	2380      	movs	r3, #128	; 0x80
    3abc:	019b      	lsls	r3, r3, #6
    3abe:	604b      	str	r3, [r1, #4]

	return 0;
}
    3ac0:	2000      	movs	r0, #0
    3ac2:	4770      	bx	lr

00003ac4 <_lseek>:
}

extern int _lseek(int file, int ptr, int dir)
{
	return 0;
}
    3ac4:	2000      	movs	r0, #0
    3ac6:	4770      	bx	lr

00003ac8 <at24cxx_write_continuous>:

	return;
}


void at24cxx_write_continuous(uint16_t start_address, uint16_t length, uint8_t const *wr_buffer) {
    3ac8:	b5f0      	push	{r4, r5, r6, r7, lr}
    3aca:	b085      	sub	sp, #20
    3acc:	af00      	add	r7, sp, #0
	
	uint8_t pack[2+length];
    3ace:	1c8e      	adds	r6, r1, #2
    3ad0:	000b      	movs	r3, r1
    3ad2:	3309      	adds	r3, #9
    3ad4:	08db      	lsrs	r3, r3, #3
    3ad6:	00db      	lsls	r3, r3, #3
    3ad8:	466c      	mov	r4, sp
    3ada:	1ae3      	subs	r3, r4, r3
    3adc:	469d      	mov	sp, r3
    3ade:	466d      	mov	r5, sp
	pack[0] = (start_address&0xFF00)>>8;
    3ae0:	0a03      	lsrs	r3, r0, #8
    3ae2:	702b      	strb	r3, [r5, #0]
	pack[1] = start_address&0xFF;
    3ae4:	7068      	strb	r0, [r5, #1]
	uint16_t idx;
	for (idx=0;idx<length;idx++)
    3ae6:	2900      	cmp	r1, #0
    3ae8:	d007      	beq.n	3afa <at24cxx_write_continuous+0x32>
    3aea:	2300      	movs	r3, #0
	pack[2+idx] = wr_buffer[idx];
    3aec:	18e8      	adds	r0, r5, r3
    3aee:	5cd4      	ldrb	r4, [r2, r3]
    3af0:	7084      	strb	r4, [r0, #2]
    3af2:	3301      	adds	r3, #1
	for (idx=0;idx<length;idx++)
    3af4:	b298      	uxth	r0, r3
    3af6:	4281      	cmp	r1, r0
    3af8:	d8f8      	bhi.n	3aec <at24cxx_write_continuous+0x24>
	
	struct i2c_master_packet packet = {
    3afa:	2350      	movs	r3, #80	; 0x50
    3afc:	80bb      	strh	r3, [r7, #4]
    3afe:	80fe      	strh	r6, [r7, #6]
    3b00:	60bd      	str	r5, [r7, #8]
    3b02:	2300      	movs	r3, #0
    3b04:	733b      	strb	r3, [r7, #12]
    3b06:	737b      	strb	r3, [r7, #13]
    3b08:	73bb      	strb	r3, [r7, #14]
		.ten_bit_address = false,
		.high_speed      = false,
		.hs_master_code  = 0x0,
	};

	while (i2c_master_write_packet_wait(&i2c_master_instance, &packet) != STATUS_OK);
    3b0a:	4d05      	ldr	r5, [pc, #20]	; (3b20 <at24cxx_write_continuous+0x58>)
    3b0c:	4c05      	ldr	r4, [pc, #20]	; (3b24 <at24cxx_write_continuous+0x5c>)
    3b0e:	1d39      	adds	r1, r7, #4
    3b10:	0028      	movs	r0, r5
    3b12:	47a0      	blx	r4
    3b14:	2800      	cmp	r0, #0
    3b16:	d1fa      	bne.n	3b0e <at24cxx_write_continuous+0x46>

	return;
}
    3b18:	46bd      	mov	sp, r7
    3b1a:	b005      	add	sp, #20
    3b1c:	bdf0      	pop	{r4, r5, r6, r7, pc}
    3b1e:	46c0      	nop			; (mov r8, r8)
    3b20:	20003f80 	.word	0x20003f80
    3b24:	000008a5 	.word	0x000008a5

00003b28 <rx_handler>:
}



static void rx_handler(uint8_t instance)
{
    3b28:	b510      	push	{r4, lr}
	// Wait for synch to complete
	#if defined(FEATURE_SERCOM_SYNCBUSY_SCHEME_VERSION_1)
	while (usart_hw->STATUS.reg & SERCOM_USART_STATUS_SYNCBUSY) {
	}
	#elif defined(FEATURE_SERCOM_SYNCBUSY_SCHEME_VERSION_2)
	while (usart_hw->SYNCBUSY.reg) {
    3b2a:	4a15      	ldr	r2, [pc, #84]	; (3b80 <rx_handler+0x58>)
    3b2c:	69d3      	ldr	r3, [r2, #28]
    3b2e:	2b00      	cmp	r3, #0
    3b30:	d1fc      	bne.n	3b2c <rx_handler+0x4>
	}
	#endif

	// Read and mask interrupt flag register
	interrupt_status = usart_hw->INTFLAG.reg;
    3b32:	4b13      	ldr	r3, [pc, #76]	; (3b80 <rx_handler+0x58>)
    3b34:	7e1b      	ldrb	r3, [r3, #24]
    3b36:	b2db      	uxtb	r3, r3
    3b38:	4a12      	ldr	r2, [pc, #72]	; (3b84 <rx_handler+0x5c>)
    3b3a:	8013      	strh	r3, [r2, #0]

	if (interrupt_status & SERCOM_USART_INTFLAG_RXC) {
    3b3c:	075b      	lsls	r3, r3, #29
    3b3e:	d50d      	bpl.n	3b5c <rx_handler+0x34>
		// Check for errors
		error_code = (uint8_t)(usart_hw->STATUS.reg & SERCOM_USART_STATUS_MASK);
    3b40:	4b0f      	ldr	r3, [pc, #60]	; (3b80 <rx_handler+0x58>)
    3b42:	8b5a      	ldrh	r2, [r3, #26]
    3b44:	b2d2      	uxtb	r2, r2
    3b46:	233f      	movs	r3, #63	; 0x3f
    3b48:	4013      	ands	r3, r2
    3b4a:	490f      	ldr	r1, [pc, #60]	; (3b88 <rx_handler+0x60>)
    3b4c:	700b      	strb	r3, [r1, #0]
		if (error_code) {
    3b4e:	d006      	beq.n	3b5e <rx_handler+0x36>
			// Only frame error and buffer overflow should be possible
			if (error_code &
    3b50:	2306      	movs	r3, #6
    3b52:	4213      	tst	r3, r2
    3b54:	d002      	beq.n	3b5c <rx_handler+0x34>
			(SERCOM_USART_STATUS_FERR | SERCOM_USART_STATUS_BUFOVF)){
				
				usart_hw->STATUS.reg =
    3b56:	2206      	movs	r2, #6
    3b58:	4b09      	ldr	r3, [pc, #36]	; (3b80 <rx_handler+0x58>)
    3b5a:	835a      	strh	r2, [r3, #26]
			}
		}
		} else {
		// Error: only RX interrupt should be enabled
	}
}
    3b5c:	bd10      	pop	{r4, pc}
			data = (usart_hw->DATA.reg & SERCOM_USART_DATA_MASK);
    3b5e:	4b08      	ldr	r3, [pc, #32]	; (3b80 <rx_handler+0x58>)
    3b60:	8d1b      	ldrh	r3, [r3, #40]	; 0x28
    3b62:	490a      	ldr	r1, [pc, #40]	; (3b8c <rx_handler+0x64>)
    3b64:	05db      	lsls	r3, r3, #23
    3b66:	0ddb      	lsrs	r3, r3, #23
    3b68:	800b      	strh	r3, [r1, #0]
			count++;
    3b6a:	4a09      	ldr	r2, [pc, #36]	; (3b90 <rx_handler+0x68>)
    3b6c:	6813      	ldr	r3, [r2, #0]
    3b6e:	3301      	adds	r3, #1
    3b70:	6013      	str	r3, [r2, #0]
			if (!xQueueSendFromISR(terminal_in_queue, (uint8_t *)&data,NULL))
    3b72:	4b08      	ldr	r3, [pc, #32]	; (3b94 <rx_handler+0x6c>)
    3b74:	6818      	ldr	r0, [r3, #0]
    3b76:	2300      	movs	r3, #0
    3b78:	2200      	movs	r2, #0
    3b7a:	4c07      	ldr	r4, [pc, #28]	; (3b98 <rx_handler+0x70>)
    3b7c:	47a0      	blx	r4
}
    3b7e:	e7ed      	b.n	3b5c <rx_handler+0x34>
    3b80:	42000c00 	.word	0x42000c00
    3b84:	20003e42 	.word	0x20003e42
    3b88:	20004058 	.word	0x20004058
    3b8c:	20003fa8 	.word	0x20003fa8
    3b90:	20003cf0 	.word	0x20003cf0
    3b94:	20003d00 	.word	0x20003d00
    3b98:	0000167d 	.word	0x0000167d

00003b9c <usart_serial_getchar>:
 * \param[out]    c       Destination for the read character.
 */
static inline void usart_serial_getchar(
		struct usart_module *const module,
		uint8_t *c)
{
    3b9c:	b570      	push	{r4, r5, r6, lr}
    3b9e:	b082      	sub	sp, #8
    3ba0:	0005      	movs	r5, r0
    3ba2:	000e      	movs	r6, r1
	uint16_t temp = 0;
    3ba4:	2200      	movs	r2, #0
    3ba6:	466b      	mov	r3, sp
    3ba8:	80da      	strh	r2, [r3, #6]

	while(STATUS_OK != usart_read_wait(module, &temp));
    3baa:	4c06      	ldr	r4, [pc, #24]	; (3bc4 <usart_serial_getchar+0x28>)
    3bac:	466b      	mov	r3, sp
    3bae:	1d99      	adds	r1, r3, #6
    3bb0:	0028      	movs	r0, r5
    3bb2:	47a0      	blx	r4
    3bb4:	2800      	cmp	r0, #0
    3bb6:	d1f9      	bne.n	3bac <usart_serial_getchar+0x10>

	*c = temp;
    3bb8:	466b      	mov	r3, sp
    3bba:	3306      	adds	r3, #6
    3bbc:	881b      	ldrh	r3, [r3, #0]
    3bbe:	7033      	strb	r3, [r6, #0]
}
    3bc0:	b002      	add	sp, #8
    3bc2:	bd70      	pop	{r4, r5, r6, pc}
    3bc4:	000029b5 	.word	0x000029b5

00003bc8 <usart_serial_putchar>:
{
    3bc8:	b570      	push	{r4, r5, r6, lr}
    3bca:	0005      	movs	r5, r0
	while(STATUS_OK !=usart_write_wait(module, c));
    3bcc:	b28c      	uxth	r4, r1
    3bce:	4e03      	ldr	r6, [pc, #12]	; (3bdc <usart_serial_putchar+0x14>)
    3bd0:	0021      	movs	r1, r4
    3bd2:	0028      	movs	r0, r5
    3bd4:	47b0      	blx	r6
    3bd6:	2800      	cmp	r0, #0
    3bd8:	d1fa      	bne.n	3bd0 <usart_serial_putchar+0x8>
}
    3bda:	bd70      	pop	{r4, r5, r6, pc}
    3bdc:	00002989 	.word	0x00002989

00003be0 <configure_opamp2>:
{
    3be0:	b530      	push	{r4, r5, lr}
    3be2:	b087      	sub	sp, #28
    3be4:	0005      	movs	r5, r0
	opamp_module_init();
    3be6:	4b14      	ldr	r3, [pc, #80]	; (3c38 <configure_opamp2+0x58>)
    3be8:	4798      	blx	r3
	opamp2_get_config_defaults(&conf);
    3bea:	ac01      	add	r4, sp, #4
    3bec:	0020      	movs	r0, r4
    3bee:	4b13      	ldr	r3, [pc, #76]	; (3c3c <configure_opamp2+0x5c>)
    3bf0:	4798      	blx	r3
	conf.negative_input           = OPAMP2_NEG_MUX_TAP2;
    3bf2:	2380      	movs	r3, #128	; 0x80
    3bf4:	035b      	lsls	r3, r3, #13
    3bf6:	9301      	str	r3, [sp, #4]
	conf.positive_input           = OPAMP2_POS_MUX_PIN2;
    3bf8:	2200      	movs	r2, #0
    3bfa:	6062      	str	r2, [r4, #4]
	conf.r1_connection            = OPAMP2_RES1_MUX_GND;
    3bfc:	23c0      	movs	r3, #192	; 0xc0
    3bfe:	015b      	lsls	r3, r3, #5
    3c00:	8123      	strh	r3, [r4, #8]
	conf.config_common.potentiometer_selection = gain;
    3c02:	8165      	strh	r5, [r4, #10]
	conf.config_common.r1_enable  = true;
    3c04:	2301      	movs	r3, #1
    3c06:	7323      	strb	r3, [r4, #12]
	conf.config_common.r2_out     = true;
    3c08:	73a3      	strb	r3, [r4, #14]
	conf.config_common.analog_out = true;
    3c0a:	74a3      	strb	r3, [r4, #18]
	config->direction    = SYSTEM_PINMUX_PIN_DIR_INPUT;
    3c0c:	4669      	mov	r1, sp
    3c0e:	704a      	strb	r2, [r1, #1]
	config->input_pull   = SYSTEM_PINMUX_PIN_PULL_UP;
    3c10:	708b      	strb	r3, [r1, #2]
	config->powersave    = false;
    3c12:	70ca      	strb	r2, [r1, #3]
	opamp2_input_pin_conf.mux_position = OPAMP2_INPUT_MUX;
    3c14:	700b      	strb	r3, [r1, #0]
	system_pinmux_pin_set_config(OPAMP2_INPUT_PIN, &opamp2_input_pin_conf);
    3c16:	2005      	movs	r0, #5
    3c18:	4b09      	ldr	r3, [pc, #36]	; (3c40 <configure_opamp2+0x60>)
    3c1a:	4798      	blx	r3
	opamp2_set_config(&conf);
    3c1c:	0020      	movs	r0, r4
    3c1e:	4b09      	ldr	r3, [pc, #36]	; (3c44 <configure_opamp2+0x64>)
    3c20:	4798      	blx	r3
	opamp_enable(OPAMP_2);
    3c22:	2002      	movs	r0, #2
    3c24:	4b08      	ldr	r3, [pc, #32]	; (3c48 <configure_opamp2+0x68>)
    3c26:	4798      	blx	r3
	while(!opamp_is_ready(OPAMP_2));
    3c28:	4c08      	ldr	r4, [pc, #32]	; (3c4c <configure_opamp2+0x6c>)
    3c2a:	2002      	movs	r0, #2
    3c2c:	47a0      	blx	r4
    3c2e:	2800      	cmp	r0, #0
    3c30:	d0fb      	beq.n	3c2a <configure_opamp2+0x4a>
}
    3c32:	b007      	add	sp, #28
    3c34:	bd30      	pop	{r4, r5, pc}
    3c36:	46c0      	nop			; (mov r8, r8)
    3c38:	000033c1 	.word	0x000033c1
    3c3c:	000033fd 	.word	0x000033fd
    3c40:	00003995 	.word	0x00003995
    3c44:	00003425 	.word	0x00003425
    3c48:	00003481 	.word	0x00003481
    3c4c:	000034b5 	.word	0x000034b5

00003c50 <configure_adc>:
{
    3c50:	b530      	push	{r4, r5, lr}
    3c52:	b08d      	sub	sp, #52	; 0x34
	adc_get_config_defaults(&config_adc_ch1);
    3c54:	ac01      	add	r4, sp, #4
    3c56:	0020      	movs	r0, r4
    3c58:	4b15      	ldr	r3, [pc, #84]	; (3cb0 <configure_adc+0x60>)
    3c5a:	4798      	blx	r3
	config_adc_ch1.clock_prescaler = ADC_CLOCK_PRESCALER_DIV8;
    3c5c:	2302      	movs	r3, #2
    3c5e:	70a3      	strb	r3, [r4, #2]
	config_adc_ch1.positive_input  = ADC_POSITIVE_INPUT_OPAMP2;
    3c60:	331d      	adds	r3, #29
    3c62:	7123      	strb	r3, [r4, #4]
	config_adc_ch1.negative_input  = ADC_NEGATIVE_INPUT_GND;
    3c64:	23c0      	movs	r3, #192	; 0xc0
    3c66:	015b      	lsls	r3, r3, #5
    3c68:	80e3      	strh	r3, [r4, #6]
	err = adc_init(&adc_instance_ch1, ADC, &config_adc_ch1);
    3c6a:	4d12      	ldr	r5, [pc, #72]	; (3cb4 <configure_adc+0x64>)
    3c6c:	0022      	movs	r2, r4
    3c6e:	4912      	ldr	r1, [pc, #72]	; (3cb8 <configure_adc+0x68>)
    3c70:	0028      	movs	r0, r5
    3c72:	4b12      	ldr	r3, [pc, #72]	; (3cbc <configure_adc+0x6c>)
    3c74:	4798      	blx	r3
    3c76:	4b12      	ldr	r3, [pc, #72]	; (3cc0 <configure_adc+0x70>)
    3c78:	7018      	strb	r0, [r3, #0]
	Adc *const adc_module = module_inst->hw;
    3c7a:	682a      	ldr	r2, [r5, #0]
    3c7c:	8c13      	ldrh	r3, [r2, #32]
    3c7e:	b29b      	uxth	r3, r3
	while (adc_is_syncing(module_inst)) {
    3c80:	2b00      	cmp	r3, #0
    3c82:	d1fb      	bne.n	3c7c <configure_adc+0x2c>
 * \param[in] vector Interrupt vector to enable
 */
static inline void system_interrupt_enable(
		const enum system_interrupt_vector vector)
{
	NVIC->ISER[0] = (uint32_t)(1 << ((uint32_t)vector & 0x0000001f));
    3c84:	2180      	movs	r1, #128	; 0x80
    3c86:	03c9      	lsls	r1, r1, #15
    3c88:	4b0e      	ldr	r3, [pc, #56]	; (3cc4 <configure_adc+0x74>)
    3c8a:	6019      	str	r1, [r3, #0]
	adc_module->INTENCLR.reg = ADC_INTENCLR_MASK;
    3c8c:	2307      	movs	r3, #7
    3c8e:	7113      	strb	r3, [r2, #4]
	adc_module->INTFLAG.reg = ADC_INTFLAG_MASK;
    3c90:	7193      	strb	r3, [r2, #6]
	adc_module->CTRLA.reg |= ADC_CTRLA_ENABLE;
    3c92:	7813      	ldrb	r3, [r2, #0]
    3c94:	2102      	movs	r1, #2
    3c96:	430b      	orrs	r3, r1
    3c98:	7013      	strb	r3, [r2, #0]
	Adc *const adc_module = module_inst->hw;
    3c9a:	4b06      	ldr	r3, [pc, #24]	; (3cb4 <configure_adc+0x64>)
    3c9c:	681a      	ldr	r2, [r3, #0]
	if (adc_module->SYNCBUSY.reg) {
    3c9e:	8c13      	ldrh	r3, [r2, #32]
    3ca0:	b29b      	uxth	r3, r3
	while (adc_is_syncing(module_inst)) {
    3ca2:	2b00      	cmp	r3, #0
    3ca4:	d1fb      	bne.n	3c9e <configure_adc+0x4e>
	err = adc_enable(&adc_instance_ch1);
    3ca6:	2200      	movs	r2, #0
    3ca8:	4b05      	ldr	r3, [pc, #20]	; (3cc0 <configure_adc+0x70>)
    3caa:	701a      	strb	r2, [r3, #0]
}
    3cac:	b00d      	add	sp, #52	; 0x34
    3cae:	bd30      	pop	{r4, r5, pc}
    3cb0:	00002e75 	.word	0x00002e75
    3cb4:	20003fcc 	.word	0x20003fcc
    3cb8:	43000c00 	.word	0x43000c00
    3cbc:	00002eb9 	.word	0x00002eb9
    3cc0:	20003faa 	.word	0x20003faa
    3cc4:	e000e100 	.word	0xe000e100

00003cc8 <configure_adc_callbacks>:
{
    3cc8:	b570      	push	{r4, r5, r6, lr}
	adc_register_callback(&adc_instance_ch1,
    3cca:	4c09      	ldr	r4, [pc, #36]	; (3cf0 <configure_adc_callbacks+0x28>)
    3ccc:	2200      	movs	r2, #0
    3cce:	4909      	ldr	r1, [pc, #36]	; (3cf4 <configure_adc_callbacks+0x2c>)
    3cd0:	0020      	movs	r0, r4
    3cd2:	4e09      	ldr	r6, [pc, #36]	; (3cf8 <configure_adc_callbacks+0x30>)
    3cd4:	47b0      	blx	r6
{
	/* Sanity check arguments */
	Assert(module);

	/* Enable callback */
	module->enabled_callback_mask |= (1 << callback_type);
    3cd6:	2501      	movs	r5, #1
    3cd8:	7ee3      	ldrb	r3, [r4, #27]
    3cda:	432b      	orrs	r3, r5
    3cdc:	76e3      	strb	r3, [r4, #27]
	adc_register_callback(&adc_instance_ch2,
    3cde:	4c07      	ldr	r4, [pc, #28]	; (3cfc <configure_adc_callbacks+0x34>)
    3ce0:	2200      	movs	r2, #0
    3ce2:	4907      	ldr	r1, [pc, #28]	; (3d00 <configure_adc_callbacks+0x38>)
    3ce4:	0020      	movs	r0, r4
    3ce6:	47b0      	blx	r6
    3ce8:	7ee3      	ldrb	r3, [r4, #27]
    3cea:	432b      	orrs	r3, r5
    3cec:	76e3      	strb	r3, [r4, #27]
}
    3cee:	bd70      	pop	{r4, r5, r6, pc}
    3cf0:	20003fcc 	.word	0x20003fcc
    3cf4:	000041b5 	.word	0x000041b5
    3cf8:	00003361 	.word	0x00003361
    3cfc:	20003fac 	.word	0x20003fac
    3d00:	000042c9 	.word	0x000042c9

00003d04 <QueueInit>:
	QueueIn = QueueOut = 0;
    3d04:	2300      	movs	r3, #0
    3d06:	4a02      	ldr	r2, [pc, #8]	; (3d10 <QueueInit+0xc>)
    3d08:	8013      	strh	r3, [r2, #0]
    3d0a:	4a02      	ldr	r2, [pc, #8]	; (3d14 <QueueInit+0x10>)
    3d0c:	8013      	strh	r3, [r2, #0]
}
    3d0e:	4770      	bx	lr
    3d10:	2000402c 	.word	0x2000402c
    3d14:	2000402e 	.word	0x2000402e

00003d18 <QueuePut>:
{
    3d18:	b570      	push	{r4, r5, r6, lr}
    3d1a:	0005      	movs	r5, r0
	if(QueueIn == (( QueueOut - 1 + QUEUE_SIZE) % QUEUE_SIZE))
    3d1c:	4b0b      	ldr	r3, [pc, #44]	; (3d4c <QueuePut+0x34>)
    3d1e:	881c      	ldrh	r4, [r3, #0]
    3d20:	4b0b      	ldr	r3, [pc, #44]	; (3d50 <QueuePut+0x38>)
    3d22:	8818      	ldrh	r0, [r3, #0]
    3d24:	3064      	adds	r0, #100	; 0x64
    3d26:	2165      	movs	r1, #101	; 0x65
    3d28:	4b0a      	ldr	r3, [pc, #40]	; (3d54 <QueuePut+0x3c>)
    3d2a:	4798      	blx	r3
    3d2c:	428c      	cmp	r4, r1
    3d2e:	d00a      	beq.n	3d46 <QueuePut+0x2e>
	Queue[QueueIn] = new;
    3d30:	0062      	lsls	r2, r4, #1
    3d32:	4b09      	ldr	r3, [pc, #36]	; (3d58 <QueuePut+0x40>)
    3d34:	52d5      	strh	r5, [r2, r3]
	QueueIn = (QueueIn + 1) % QUEUE_SIZE;
    3d36:	1c60      	adds	r0, r4, #1
    3d38:	2165      	movs	r1, #101	; 0x65
    3d3a:	4b06      	ldr	r3, [pc, #24]	; (3d54 <QueuePut+0x3c>)
    3d3c:	4798      	blx	r3
    3d3e:	4b03      	ldr	r3, [pc, #12]	; (3d4c <QueuePut+0x34>)
    3d40:	8019      	strh	r1, [r3, #0]
	return 0; // No errors
    3d42:	2000      	movs	r0, #0
}
    3d44:	bd70      	pop	{r4, r5, r6, pc}
		return -1; /* Queue Full*/
    3d46:	2001      	movs	r0, #1
    3d48:	4240      	negs	r0, r0
    3d4a:	e7fb      	b.n	3d44 <QueuePut+0x2c>
    3d4c:	2000402e 	.word	0x2000402e
    3d50:	2000402c 	.word	0x2000402c
    3d54:	000049b9 	.word	0x000049b9
    3d58:	20003d78 	.word	0x20003d78

00003d5c <main_task>:
{
    3d5c:	b570      	push	{r4, r5, r6, lr}
	QueueInit();
    3d5e:	4b39      	ldr	r3, [pc, #228]	; (3e44 <main_task+0xe8>)
    3d60:	4798      	blx	r3
	QueuePut(0xAA);
    3d62:	20aa      	movs	r0, #170	; 0xaa
    3d64:	4b38      	ldr	r3, [pc, #224]	; (3e48 <main_task+0xec>)
    3d66:	4798      	blx	r3
	memset(adc_result_buffer_ch1,0,ADC_SAMPLES);
    3d68:	4c38      	ldr	r4, [pc, #224]	; (3e4c <main_task+0xf0>)
    3d6a:	2220      	movs	r2, #32
    3d6c:	2100      	movs	r1, #0
    3d6e:	0020      	movs	r0, r4
    3d70:	4b37      	ldr	r3, [pc, #220]	; (3e50 <main_task+0xf4>)
    3d72:	4798      	blx	r3
	adc_read_buffer_job(&adc_instance_ch1, adc_result_buffer_ch1, n_sample);
    3d74:	4b37      	ldr	r3, [pc, #220]	; (3e54 <main_task+0xf8>)
    3d76:	881a      	ldrh	r2, [r3, #0]
    3d78:	0021      	movs	r1, r4
    3d7a:	4837      	ldr	r0, [pc, #220]	; (3e58 <main_task+0xfc>)
    3d7c:	4b37      	ldr	r3, [pc, #220]	; (3e5c <main_task+0x100>)
    3d7e:	4798      	blx	r3
		lis302dl_read_all();
    3d80:	4e37      	ldr	r6, [pc, #220]	; (3e60 <main_task+0x104>)
		 acc_x = rd_buffer[40];
    3d82:	4d38      	ldr	r5, [pc, #224]	; (3e64 <main_task+0x108>)
    3d84:	4c38      	ldr	r4, [pc, #224]	; (3e68 <main_task+0x10c>)
    3d86:	e024      	b.n	3dd2 <main_task+0x76>
					pick_count_up = 0;
    3d88:	2200      	movs	r2, #0
    3d8a:	4b38      	ldr	r3, [pc, #224]	; (3e6c <main_task+0x110>)
    3d8c:	601a      	str	r2, [r3, #0]
					pick_count_down = PICK_COUNT_DOWN_DEFAULT;	
    3d8e:	3214      	adds	r2, #20
    3d90:	4b37      	ldr	r3, [pc, #220]	; (3e70 <main_task+0x114>)
    3d92:	601a      	str	r2, [r3, #0]
					alarm_detected = 1;
    3d94:	3a13      	subs	r2, #19
    3d96:	4b37      	ldr	r3, [pc, #220]	; (3e74 <main_task+0x118>)
    3d98:	701a      	strb	r2, [r3, #0]
    3d9a:	e033      	b.n	3e04 <main_task+0xa8>
				if(pick_count_down > 0)
    3d9c:	4b34      	ldr	r3, [pc, #208]	; (3e70 <main_task+0x114>)
    3d9e:	681b      	ldr	r3, [r3, #0]
    3da0:	2b00      	cmp	r3, #0
    3da2:	d003      	beq.n	3dac <main_task+0x50>
					pick_count_down--;
    3da4:	3b01      	subs	r3, #1
    3da6:	4a32      	ldr	r2, [pc, #200]	; (3e70 <main_task+0x114>)
    3da8:	6013      	str	r3, [r2, #0]
    3daa:	e02b      	b.n	3e04 <main_task+0xa8>
					pick_count_down = PICK_COUNT_DOWN_DEFAULT;
    3dac:	2214      	movs	r2, #20
    3dae:	4b30      	ldr	r3, [pc, #192]	; (3e70 <main_task+0x114>)
    3db0:	601a      	str	r2, [r3, #0]
					pick_count_up = 0;
    3db2:	2300      	movs	r3, #0
    3db4:	4a2d      	ldr	r2, [pc, #180]	; (3e6c <main_task+0x110>)
    3db6:	6013      	str	r3, [r2, #0]
					alarm_detected = 0;
    3db8:	4a2e      	ldr	r2, [pc, #184]	; (3e74 <main_task+0x118>)
    3dba:	7013      	strb	r3, [r2, #0]
    3dbc:	e022      	b.n	3e04 <main_task+0xa8>
				case MUX_12R_4R:temp_gain = OPAMP_POT_MUX_12R_4R;
    3dbe:	2080      	movs	r0, #128	; 0x80
    3dc0:	0180      	lsls	r0, r0, #6
			configure_opamp2(temp_gain);
    3dc2:	4b2d      	ldr	r3, [pc, #180]	; (3e78 <main_task+0x11c>)
    3dc4:	4798      	blx	r3
			change_gain = false;
    3dc6:	2200      	movs	r2, #0
    3dc8:	4b2c      	ldr	r3, [pc, #176]	; (3e7c <main_task+0x120>)
    3dca:	701a      	strb	r2, [r3, #0]
		vTaskDelay(MAIN_TASK_DELAY);
    3dcc:	2032      	movs	r0, #50	; 0x32
    3dce:	4b2c      	ldr	r3, [pc, #176]	; (3e80 <main_task+0x124>)
    3dd0:	4798      	blx	r3
		lis302dl_read_all();
    3dd2:	47b0      	blx	r6
		 acc_x = rd_buffer[40];
    3dd4:	2328      	movs	r3, #40	; 0x28
    3dd6:	5ce3      	ldrb	r3, [r4, r3]
    3dd8:	702b      	strb	r3, [r5, #0]
		 acc_y = rd_buffer[42];
    3dda:	232a      	movs	r3, #42	; 0x2a
    3ddc:	5ce2      	ldrb	r2, [r4, r3]
    3dde:	4b29      	ldr	r3, [pc, #164]	; (3e84 <main_task+0x128>)
    3de0:	701a      	strb	r2, [r3, #0]
		 acc_z = rd_buffer[44];
    3de2:	232c      	movs	r3, #44	; 0x2c
    3de4:	5ce2      	ldrb	r2, [r4, r3]
    3de6:	4b28      	ldr	r3, [pc, #160]	; (3e88 <main_task+0x12c>)
    3de8:	701a      	strb	r2, [r3, #0]
			if(integrale_ch1 < threshold_value)
    3dea:	4b28      	ldr	r3, [pc, #160]	; (3e8c <main_task+0x130>)
    3dec:	881a      	ldrh	r2, [r3, #0]
    3dee:	4b28      	ldr	r3, [pc, #160]	; (3e90 <main_task+0x134>)
    3df0:	881b      	ldrh	r3, [r3, #0]
    3df2:	429a      	cmp	r2, r3
    3df4:	d2d2      	bcs.n	3d9c <main_task+0x40>
				if(pick_count_up < PICK_COUNT_UP_DEFAULT)
    3df6:	4b1d      	ldr	r3, [pc, #116]	; (3e6c <main_task+0x110>)
    3df8:	681b      	ldr	r3, [r3, #0]
    3dfa:	2b27      	cmp	r3, #39	; 0x27
    3dfc:	d8c4      	bhi.n	3d88 <main_task+0x2c>
					pick_count_up++;
    3dfe:	3301      	adds	r3, #1
    3e00:	4a1a      	ldr	r2, [pc, #104]	; (3e6c <main_task+0x110>)
    3e02:	6013      	str	r3, [r2, #0]
		if(change_gain == true)
    3e04:	4b1d      	ldr	r3, [pc, #116]	; (3e7c <main_task+0x120>)
    3e06:	781b      	ldrb	r3, [r3, #0]
    3e08:	2b00      	cmp	r3, #0
    3e0a:	d0df      	beq.n	3dcc <main_task+0x70>
			switch(analog_gain_1){
    3e0c:	4b21      	ldr	r3, [pc, #132]	; (3e94 <main_task+0x138>)
    3e0e:	781a      	ldrb	r2, [r3, #0]
    3e10:	2a08      	cmp	r2, #8
    3e12:	d815      	bhi.n	3e40 <main_task+0xe4>
    3e14:	0093      	lsls	r3, r2, #2
    3e16:	4a20      	ldr	r2, [pc, #128]	; (3e98 <main_task+0x13c>)
    3e18:	58d3      	ldr	r3, [r2, r3]
    3e1a:	469f      	mov	pc, r3
				case MUX_8R_8R:temp_gain = OPAMP_POT_MUX_8R_8R;
    3e1c:	2080      	movs	r0, #128	; 0x80
    3e1e:	01c0      	lsls	r0, r0, #7
				break;
    3e20:	e7cf      	b.n	3dc2 <main_task+0x66>
				case MUX_6R_10R:temp_gain = OPAMP_POT_MUX_6R_10R;
    3e22:	20c0      	movs	r0, #192	; 0xc0
    3e24:	01c0      	lsls	r0, r0, #7
				break;
    3e26:	e7cc      	b.n	3dc2 <main_task+0x66>
				case MUX_4R_12R:temp_gain = OPAMP_POT_MUX_4R_12R;
    3e28:	2080      	movs	r0, #128	; 0x80
    3e2a:	0200      	lsls	r0, r0, #8
				break;
    3e2c:	e7c9      	b.n	3dc2 <main_task+0x66>
				case MUX_3R_13R:temp_gain = OPAMP_POT_MUX_3R_13R;
    3e2e:	20a0      	movs	r0, #160	; 0xa0
    3e30:	0200      	lsls	r0, r0, #8
				break;
    3e32:	e7c6      	b.n	3dc2 <main_task+0x66>
				case MUX_2R_14R:temp_gain = OPAMP_POT_MUX_2R_14R;
    3e34:	20c0      	movs	r0, #192	; 0xc0
    3e36:	0200      	lsls	r0, r0, #8
				break;
    3e38:	e7c3      	b.n	3dc2 <main_task+0x66>
				case MUX_R_15R:temp_gain = OPAMP_POT_MUX_R_15R;
    3e3a:	20e0      	movs	r0, #224	; 0xe0
    3e3c:	0200      	lsls	r0, r0, #8
				break;
    3e3e:	e7c0      	b.n	3dc2 <main_task+0x66>
			enum opamp_pot_mux temp_gain = OPAMP_POT_MUX_14R_2R;
    3e40:	2000      	movs	r0, #0
    3e42:	e7be      	b.n	3dc2 <main_task+0x66>
    3e44:	00003d05 	.word	0x00003d05
    3e48:	00003d19 	.word	0x00003d19
    3e4c:	20003e78 	.word	0x20003e78
    3e50:	0000633b 	.word	0x0000633b
    3e54:	20000038 	.word	0x20000038
    3e58:	20003fcc 	.word	0x20003fcc
    3e5c:	00003375 	.word	0x00003375
    3e60:	000001a9 	.word	0x000001a9
    3e64:	20003ce8 	.word	0x20003ce8
    3e68:	20003d10 	.word	0x20003d10
    3e6c:	20003cfc 	.word	0x20003cfc
    3e70:	2000003c 	.word	0x2000003c
    3e74:	20003ceb 	.word	0x20003ceb
    3e78:	00003be1 	.word	0x00003be1
    3e7c:	20003cec 	.word	0x20003cec
    3e80:	00001e41 	.word	0x00001e41
    3e84:	20003ce9 	.word	0x20003ce9
    3e88:	20003cea 	.word	0x20003cea
    3e8c:	20003cf8 	.word	0x20003cf8
    3e90:	2000004c 	.word	0x2000004c
    3e94:	20000035 	.word	0x20000035
    3e98:	00006cd0 	.word	0x00006cd0

00003e9c <configure_i2c_master>:
{
    3e9c:	b530      	push	{r4, r5, lr}
    3e9e:	b08f      	sub	sp, #60	; 0x3c
static inline void i2c_master_get_config_defaults(
		struct i2c_master_config *const config)
{
	/*Sanity check argument */
	Assert(config);
	config->baud_rate        = I2C_MASTER_BAUD_RATE_100KHZ;
    3ea0:	aa01      	add	r2, sp, #4
    3ea2:	2364      	movs	r3, #100	; 0x64
    3ea4:	9301      	str	r3, [sp, #4]
#ifdef FEATURE_I2C_FAST_MODE_PLUS_AND_HIGH_SPEED
	config->baud_rate_high_speed = I2C_MASTER_BAUD_RATE_3400KHZ;
    3ea6:	4b20      	ldr	r3, [pc, #128]	; (3f28 <configure_i2c_master+0x8c>)
    3ea8:	6053      	str	r3, [r2, #4]
	config->transfer_speed       = I2C_MASTER_SPEED_STANDARD_AND_FAST;
    3eaa:	2300      	movs	r3, #0
    3eac:	6093      	str	r3, [r2, #8]
#endif
	config->generator_source = GCLK_GENERATOR_0;
    3eae:	7313      	strb	r3, [r2, #12]
	config->run_in_standby   = false;
    3eb0:	7613      	strb	r3, [r2, #24]
	config->start_hold_time  = I2C_MASTER_START_HOLD_TIME_300NS_600NS;
    3eb2:	2180      	movs	r1, #128	; 0x80
    3eb4:	0389      	lsls	r1, r1, #14
    3eb6:	6111      	str	r1, [r2, #16]
	config->buffer_timeout   = 65535;
	config->unknown_bus_state_timeout = 65535;
    3eb8:	2101      	movs	r1, #1
    3eba:	4249      	negs	r1, r1
    3ebc:	8291      	strh	r1, [r2, #20]
	config->pinmux_pad0      = PINMUX_DEFAULT;
    3ebe:	61d3      	str	r3, [r2, #28]
	config->pinmux_pad1      = PINMUX_DEFAULT;
    3ec0:	6213      	str	r3, [r2, #32]
	config->scl_low_timeout  = false;
    3ec2:	3125      	adds	r1, #37	; 0x25
    3ec4:	5453      	strb	r3, [r2, r1]
	config->inactive_timeout = I2C_MASTER_INACTIVE_TIMEOUT_DISABLED;
    3ec6:	6293      	str	r3, [r2, #40]	; 0x28
#ifdef FEATURE_I2C_SCL_STRETCH_MODE
	config->scl_stretch_only_after_ack_bit = false;
    3ec8:	3108      	adds	r1, #8
    3eca:	5453      	strb	r3, [r2, r1]
#endif
#ifdef FEATURE_I2C_SCL_EXTEND_TIMEOUT
	config->slave_scl_low_extend_timeout   = false;
    3ecc:	3101      	adds	r1, #1
    3ece:	5453      	strb	r3, [r2, r1]
	config->master_scl_low_extend_timeout  = false;
    3ed0:	3101      	adds	r1, #1
    3ed2:	5453      	strb	r3, [r2, r1]
#endif
	/* The typical value is 215ns */
	config->sda_scl_rise_time_ns = 215;
    3ed4:	33d7      	adds	r3, #215	; 0xd7
    3ed6:	8613      	strh	r3, [r2, #48]	; 0x30
	config_i2c_master.buffer_timeout = 10000;
    3ed8:	4b14      	ldr	r3, [pc, #80]	; (3f2c <configure_i2c_master+0x90>)
    3eda:	82d3      	strh	r3, [r2, #22]
	i2c_master_init(&i2c_master_instance, CONF_I2C_MASTER_MODULE, &config_i2c_master);
    3edc:	4c14      	ldr	r4, [pc, #80]	; (3f30 <configure_i2c_master+0x94>)
    3ede:	4915      	ldr	r1, [pc, #84]	; (3f34 <configure_i2c_master+0x98>)
    3ee0:	0020      	movs	r0, r4
    3ee2:	4b15      	ldr	r3, [pc, #84]	; (3f38 <configure_i2c_master+0x9c>)
    3ee4:	4798      	blx	r3
{
	/* Sanity check of arguments */
	Assert(module);
	Assert(module->hw);

	SercomI2cm *const i2c_module = &(module->hw->I2CM);
    3ee6:	6824      	ldr	r4, [r4, #0]
	return (i2c_hw->SYNCBUSY.reg & SERCOM_I2CM_SYNCBUSY_MASK);
    3ee8:	2207      	movs	r2, #7
    3eea:	69e3      	ldr	r3, [r4, #28]
	while (i2c_master_is_syncing(module)) {
    3eec:	421a      	tst	r2, r3
    3eee:	d1fc      	bne.n	3eea <configure_i2c_master+0x4e>

	/* Wait for module to sync */
	_i2c_master_wait_for_sync(module);

	/* Enable module */
	i2c_module->CTRLA.reg |= SERCOM_I2CM_CTRLA_ENABLE;
    3ef0:	6823      	ldr	r3, [r4, #0]
    3ef2:	2202      	movs	r2, #2
    3ef4:	4313      	orrs	r3, r2
    3ef6:	6023      	str	r3, [r4, #0]

#if I2C_MASTER_CALLBACK_MODE == true
	/* Enable module interrupts */
	system_interrupt_enable(_sercom_get_interrupt_vector(module->hw));
    3ef8:	4d0d      	ldr	r5, [pc, #52]	; (3f30 <configure_i2c_master+0x94>)
    3efa:	6828      	ldr	r0, [r5, #0]
    3efc:	4b0f      	ldr	r3, [pc, #60]	; (3f3c <configure_i2c_master+0xa0>)
    3efe:	4798      	blx	r3
    3f00:	231f      	movs	r3, #31
    3f02:	4018      	ands	r0, r3
    3f04:	3b1e      	subs	r3, #30
    3f06:	4083      	lsls	r3, r0
    3f08:	4a0d      	ldr	r2, [pc, #52]	; (3f40 <configure_i2c_master+0xa4>)
    3f0a:	6013      	str	r3, [r2, #0]
#endif
	/* Start timeout if bus state is unknown */
	while (!(i2c_module->STATUS.reg & SERCOM_I2CM_STATUS_BUSSTATE(1))) {
		timeout_counter++;
		if(timeout_counter >= (module->unknown_bus_state_timeout)) {
    3f0c:	88e8      	ldrh	r0, [r5, #6]
	uint32_t timeout_counter = 0;
    3f0e:	2300      	movs	r3, #0
	while (!(i2c_module->STATUS.reg & SERCOM_I2CM_STATUS_BUSSTATE(1))) {
    3f10:	2110      	movs	r1, #16
    3f12:	8b62      	ldrh	r2, [r4, #26]
    3f14:	420a      	tst	r2, r1
    3f16:	d104      	bne.n	3f22 <configure_i2c_master+0x86>
		timeout_counter++;
    3f18:	3301      	adds	r3, #1
		if(timeout_counter >= (module->unknown_bus_state_timeout)) {
    3f1a:	4283      	cmp	r3, r0
    3f1c:	d3f9      	bcc.n	3f12 <configure_i2c_master+0x76>
			/* Timeout, force bus state to idle */
			i2c_module->STATUS.reg = SERCOM_I2CM_STATUS_BUSSTATE(1);
    3f1e:	2310      	movs	r3, #16
    3f20:	8363      	strh	r3, [r4, #26]
}
    3f22:	b00f      	add	sp, #60	; 0x3c
    3f24:	bd30      	pop	{r4, r5, pc}
    3f26:	46c0      	nop			; (mov r8, r8)
    3f28:	00000d48 	.word	0x00000d48
    3f2c:	00002710 	.word	0x00002710
    3f30:	20003f80 	.word	0x20003f80
    3f34:	42000800 	.word	0x42000800
    3f38:	00000275 	.word	0x00000275
    3f3c:	00002cb9 	.word	0x00002cb9
    3f40:	e000e100 	.word	0xe000e100

00003f44 <main>:
{
    3f44:	b5f0      	push	{r4, r5, r6, r7, lr}
    3f46:	b095      	sub	sp, #84	; 0x54
  __ASM volatile ("cpsid i" : : : "memory");
    3f48:	b672      	cpsid	i
    3f4a:	f3bf 8f5f 	dmb	sy
	cpu_irq_disable();
    3f4e:	2400      	movs	r4, #0
    3f50:	2600      	movs	r6, #0
    3f52:	4b63      	ldr	r3, [pc, #396]	; (40e0 <main+0x19c>)
    3f54:	701c      	strb	r4, [r3, #0]
	system_init();
    3f56:	4b63      	ldr	r3, [pc, #396]	; (40e4 <main+0x1a0>)
    3f58:	4798      	blx	r3
	delay_init();
    3f5a:	4b63      	ldr	r3, [pc, #396]	; (40e8 <main+0x1a4>)
    3f5c:	4798      	blx	r3
	configure_i2c_master();
    3f5e:	4b63      	ldr	r3, [pc, #396]	; (40ec <main+0x1a8>)
    3f60:	4798      	blx	r3
{
	/* Sanity check arguments */
	Assert(config);

	/* Set default config in the config struct */
	config->data_order       = USART_DATAORDER_LSB;
    3f62:	aa04      	add	r2, sp, #16
    3f64:	2380      	movs	r3, #128	; 0x80
    3f66:	05db      	lsls	r3, r3, #23
    3f68:	9304      	str	r3, [sp, #16]
	config->transfer_mode    = USART_TRANSFER_ASYNCHRONOUSLY;
    3f6a:	6054      	str	r4, [r2, #4]
	config->parity           = USART_PARITY_NONE;
    3f6c:	23ff      	movs	r3, #255	; 0xff
    3f6e:	8113      	strh	r3, [r2, #8]
	config->stopbits         = USART_STOPBITS_1;
    3f70:	7294      	strb	r4, [r2, #10]
	config->character_size   = USART_CHARACTER_SIZE_8BIT;
    3f72:	72d4      	strb	r4, [r2, #11]
	config->baudrate         = 9600;
	config->receiver_enable  = true;
    3f74:	2501      	movs	r5, #1
    3f76:	3bdb      	subs	r3, #219	; 0xdb
    3f78:	54d5      	strb	r5, [r2, r3]
	config->transmitter_enable = true;
    3f7a:	3301      	adds	r3, #1
    3f7c:	54d5      	strb	r5, [r2, r3]
	config->clock_polarity_inverted = false;
    3f7e:	3301      	adds	r3, #1
    3f80:	54d4      	strb	r4, [r2, r3]
	config->use_external_clock = false;
    3f82:	3301      	adds	r3, #1
    3f84:	54d4      	strb	r4, [r2, r3]
	config->ext_clock_freq   = 0;
    3f86:	6294      	str	r4, [r2, #40]	; 0x28
	config->mux_setting      = USART_RX_1_TX_2_XCK_3;
	config->run_in_standby   = false;
    3f88:	3305      	adds	r3, #5
    3f8a:	54d4      	strb	r4, [r2, r3]
	config->generator_source = GCLK_GENERATOR_0;
    3f8c:	3301      	adds	r3, #1
    3f8e:	54d4      	strb	r4, [r2, r3]
	config->pinmux_pad0      = PINMUX_DEFAULT;
	config->pinmux_pad1      = PINMUX_DEFAULT;
	config->pinmux_pad2      = PINMUX_DEFAULT;
	config->pinmux_pad3      = PINMUX_DEFAULT;
#ifdef FEATURE_USART_OVER_SAMPLE
	config->sample_adjustment     = USART_SAMPLE_ADJUSTMENT_7_8_9;
    3f90:	6154      	str	r4, [r2, #20]
	config->sample_rate           = USART_SAMPLE_RATE_16X_ARITHMETIC;
    3f92:	8214      	strh	r4, [r2, #16]
#endif
#ifdef FEATURE_USART_LIN_SLAVE
	config->lin_slave_enable      = false;
    3f94:	2300      	movs	r3, #0
    3f96:	76d3      	strb	r3, [r2, #27]
	config->lin_header_delay = LIN_MASTER_HEADER_DELAY_0;
	config->lin_break_length = LIN_MASTER_BREAK_LENGTH_13_BIT;
#endif

#ifdef FEATURE_USART_IMMEDIATE_BUFFER_OVERFLOW_NOTIFICATION
	config->immediate_buffer_overflow_notification  = false;
    3f98:	7616      	strb	r6, [r2, #24]
#endif
#ifdef FEATURE_USART_START_FRAME_DECTION
	config->start_frame_detection_enable            = false;
    3f9a:	7716      	strb	r6, [r2, #28]
#endif
#ifdef FEATURE_USART_IRDA
	config->encoding_format_enable                  = false;
    3f9c:	7656      	strb	r6, [r2, #25]
	config->receive_pulse_length                    = 19;
    3f9e:	2313      	movs	r3, #19
    3fa0:	7693      	strb	r3, [r2, #26]
	config->iso7816_config.inhibit_nack             = ISO7816_INHIBIT_NACK_DISABLE;
	config->iso7816_config.successive_recv_nack     = ISO7816_SUCCESSIVE_RECV_NACK_DISABLE;
	config->iso7816_config.max_iterations           = 7;
#endif
#ifdef FEATURE_USART_COLLISION_DECTION
	config->collision_detection_enable              = false;
    3fa2:	7756      	strb	r6, [r2, #29]
	config_usart.baudrate    = 115200;
    3fa4:	23e1      	movs	r3, #225	; 0xe1
    3fa6:	025b      	lsls	r3, r3, #9
    3fa8:	6213      	str	r3, [r2, #32]
	config_usart.mux_setting = EDBG_CDC_SERCOM_MUX_SETTING;
    3faa:	2380      	movs	r3, #128	; 0x80
    3fac:	035b      	lsls	r3, r3, #13
    3fae:	60d3      	str	r3, [r2, #12]
	config_usart.pinmux_pad0 = EDBG_CDC_SERCOM_PINMUX_PAD0;
    3fb0:	4b4f      	ldr	r3, [pc, #316]	; (40f0 <main+0x1ac>)
    3fb2:	6313      	str	r3, [r2, #48]	; 0x30
	config_usart.pinmux_pad1 = EDBG_CDC_SERCOM_PINMUX_PAD1;
    3fb4:	4b4f      	ldr	r3, [pc, #316]	; (40f4 <main+0x1b0>)
    3fb6:	6353      	str	r3, [r2, #52]	; 0x34
	config_usart.pinmux_pad2 = EDBG_CDC_SERCOM_PINMUX_PAD2;
    3fb8:	2301      	movs	r3, #1
    3fba:	425b      	negs	r3, r3
    3fbc:	6393      	str	r3, [r2, #56]	; 0x38
	config_usart.pinmux_pad3 = EDBG_CDC_SERCOM_PINMUX_PAD3;
    3fbe:	63d3      	str	r3, [r2, #60]	; 0x3c
static inline void stdio_serial_init(
		struct usart_module *const module,
		usart_inst_t const hw,
		const struct usart_config *const config)
{
	stdio_base = (void *)module;
    3fc0:	4c4d      	ldr	r4, [pc, #308]	; (40f8 <main+0x1b4>)
    3fc2:	4b4e      	ldr	r3, [pc, #312]	; (40fc <main+0x1b8>)
    3fc4:	601c      	str	r4, [r3, #0]
	ptr_put = (int (*)(void volatile*,char))&usart_serial_putchar;
    3fc6:	494e      	ldr	r1, [pc, #312]	; (4100 <main+0x1bc>)
    3fc8:	4b4e      	ldr	r3, [pc, #312]	; (4104 <main+0x1c0>)
    3fca:	6019      	str	r1, [r3, #0]
	ptr_get = (void (*)(void volatile*,char*))&usart_serial_getchar;
    3fcc:	494e      	ldr	r1, [pc, #312]	; (4108 <main+0x1c4>)
    3fce:	4b4f      	ldr	r3, [pc, #316]	; (410c <main+0x1c8>)
    3fd0:	6019      	str	r1, [r3, #0]
	if (usart_init(module, hw, config) == STATUS_OK) {
    3fd2:	494f      	ldr	r1, [pc, #316]	; (4110 <main+0x1cc>)
    3fd4:	0020      	movs	r0, r4
    3fd6:	4b4f      	ldr	r3, [pc, #316]	; (4114 <main+0x1d0>)
    3fd8:	4798      	blx	r3

	usart_serial_init(module, hw, config);
# if defined(__GNUC__)
	// Specify that stdout and stdin should not be buffered.
	setbuf(stdout, NULL);
    3fda:	4e4f      	ldr	r6, [pc, #316]	; (4118 <main+0x1d4>)
    3fdc:	6833      	ldr	r3, [r6, #0]
    3fde:	6898      	ldr	r0, [r3, #8]
    3fe0:	2100      	movs	r1, #0
    3fe2:	4f4e      	ldr	r7, [pc, #312]	; (411c <main+0x1d8>)
    3fe4:	47b8      	blx	r7
	setbuf(stdin, NULL);
    3fe6:	6833      	ldr	r3, [r6, #0]
    3fe8:	6858      	ldr	r0, [r3, #4]
    3fea:	2100      	movs	r1, #0
    3fec:	47b8      	blx	r7
	instance_index = _sercom_get_sercom_inst_index(EDBG_CDC_MODULE);
    3fee:	4848      	ldr	r0, [pc, #288]	; (4110 <main+0x1cc>)
    3ff0:	4b4b      	ldr	r3, [pc, #300]	; (4120 <main+0x1dc>)
    3ff2:	4798      	blx	r3
	_sercom_set_handler(instance_index, rx_handler);
    3ff4:	494b      	ldr	r1, [pc, #300]	; (4124 <main+0x1e0>)
    3ff6:	4b4c      	ldr	r3, [pc, #304]	; (4128 <main+0x1e4>)
    3ff8:	4798      	blx	r3
	/* Sanity check arguments */
	Assert(module);
	Assert(module->hw);

	/* Get a pointer to the hardware module instance */
	SercomUsart *const usart_hw = &(module->hw->USART);
    3ffa:	6826      	ldr	r6, [r4, #0]

#if USART_CALLBACK_MODE == true
	/* Enable Global interrupt for module */
	system_interrupt_enable(_sercom_get_interrupt_vector(module->hw));
    3ffc:	0030      	movs	r0, r6
    3ffe:	4b4b      	ldr	r3, [pc, #300]	; (412c <main+0x1e8>)
    4000:	4798      	blx	r3
	NVIC->ISER[0] = (uint32_t)(1 << ((uint32_t)vector & 0x0000001f));
    4002:	231f      	movs	r3, #31
    4004:	4018      	ands	r0, r3
    4006:	4085      	lsls	r5, r0
    4008:	4b49      	ldr	r3, [pc, #292]	; (4130 <main+0x1ec>)
    400a:	601d      	str	r5, [r3, #0]
	SercomUsart *const usart_hw = &(module->hw->USART);
    400c:	6823      	ldr	r3, [r4, #0]
	return (usart_hw->SYNCBUSY.reg);
    400e:	69da      	ldr	r2, [r3, #28]
	while (usart_is_syncing(module)) {
    4010:	2a00      	cmp	r2, #0
    4012:	d1fc      	bne.n	400e <main+0xca>

	/* Wait until synchronization is complete */
	_usart_wait_for_sync(module);

	/* Enable USART module */
	usart_hw->CTRLA.reg |= SERCOM_USART_CTRLA_ENABLE;
    4014:	6833      	ldr	r3, [r6, #0]
    4016:	3202      	adds	r2, #2
    4018:	4313      	orrs	r3, r2
    401a:	6033      	str	r3, [r6, #0]
	/* Sanity check arguments */
	Assert(module);
	Assert(module->hw);

	/* Get a pointer to the hardware module instance */
	SercomUsart *const usart_hw = &(module->hw->USART);
    401c:	4b36      	ldr	r3, [pc, #216]	; (40f8 <main+0x1b4>)
    401e:	681b      	ldr	r3, [r3, #0]
	return (usart_hw->SYNCBUSY.reg);
    4020:	69da      	ldr	r2, [r3, #28]
	while (usart_is_syncing(module)) {
    4022:	2a00      	cmp	r2, #0
    4024:	d1fc      	bne.n	4020 <main+0xdc>
			module->receiver_enabled = true;
			break;

		case USART_TRANSCEIVER_TX:
			/* Enable TX */
			usart_hw->CTRLB.reg |= SERCOM_USART_CTRLB_TXEN;
    4026:	6859      	ldr	r1, [r3, #4]
    4028:	2280      	movs	r2, #128	; 0x80
    402a:	0252      	lsls	r2, r2, #9
    402c:	430a      	orrs	r2, r1
    402e:	605a      	str	r2, [r3, #4]
			module->transmitter_enabled = true;
    4030:	2101      	movs	r1, #1
    4032:	4a31      	ldr	r2, [pc, #196]	; (40f8 <main+0x1b4>)
    4034:	71d1      	strb	r1, [r2, #7]
	return (usart_hw->SYNCBUSY.reg);
    4036:	69da      	ldr	r2, [r3, #28]
	while (usart_is_syncing(module)) {
    4038:	2a00      	cmp	r2, #0
    403a:	d1fc      	bne.n	4036 <main+0xf2>
	return (usart_hw->SYNCBUSY.reg);
    403c:	69da      	ldr	r2, [r3, #28]
	while (usart_is_syncing(module)) {
    403e:	2a00      	cmp	r2, #0
    4040:	d1fc      	bne.n	403c <main+0xf8>
			usart_hw->CTRLB.reg |= SERCOM_USART_CTRLB_RXEN;
    4042:	6859      	ldr	r1, [r3, #4]
    4044:	2280      	movs	r2, #128	; 0x80
    4046:	0292      	lsls	r2, r2, #10
    4048:	430a      	orrs	r2, r1
    404a:	605a      	str	r2, [r3, #4]
			module->receiver_enabled = true;
    404c:	2101      	movs	r1, #1
    404e:	4a2a      	ldr	r2, [pc, #168]	; (40f8 <main+0x1b4>)
    4050:	7191      	strb	r1, [r2, #6]
	return (usart_hw->SYNCBUSY.reg);
    4052:	69da      	ldr	r2, [r3, #28]
	while (usart_is_syncing(module)) {
    4054:	2a00      	cmp	r2, #0
    4056:	d1fc      	bne.n	4052 <main+0x10e>
	((SercomUsart *)EDBG_CDC_MODULE)->INTENSET.reg = SERCOM_USART_INTFLAG_RXC;
    4058:	3204      	adds	r2, #4
    405a:	4b2d      	ldr	r3, [pc, #180]	; (4110 <main+0x1cc>)
    405c:	759a      	strb	r2, [r3, #22]
	configure_adc();
    405e:	4b35      	ldr	r3, [pc, #212]	; (4134 <main+0x1f0>)
    4060:	4798      	blx	r3
	configure_adc_callbacks();
    4062:	4b35      	ldr	r3, [pc, #212]	; (4138 <main+0x1f4>)
    4064:	4798      	blx	r3
	MAX5435M_write_byte(MAX5435_REGISTER_VREG,trimmer_value(analog_gain_2) );
    4066:	4d35      	ldr	r5, [pc, #212]	; (413c <main+0x1f8>)
    4068:	7828      	ldrb	r0, [r5, #0]
    406a:	4c35      	ldr	r4, [pc, #212]	; (4140 <main+0x1fc>)
    406c:	47a0      	blx	r4
    406e:	0001      	movs	r1, r0
    4070:	2011      	movs	r0, #17
    4072:	4b34      	ldr	r3, [pc, #208]	; (4144 <main+0x200>)
    4074:	4798      	blx	r3
	MAX5435L_write_byte(MAX5435_REGISTER_VREG,trimmer_value(analog_gain_2) );
    4076:	7828      	ldrb	r0, [r5, #0]
    4078:	47a0      	blx	r4
    407a:	0001      	movs	r1, r0
    407c:	2011      	movs	r0, #17
    407e:	4b32      	ldr	r3, [pc, #200]	; (4148 <main+0x204>)
    4080:	4798      	blx	r3
	lis302dl_write_configuration();
    4082:	4b32      	ldr	r3, [pc, #200]	; (414c <main+0x208>)
    4084:	4798      	blx	r3
	uint8_t lis302dl_who = lis302dl_read_byte(LIS302DL_REG_WHO_AM_I);
    4086:	200f      	movs	r0, #15
    4088:	4b31      	ldr	r3, [pc, #196]	; (4150 <main+0x20c>)
    408a:	4798      	blx	r3
	configure_opamp2(OPAMP_POT_MUX_8R_8R);
    408c:	2080      	movs	r0, #128	; 0x80
    408e:	01c0      	lsls	r0, r0, #7
    4090:	4b30      	ldr	r3, [pc, #192]	; (4154 <main+0x210>)
    4092:	4798      	blx	r3
	terminal_in_queue = xQueueCreate(64, sizeof(uint8_t));
    4094:	2200      	movs	r2, #0
    4096:	2101      	movs	r1, #1
    4098:	2040      	movs	r0, #64	; 0x40
    409a:	4b2f      	ldr	r3, [pc, #188]	; (4158 <main+0x214>)
    409c:	4798      	blx	r3
    409e:	4b2f      	ldr	r3, [pc, #188]	; (415c <main+0x218>)
    40a0:	6018      	str	r0, [r3, #0]
	xTaskCreate(main_task,
    40a2:	2400      	movs	r4, #0
    40a4:	9403      	str	r4, [sp, #12]
    40a6:	9402      	str	r4, [sp, #8]
    40a8:	9401      	str	r4, [sp, #4]
    40aa:	2302      	movs	r3, #2
    40ac:	9300      	str	r3, [sp, #0]
    40ae:	2300      	movs	r3, #0
    40b0:	2264      	movs	r2, #100	; 0x64
    40b2:	492b      	ldr	r1, [pc, #172]	; (4160 <main+0x21c>)
    40b4:	482b      	ldr	r0, [pc, #172]	; (4164 <main+0x220>)
    40b6:	4d2c      	ldr	r5, [pc, #176]	; (4168 <main+0x224>)
    40b8:	47a8      	blx	r5
	xTaskCreate(uart_task,
    40ba:	9403      	str	r4, [sp, #12]
    40bc:	9402      	str	r4, [sp, #8]
    40be:	9401      	str	r4, [sp, #4]
    40c0:	3401      	adds	r4, #1
    40c2:	9400      	str	r4, [sp, #0]
    40c4:	2300      	movs	r3, #0
    40c6:	2264      	movs	r2, #100	; 0x64
    40c8:	4928      	ldr	r1, [pc, #160]	; (416c <main+0x228>)
    40ca:	4829      	ldr	r0, [pc, #164]	; (4170 <main+0x22c>)
    40cc:	47a8      	blx	r5
	cpu_irq_enable();
    40ce:	4b04      	ldr	r3, [pc, #16]	; (40e0 <main+0x19c>)
    40d0:	701c      	strb	r4, [r3, #0]
    40d2:	f3bf 8f5f 	dmb	sy
  __ASM volatile ("cpsie i" : : : "memory");
    40d6:	b662      	cpsie	i
	vTaskStartScheduler();
    40d8:	4b26      	ldr	r3, [pc, #152]	; (4174 <main+0x230>)
    40da:	4798      	blx	r3
    40dc:	e7fe      	b.n	40dc <main+0x198>
    40de:	46c0      	nop			; (mov r8, r8)
    40e0:	20000034 	.word	0x20000034
    40e4:	000039c9 	.word	0x000039c9
    40e8:	00002d49 	.word	0x00002d49
    40ec:	00003e9d 	.word	0x00003e9d
    40f0:	00160002 	.word	0x00160002
    40f4:	00170002 	.word	0x00170002
    40f8:	20003e44 	.word	0x20003e44
    40fc:	20003d58 	.word	0x20003d58
    4100:	00003bc9 	.word	0x00003bc9
    4104:	20003d54 	.word	0x20003d54
    4108:	00003b9d 	.word	0x00003b9d
    410c:	20003d50 	.word	0x20003d50
    4110:	42000c00 	.word	0x42000c00
    4114:	00002629 	.word	0x00002629
    4118:	20000050 	.word	0x20000050
    411c:	0000634b 	.word	0x0000634b
    4120:	00000f3d 	.word	0x00000f3d
    4124:	00003b29 	.word	0x00003b29
    4128:	00002c7d 	.word	0x00002c7d
    412c:	00002cb9 	.word	0x00002cb9
    4130:	e000e100 	.word	0xe000e100
    4134:	00003c51 	.word	0x00003c51
    4138:	00003cc9 	.word	0x00003cc9
    413c:	20000036 	.word	0x20000036
    4140:	000001f1 	.word	0x000001f1
    4144:	000001f9 	.word	0x000001f9
    4148:	00000231 	.word	0x00000231
    414c:	00000115 	.word	0x00000115
    4150:	00000141 	.word	0x00000141
    4154:	00003be1 	.word	0x00003be1
    4158:	000014b9 	.word	0x000014b9
    415c:	20003d00 	.word	0x20003d00
    4160:	00006cf4 	.word	0x00006cf4
    4164:	00003d5d 	.word	0x00003d5d
    4168:	000019a1 	.word	0x000019a1
    416c:	00006cfc 	.word	0x00006cfc
    4170:	000043f1 	.word	0x000043f1
    4174:	00001b8d 	.word	0x00001b8d

00004178 <media>:
{
    4178:	b5f8      	push	{r3, r4, r5, r6, r7, lr}
	for(i=n_init_camp;i<length_buffer;i++)
    417a:	000b      	movs	r3, r1
    417c:	4c0b      	ldr	r4, [pc, #44]	; (41ac <media+0x34>)
    417e:	6021      	str	r1, [r4, #0]
    4180:	0016      	movs	r6, r2
    4182:	4291      	cmp	r1, r2
    4184:	d20f      	bcs.n	41a6 <media+0x2e>
    4186:	004c      	lsls	r4, r1, #1
    4188:	1904      	adds	r4, r0, r4
    418a:	2000      	movs	r0, #0
    418c:	4f07      	ldr	r7, [pc, #28]	; (41ac <media+0x34>)
		tmp += buffer[i];
    418e:	8825      	ldrh	r5, [r4, #0]
    4190:	1940      	adds	r0, r0, r5
	for(i=n_init_camp;i<length_buffer;i++)
    4192:	3301      	adds	r3, #1
    4194:	603b      	str	r3, [r7, #0]
    4196:	3402      	adds	r4, #2
    4198:	42b3      	cmp	r3, r6
    419a:	d3f8      	bcc.n	418e <media+0x16>
	return (uint16_t)(tmp/(length_buffer-n_init_camp));
    419c:	1a51      	subs	r1, r2, r1
    419e:	4b04      	ldr	r3, [pc, #16]	; (41b0 <media+0x38>)
    41a0:	4798      	blx	r3
    41a2:	b280      	uxth	r0, r0
}
    41a4:	bdf8      	pop	{r3, r4, r5, r6, r7, pc}
	long tmp = 0;
    41a6:	2000      	movs	r0, #0
    41a8:	e7f8      	b.n	419c <media+0x24>
    41aa:	46c0      	nop			; (mov r8, r8)
    41ac:	20003cf4 	.word	0x20003cf4
    41b0:	000047ed 	.word	0x000047ed

000041b4 <adc_complete_callback_ch1>:
{
    41b4:	b570      	push	{r4, r5, r6, lr}
    41b6:	b08c      	sub	sp, #48	; 0x30
	integrale_ch1 = media(adc_result_buffer_ch1,1,ADC_SAMPLES);
    41b8:	2220      	movs	r2, #32
    41ba:	2101      	movs	r1, #1
    41bc:	4832      	ldr	r0, [pc, #200]	; (4288 <adc_complete_callback_ch1+0xd4>)
    41be:	4b33      	ldr	r3, [pc, #204]	; (428c <adc_complete_callback_ch1+0xd8>)
    41c0:	4798      	blx	r3
    41c2:	4b33      	ldr	r3, [pc, #204]	; (4290 <adc_complete_callback_ch1+0xdc>)
    41c4:	8018      	strh	r0, [r3, #0]
	Adc *const adc_module = module_inst->hw;
    41c6:	4b33      	ldr	r3, [pc, #204]	; (4294 <adc_complete_callback_ch1+0xe0>)
    41c8:	681a      	ldr	r2, [r3, #0]
 * \param[in] vector  Interrupt vector to disable
 */
static inline void system_interrupt_disable(
		const enum system_interrupt_vector vector)
{
	NVIC->ICER[0] = (uint32_t)(1 << ((uint32_t)vector & 0x0000001f));
    41ca:	2080      	movs	r0, #128	; 0x80
    41cc:	03c0      	lsls	r0, r0, #15
    41ce:	2380      	movs	r3, #128	; 0x80
    41d0:	4931      	ldr	r1, [pc, #196]	; (4298 <adc_complete_callback_ch1+0xe4>)
    41d2:	50c8      	str	r0, [r1, r3]
    41d4:	8c13      	ldrh	r3, [r2, #32]
    41d6:	b29b      	uxth	r3, r3
	while (adc_is_syncing(module_inst)) {
    41d8:	2b00      	cmp	r3, #0
    41da:	d1fb      	bne.n	41d4 <adc_complete_callback_ch1+0x20>
	adc_module->INTENCLR.reg = ADC_INTENCLR_MASK;
    41dc:	3307      	adds	r3, #7
    41de:	7113      	strb	r3, [r2, #4]
	adc_module->INTFLAG.reg = ADC_INTFLAG_MASK;
    41e0:	7193      	strb	r3, [r2, #6]
	adc_module->CTRLA.reg &= ~ADC_CTRLA_ENABLE;
    41e2:	7813      	ldrb	r3, [r2, #0]
    41e4:	2102      	movs	r1, #2
    41e6:	438b      	bics	r3, r1
    41e8:	7013      	strb	r3, [r2, #0]
	Adc *const adc_module = module_inst->hw;
    41ea:	4b2a      	ldr	r3, [pc, #168]	; (4294 <adc_complete_callback_ch1+0xe0>)
    41ec:	681a      	ldr	r2, [r3, #0]
	if (adc_module->SYNCBUSY.reg) {
    41ee:	8c13      	ldrh	r3, [r2, #32]
    41f0:	b29b      	uxth	r3, r3
	while (adc_is_syncing(module_inst)) {
    41f2:	2b00      	cmp	r3, #0
    41f4:	d1fb      	bne.n	41ee <adc_complete_callback_ch1+0x3a>
	err = adc_disable(&adc_instance_ch1);
    41f6:	4e29      	ldr	r6, [pc, #164]	; (429c <adc_complete_callback_ch1+0xe8>)
    41f8:	7033      	strb	r3, [r6, #0]
	adc_get_config_defaults(&config_adc_ch2);
    41fa:	ac01      	add	r4, sp, #4
    41fc:	0020      	movs	r0, r4
    41fe:	4b28      	ldr	r3, [pc, #160]	; (42a0 <adc_complete_callback_ch1+0xec>)
    4200:	4798      	blx	r3
	config_adc_ch2.resolution = ADC_RESOLUTION_CUSTOM;
    4202:	2334      	movs	r3, #52	; 0x34
    4204:	70e3      	strb	r3, [r4, #3]
	config_adc_ch2.accumulate_samples = ADC_ACCUMULATE_SAMPLES_8;
    4206:	3b31      	subs	r3, #49	; 0x31
    4208:	7223      	strb	r3, [r4, #8]
	config_adc_ch2.divide_result = ADC_DIVIDE_RESULT_8;
    420a:	7263      	strb	r3, [r4, #9]
	config_adc_ch2.clock_prescaler = ADC_CLOCK_PRESCALER_DIV8;
    420c:	3b01      	subs	r3, #1
    420e:	70a3      	strb	r3, [r4, #2]
	config_adc_ch2.positive_input  = ADC_POSITIVE_INPUT_PIN6;
    4210:	3304      	adds	r3, #4
    4212:	7123      	strb	r3, [r4, #4]
	config_adc_ch2.negative_input  = ADC_NEGATIVE_INPUT_GND;//ADC_NEGATIVE_INPUT_PIN6;
    4214:	23c0      	movs	r3, #192	; 0xc0
    4216:	015b      	lsls	r3, r3, #5
    4218:	80e3      	strh	r3, [r4, #6]
	err = adc_init(&adc_instance_ch2, ADC, &config_adc_ch2);
    421a:	4d22      	ldr	r5, [pc, #136]	; (42a4 <adc_complete_callback_ch1+0xf0>)
    421c:	0022      	movs	r2, r4
    421e:	4922      	ldr	r1, [pc, #136]	; (42a8 <adc_complete_callback_ch1+0xf4>)
    4220:	0028      	movs	r0, r5
    4222:	4b22      	ldr	r3, [pc, #136]	; (42ac <adc_complete_callback_ch1+0xf8>)
    4224:	4798      	blx	r3
    4226:	7030      	strb	r0, [r6, #0]
	Adc *const adc_module = module_inst->hw;
    4228:	682a      	ldr	r2, [r5, #0]
    422a:	8c13      	ldrh	r3, [r2, #32]
    422c:	b29b      	uxth	r3, r3
	while (adc_is_syncing(module_inst)) {
    422e:	2b00      	cmp	r3, #0
    4230:	d1fb      	bne.n	422a <adc_complete_callback_ch1+0x76>
	NVIC->ISER[0] = (uint32_t)(1 << ((uint32_t)vector & 0x0000001f));
    4232:	2180      	movs	r1, #128	; 0x80
    4234:	03c9      	lsls	r1, r1, #15
    4236:	4b18      	ldr	r3, [pc, #96]	; (4298 <adc_complete_callback_ch1+0xe4>)
    4238:	6019      	str	r1, [r3, #0]
	adc_module->INTENCLR.reg = ADC_INTENCLR_MASK;
    423a:	2307      	movs	r3, #7
    423c:	7113      	strb	r3, [r2, #4]
	adc_module->INTFLAG.reg = ADC_INTFLAG_MASK;
    423e:	7193      	strb	r3, [r2, #6]
	adc_module->CTRLA.reg |= ADC_CTRLA_ENABLE;
    4240:	7813      	ldrb	r3, [r2, #0]
    4242:	2102      	movs	r1, #2
    4244:	430b      	orrs	r3, r1
    4246:	7013      	strb	r3, [r2, #0]
	Adc *const adc_module = module_inst->hw;
    4248:	4b16      	ldr	r3, [pc, #88]	; (42a4 <adc_complete_callback_ch1+0xf0>)
    424a:	681a      	ldr	r2, [r3, #0]
	if (adc_module->SYNCBUSY.reg) {
    424c:	8c13      	ldrh	r3, [r2, #32]
    424e:	b29b      	uxth	r3, r3
	while (adc_is_syncing(module_inst)) {
    4250:	2b00      	cmp	r3, #0
    4252:	d1fb      	bne.n	424c <adc_complete_callback_ch1+0x98>
	err = adc_enable(&adc_instance_ch2);
    4254:	2200      	movs	r2, #0
    4256:	4b11      	ldr	r3, [pc, #68]	; (429c <adc_complete_callback_ch1+0xe8>)
    4258:	701a      	strb	r2, [r3, #0]
	adc_register_callback(&adc_instance_ch2,
    425a:	4c12      	ldr	r4, [pc, #72]	; (42a4 <adc_complete_callback_ch1+0xf0>)
    425c:	4914      	ldr	r1, [pc, #80]	; (42b0 <adc_complete_callback_ch1+0xfc>)
    425e:	0020      	movs	r0, r4
    4260:	4b14      	ldr	r3, [pc, #80]	; (42b4 <adc_complete_callback_ch1+0x100>)
    4262:	4798      	blx	r3
    4264:	7ee3      	ldrb	r3, [r4, #27]
    4266:	2201      	movs	r2, #1
    4268:	4313      	orrs	r3, r2
    426a:	76e3      	strb	r3, [r4, #27]
	memset(adc_result_buffer_ch2,0,ADC_SAMPLES);
    426c:	4d12      	ldr	r5, [pc, #72]	; (42b8 <adc_complete_callback_ch1+0x104>)
    426e:	2220      	movs	r2, #32
    4270:	2100      	movs	r1, #0
    4272:	0028      	movs	r0, r5
    4274:	4b11      	ldr	r3, [pc, #68]	; (42bc <adc_complete_callback_ch1+0x108>)
    4276:	4798      	blx	r3
	adc_read_buffer_job(&adc_instance_ch2, adc_result_buffer_ch2, n_sample);
    4278:	4b11      	ldr	r3, [pc, #68]	; (42c0 <adc_complete_callback_ch1+0x10c>)
    427a:	881a      	ldrh	r2, [r3, #0]
    427c:	0029      	movs	r1, r5
    427e:	0020      	movs	r0, r4
    4280:	4b10      	ldr	r3, [pc, #64]	; (42c4 <adc_complete_callback_ch1+0x110>)
    4282:	4798      	blx	r3
}
    4284:	b00c      	add	sp, #48	; 0x30
    4286:	bd70      	pop	{r4, r5, r6, pc}
    4288:	20003e78 	.word	0x20003e78
    428c:	00004179 	.word	0x00004179
    4290:	20003cf8 	.word	0x20003cf8
    4294:	20003fcc 	.word	0x20003fcc
    4298:	e000e100 	.word	0xe000e100
    429c:	20003faa 	.word	0x20003faa
    42a0:	00002e75 	.word	0x00002e75
    42a4:	20003fac 	.word	0x20003fac
    42a8:	43000c00 	.word	0x43000c00
    42ac:	00002eb9 	.word	0x00002eb9
    42b0:	000042c9 	.word	0x000042c9
    42b4:	00003361 	.word	0x00003361
    42b8:	20003fec 	.word	0x20003fec
    42bc:	0000633b 	.word	0x0000633b
    42c0:	20000038 	.word	0x20000038
    42c4:	00003375 	.word	0x00003375

000042c8 <adc_complete_callback_ch2>:
{
    42c8:	b570      	push	{r4, r5, r6, lr}
    42ca:	b08c      	sub	sp, #48	; 0x30
	integrale_ch2 = media(adc_result_buffer_ch2,1,ADC_SAMPLES);
    42cc:	2220      	movs	r2, #32
    42ce:	2101      	movs	r1, #1
    42d0:	482c      	ldr	r0, [pc, #176]	; (4384 <adc_complete_callback_ch2+0xbc>)
    42d2:	4b2d      	ldr	r3, [pc, #180]	; (4388 <adc_complete_callback_ch2+0xc0>)
    42d4:	4798      	blx	r3
    42d6:	4b2d      	ldr	r3, [pc, #180]	; (438c <adc_complete_callback_ch2+0xc4>)
    42d8:	8018      	strh	r0, [r3, #0]
	Adc *const adc_module = module_inst->hw;
    42da:	4b2d      	ldr	r3, [pc, #180]	; (4390 <adc_complete_callback_ch2+0xc8>)
    42dc:	681a      	ldr	r2, [r3, #0]
	NVIC->ICER[0] = (uint32_t)(1 << ((uint32_t)vector & 0x0000001f));
    42de:	2080      	movs	r0, #128	; 0x80
    42e0:	03c0      	lsls	r0, r0, #15
    42e2:	2380      	movs	r3, #128	; 0x80
    42e4:	492b      	ldr	r1, [pc, #172]	; (4394 <adc_complete_callback_ch2+0xcc>)
    42e6:	50c8      	str	r0, [r1, r3]
    42e8:	8c13      	ldrh	r3, [r2, #32]
    42ea:	b29b      	uxth	r3, r3
	while (adc_is_syncing(module_inst)) {
    42ec:	2b00      	cmp	r3, #0
    42ee:	d1fb      	bne.n	42e8 <adc_complete_callback_ch2+0x20>
	adc_module->INTENCLR.reg = ADC_INTENCLR_MASK;
    42f0:	3307      	adds	r3, #7
    42f2:	7113      	strb	r3, [r2, #4]
	adc_module->INTFLAG.reg = ADC_INTFLAG_MASK;
    42f4:	7193      	strb	r3, [r2, #6]
	adc_module->CTRLA.reg &= ~ADC_CTRLA_ENABLE;
    42f6:	7813      	ldrb	r3, [r2, #0]
    42f8:	2102      	movs	r1, #2
    42fa:	438b      	bics	r3, r1
    42fc:	7013      	strb	r3, [r2, #0]
	Adc *const adc_module = module_inst->hw;
    42fe:	4b24      	ldr	r3, [pc, #144]	; (4390 <adc_complete_callback_ch2+0xc8>)
    4300:	681a      	ldr	r2, [r3, #0]
	if (adc_module->SYNCBUSY.reg) {
    4302:	8c13      	ldrh	r3, [r2, #32]
    4304:	b29b      	uxth	r3, r3
	while (adc_is_syncing(module_inst)) {
    4306:	2b00      	cmp	r3, #0
    4308:	d1fb      	bne.n	4302 <adc_complete_callback_ch2+0x3a>
	err = adc_disable(&adc_instance_ch2);
    430a:	4e23      	ldr	r6, [pc, #140]	; (4398 <adc_complete_callback_ch2+0xd0>)
    430c:	7033      	strb	r3, [r6, #0]
	adc_get_config_defaults(&config_adc_ch1);
    430e:	ac01      	add	r4, sp, #4
    4310:	0020      	movs	r0, r4
    4312:	4b22      	ldr	r3, [pc, #136]	; (439c <adc_complete_callback_ch2+0xd4>)
    4314:	4798      	blx	r3
	config_adc_ch1.resolution = ADC_RESOLUTION_CUSTOM;
    4316:	2334      	movs	r3, #52	; 0x34
    4318:	70e3      	strb	r3, [r4, #3]
	config_adc_ch1.accumulate_samples = ADC_ACCUMULATE_SAMPLES_8;
    431a:	3b31      	subs	r3, #49	; 0x31
    431c:	7223      	strb	r3, [r4, #8]
	config_adc_ch1.divide_result = ADC_DIVIDE_RESULT_8;
    431e:	7263      	strb	r3, [r4, #9]
	config_adc_ch1.clock_prescaler = ADC_CLOCK_PRESCALER_DIV8;
    4320:	3b01      	subs	r3, #1
    4322:	70a3      	strb	r3, [r4, #2]
	config_adc_ch1.positive_input  = ADC_POSITIVE_INPUT_OPAMP2;
    4324:	331d      	adds	r3, #29
    4326:	7123      	strb	r3, [r4, #4]
	config_adc_ch1.negative_input  = ADC_NEGATIVE_INPUT_GND;//ADC_NEGATIVE_INPUT_PIN6;
    4328:	23c0      	movs	r3, #192	; 0xc0
    432a:	015b      	lsls	r3, r3, #5
    432c:	80e3      	strh	r3, [r4, #6]
	err = adc_init(&adc_instance_ch1, ADC, &config_adc_ch1);
    432e:	4d1c      	ldr	r5, [pc, #112]	; (43a0 <adc_complete_callback_ch2+0xd8>)
    4330:	0022      	movs	r2, r4
    4332:	491c      	ldr	r1, [pc, #112]	; (43a4 <adc_complete_callback_ch2+0xdc>)
    4334:	0028      	movs	r0, r5
    4336:	4b1c      	ldr	r3, [pc, #112]	; (43a8 <adc_complete_callback_ch2+0xe0>)
    4338:	4798      	blx	r3
    433a:	7030      	strb	r0, [r6, #0]
	Adc *const adc_module = module_inst->hw;
    433c:	682a      	ldr	r2, [r5, #0]
    433e:	8c13      	ldrh	r3, [r2, #32]
    4340:	b29b      	uxth	r3, r3
	while (adc_is_syncing(module_inst)) {
    4342:	2b00      	cmp	r3, #0
    4344:	d1fb      	bne.n	433e <adc_complete_callback_ch2+0x76>
	NVIC->ISER[0] = (uint32_t)(1 << ((uint32_t)vector & 0x0000001f));
    4346:	2180      	movs	r1, #128	; 0x80
    4348:	03c9      	lsls	r1, r1, #15
    434a:	4b12      	ldr	r3, [pc, #72]	; (4394 <adc_complete_callback_ch2+0xcc>)
    434c:	6019      	str	r1, [r3, #0]
	adc_module->INTENCLR.reg = ADC_INTENCLR_MASK;
    434e:	2307      	movs	r3, #7
    4350:	7113      	strb	r3, [r2, #4]
	adc_module->INTFLAG.reg = ADC_INTFLAG_MASK;
    4352:	7193      	strb	r3, [r2, #6]
	adc_module->CTRLA.reg |= ADC_CTRLA_ENABLE;
    4354:	7813      	ldrb	r3, [r2, #0]
    4356:	2102      	movs	r1, #2
    4358:	430b      	orrs	r3, r1
    435a:	7013      	strb	r3, [r2, #0]
	Adc *const adc_module = module_inst->hw;
    435c:	4b10      	ldr	r3, [pc, #64]	; (43a0 <adc_complete_callback_ch2+0xd8>)
    435e:	681a      	ldr	r2, [r3, #0]
	if (adc_module->SYNCBUSY.reg) {
    4360:	8c13      	ldrh	r3, [r2, #32]
    4362:	b29b      	uxth	r3, r3
	while (adc_is_syncing(module_inst)) {
    4364:	2b00      	cmp	r3, #0
    4366:	d1fb      	bne.n	4360 <adc_complete_callback_ch2+0x98>
	err = adc_enable(&adc_instance_ch1);
    4368:	2200      	movs	r2, #0
    436a:	4b0b      	ldr	r3, [pc, #44]	; (4398 <adc_complete_callback_ch2+0xd0>)
    436c:	701a      	strb	r2, [r3, #0]
	adc_register_callback(&adc_instance_ch1,
    436e:	4c0c      	ldr	r4, [pc, #48]	; (43a0 <adc_complete_callback_ch2+0xd8>)
    4370:	490e      	ldr	r1, [pc, #56]	; (43ac <adc_complete_callback_ch2+0xe4>)
    4372:	0020      	movs	r0, r4
    4374:	4b0e      	ldr	r3, [pc, #56]	; (43b0 <adc_complete_callback_ch2+0xe8>)
    4376:	4798      	blx	r3
    4378:	7ee3      	ldrb	r3, [r4, #27]
    437a:	2201      	movs	r2, #1
    437c:	4313      	orrs	r3, r2
    437e:	76e3      	strb	r3, [r4, #27]
}
    4380:	b00c      	add	sp, #48	; 0x30
    4382:	bd70      	pop	{r4, r5, r6, pc}
    4384:	20003fec 	.word	0x20003fec
    4388:	00004179 	.word	0x00004179
    438c:	20003cfa 	.word	0x20003cfa
    4390:	20003fac 	.word	0x20003fac
    4394:	e000e100 	.word	0xe000e100
    4398:	20003faa 	.word	0x20003faa
    439c:	00002e75 	.word	0x00002e75
    43a0:	20003fcc 	.word	0x20003fcc
    43a4:	43000c00 	.word	0x43000c00
    43a8:	00002eb9 	.word	0x00002eb9
    43ac:	000041b5 	.word	0x000041b5
    43b0:	00003361 	.word	0x00003361

000043b4 <save_configuration_param>:


void save_configuration_param(void)
{
    43b4:	b510      	push	{r4, lr}
		//sprintf(piezoboard_parameters.STX_EEPROM,"%s",STX_EEPROM_STR);
		//sprintf(piezoboard_parameters.ETX_EEPROM,"%s",ETX_EEPROM_STR);
		
		piezoboard_parameters.STX_EEPROM = STX_EEPROM_STR;
    43b6:	4a09      	ldr	r2, [pc, #36]	; (43dc <save_configuration_param+0x28>)
    43b8:	2340      	movs	r3, #64	; 0x40
    43ba:	7013      	strb	r3, [r2, #0]
		piezoboard_parameters.ETX_EEPROM = ETX_EEPROM_STR;
    43bc:	3b1d      	subs	r3, #29
    43be:	71d3      	strb	r3, [r2, #7]
		
		piezoboard_parameters.analog_gain_preset = analog_gain_1;
    43c0:	4b07      	ldr	r3, [pc, #28]	; (43e0 <save_configuration_param+0x2c>)
    43c2:	781b      	ldrb	r3, [r3, #0]
    43c4:	7053      	strb	r3, [r2, #1]
		piezoboard_parameters.ncamp_preset = n_sample;
    43c6:	4b07      	ldr	r3, [pc, #28]	; (43e4 <save_configuration_param+0x30>)
    43c8:	881b      	ldrh	r3, [r3, #0]
    43ca:	8093      	strh	r3, [r2, #4]
		piezoboard_parameters.threshold_preset = threshold_value;
    43cc:	4b06      	ldr	r3, [pc, #24]	; (43e8 <save_configuration_param+0x34>)
    43ce:	881b      	ldrh	r3, [r3, #0]
    43d0:	8053      	strh	r3, [r2, #2]
		
		////crc8(&piezoboard_parameters.CRC,piezoboard_parameters.analog_gain_preset);
		////crc8(&piezoboard_parameters.CRC,piezoboard_parameters.ncamp_preset);
		////crc8(&piezoboard_parameters.CRC,piezoboard_parameters.threshold_preset);
		
		at24cxx_write_continuous(0,sizeof(piezoboard_parameters),(uint8_t*)&piezoboard_parameters);
    43d2:	2108      	movs	r1, #8
    43d4:	2000      	movs	r0, #0
    43d6:	4b05      	ldr	r3, [pc, #20]	; (43ec <save_configuration_param+0x38>)
    43d8:	4798      	blx	r3
}
    43da:	bd10      	pop	{r4, pc}
    43dc:	20004030 	.word	0x20004030
    43e0:	20000035 	.word	0x20000035
    43e4:	20000038 	.word	0x20000038
    43e8:	2000004c 	.word	0x2000004c
    43ec:	00003ac9 	.word	0x00003ac9

000043f0 <uart_task>:
{
    43f0:	b5f0      	push	{r4, r5, r6, r7, lr}
    43f2:	46c6      	mov	lr, r8
    43f4:	b500      	push	{lr}
    43f6:	b084      	sub	sp, #16
	 memset(buffer_temp,0,sizeof(packet));
    43f8:	220c      	movs	r2, #12
    43fa:	2100      	movs	r1, #0
    43fc:	4668      	mov	r0, sp
    43fe:	4b99      	ldr	r3, [pc, #612]	; (4664 <uart_task+0x274>)
    4400:	4798      	blx	r3
	uint32_t buffer_temp_index = 0;
    4402:	2400      	movs	r4, #0
		while (xQueueReceive(terminal_in_queue, current_char_ptr, 0)) 
    4404:	4e98      	ldr	r6, [pc, #608]	; (4668 <uart_task+0x278>)
    4406:	4d99      	ldr	r5, [pc, #612]	; (466c <uart_task+0x27c>)
		vTaskDelay(UART_TASK_DELAY);
    4408:	4f99      	ldr	r7, [pc, #612]	; (4670 <uart_task+0x280>)
    440a:	e023      	b.n	4454 <uart_task+0x64>
							if(pkt_temp_ptr->sub_cmd == sb_cmd_array[ping])
    440c:	466b      	mov	r3, sp
    440e:	789b      	ldrb	r3, [r3, #2]
    4410:	4a98      	ldr	r2, [pc, #608]	; (4674 <uart_task+0x284>)
    4412:	7812      	ldrb	r2, [r2, #0]
    4414:	429a      	cmp	r2, r3
    4416:	d07a      	beq.n	450e <uart_task+0x11e>
							else if(pkt_temp_ptr->sub_cmd == sb_cmd_array[read_sensor])
    4418:	4a96      	ldr	r2, [pc, #600]	; (4674 <uart_task+0x284>)
    441a:	7852      	ldrb	r2, [r2, #1]
    441c:	429a      	cmp	r2, r3
    441e:	d100      	bne.n	4422 <uart_task+0x32>
    4420:	e082      	b.n	4528 <uart_task+0x138>
							else if(pkt_temp_ptr->sub_cmd == sb_cmd_array[get_ncamp])
    4422:	4a94      	ldr	r2, [pc, #592]	; (4674 <uart_task+0x284>)
    4424:	7952      	ldrb	r2, [r2, #5]
    4426:	429a      	cmp	r2, r3
    4428:	d100      	bne.n	442c <uart_task+0x3c>
    442a:	e0a8      	b.n	457e <uart_task+0x18e>
							else if(pkt_temp_ptr->sub_cmd == sb_cmd_array[get_threshold])
    442c:	4a91      	ldr	r2, [pc, #580]	; (4674 <uart_task+0x284>)
    442e:	7992      	ldrb	r2, [r2, #6]
    4430:	429a      	cmp	r2, r3
    4432:	d100      	bne.n	4436 <uart_task+0x46>
    4434:	e0b1      	b.n	459a <uart_task+0x1aa>
							else if(pkt_temp_ptr->sub_cmd == sb_cmd_array[get_analog_gain_1])
    4436:	4a8f      	ldr	r2, [pc, #572]	; (4674 <uart_task+0x284>)
    4438:	79d2      	ldrb	r2, [r2, #7]
    443a:	429a      	cmp	r2, r3
    443c:	d100      	bne.n	4440 <uart_task+0x50>
    443e:	e0ba      	b.n	45b6 <uart_task+0x1c6>
					memset(buffer_temp,0,sizeof(packet));
    4440:	220c      	movs	r2, #12
    4442:	2100      	movs	r1, #0
    4444:	4668      	mov	r0, sp
    4446:	4b87      	ldr	r3, [pc, #540]	; (4664 <uart_task+0x274>)
    4448:	4798      	blx	r3
					buffer_temp_index = 0;
    444a:	2400      	movs	r4, #0
			*current_char_ptr = '\0';
    444c:	2200      	movs	r2, #0
    444e:	230f      	movs	r3, #15
    4450:	446b      	add	r3, sp
    4452:	701a      	strb	r2, [r3, #0]
		while (xQueueReceive(terminal_in_queue, current_char_ptr, 0)) 
    4454:	2300      	movs	r3, #0
    4456:	2200      	movs	r2, #0
    4458:	210f      	movs	r1, #15
    445a:	4469      	add	r1, sp
    445c:	6830      	ldr	r0, [r6, #0]
    445e:	47a8      	blx	r5
    4460:	2800      	cmp	r0, #0
    4462:	d100      	bne.n	4466 <uart_task+0x76>
    4464:	e0fb      	b.n	465e <uart_task+0x26e>
			r = *current_char_ptr;
    4466:	230f      	movs	r3, #15
    4468:	446b      	add	r3, sp
    446a:	781b      	ldrb	r3, [r3, #0]
			switch(r)
    446c:	2b40      	cmp	r3, #64	; 0x40
    446e:	d000      	beq.n	4472 <uart_task+0x82>
    4470:	e0ee      	b.n	4650 <uart_task+0x260>
					buffer_temp[buffer_temp_index] = r;
    4472:	466a      	mov	r2, sp
    4474:	5513      	strb	r3, [r2, r4]
					pkt = *pkt_temp_ptr;
    4476:	220c      	movs	r2, #12
    4478:	4669      	mov	r1, sp
    447a:	487f      	ldr	r0, [pc, #508]	; (4678 <uart_task+0x288>)
    447c:	4b7f      	ldr	r3, [pc, #508]	; (467c <uart_task+0x28c>)
    447e:	4798      	blx	r3
					if ((pkt_temp_ptr->STX == STX_STRING) & (pkt_temp_ptr->ETX == ETX_STRING))
    4480:	466b      	mov	r3, sp
    4482:	781b      	ldrb	r3, [r3, #0]
    4484:	2b23      	cmp	r3, #35	; 0x23
    4486:	d1db      	bne.n	4440 <uart_task+0x50>
    4488:	466b      	mov	r3, sp
    448a:	7adb      	ldrb	r3, [r3, #11]
    448c:	2b40      	cmp	r3, #64	; 0x40
    448e:	d1d7      	bne.n	4440 <uart_task+0x50>
						switch (pkt_temp_ptr->cmd)
    4490:	466b      	mov	r3, sp
    4492:	785b      	ldrb	r3, [r3, #1]
    4494:	2b52      	cmp	r3, #82	; 0x52
    4496:	d0b9      	beq.n	440c <uart_task+0x1c>
    4498:	2b57      	cmp	r3, #87	; 0x57
    449a:	d1d1      	bne.n	4440 <uart_task+0x50>
							if(pkt_temp_ptr->sub_cmd == sb_cmd_array[set_ncamp])
    449c:	466b      	mov	r3, sp
    449e:	789b      	ldrb	r3, [r3, #2]
    44a0:	4a74      	ldr	r2, [pc, #464]	; (4674 <uart_task+0x284>)
    44a2:	7892      	ldrb	r2, [r2, #2]
    44a4:	429a      	cmp	r2, r3
    44a6:	d100      	bne.n	44aa <uart_task+0xba>
    44a8:	e091      	b.n	45ce <uart_task+0x1de>
							else if(pkt_temp_ptr->sub_cmd == sb_cmd_array[set_threshold])
    44aa:	4a72      	ldr	r2, [pc, #456]	; (4674 <uart_task+0x284>)
    44ac:	78d2      	ldrb	r2, [r2, #3]
    44ae:	429a      	cmp	r2, r3
    44b0:	d100      	bne.n	44b4 <uart_task+0xc4>
    44b2:	e09e      	b.n	45f2 <uart_task+0x202>
							else if(pkt_temp_ptr->sub_cmd == sb_cmd_array[set_analog_gain_1])
    44b4:	4a6f      	ldr	r2, [pc, #444]	; (4674 <uart_task+0x284>)
    44b6:	7912      	ldrb	r2, [r2, #4]
    44b8:	429a      	cmp	r2, r3
    44ba:	d100      	bne.n	44be <uart_task+0xce>
    44bc:	e0a9      	b.n	4612 <uart_task+0x222>
							else if (pkt_temp_ptr->sub_cmd == sb_cmd_array[save_param])
    44be:	4a6d      	ldr	r2, [pc, #436]	; (4674 <uart_task+0x284>)
    44c0:	7a12      	ldrb	r2, [r2, #8]
    44c2:	429a      	cmp	r2, r3
    44c4:	d100      	bne.n	44c8 <uart_task+0xd8>
    44c6:	e0b8      	b.n	463a <uart_task+0x24a>
							else if(pkt_temp_ptr->sub_cmd == sb_cmd_array[set_analog_gain_2])
    44c8:	4a6a      	ldr	r2, [pc, #424]	; (4674 <uart_task+0x284>)
    44ca:	7ad2      	ldrb	r2, [r2, #11]
    44cc:	429a      	cmp	r2, r3
    44ce:	d1b7      	bne.n	4440 <uart_task+0x50>
								uint8_t temp = pkt_temp_ptr->payload[0];
    44d0:	466b      	mov	r3, sp
    44d2:	78d8      	ldrb	r0, [r3, #3]
								if(analog_gain_2 != temp)
    44d4:	4b6a      	ldr	r3, [pc, #424]	; (4680 <uart_task+0x290>)
    44d6:	781b      	ldrb	r3, [r3, #0]
    44d8:	4283      	cmp	r3, r0
    44da:	d00f      	beq.n	44fc <uart_task+0x10c>
									analog_gain_2 = temp;
    44dc:	4b68      	ldr	r3, [pc, #416]	; (4680 <uart_task+0x290>)
    44de:	4698      	mov	r8, r3
    44e0:	7018      	strb	r0, [r3, #0]
									MAX5435M_write_byte(MAX5435_REGISTER_VREG,trimmer_value(analog_gain_2) );
    44e2:	4c68      	ldr	r4, [pc, #416]	; (4684 <uart_task+0x294>)
    44e4:	47a0      	blx	r4
    44e6:	0001      	movs	r1, r0
    44e8:	2011      	movs	r0, #17
    44ea:	4b67      	ldr	r3, [pc, #412]	; (4688 <uart_task+0x298>)
    44ec:	4798      	blx	r3
									MAX5435L_write_byte(MAX5435_REGISTER_VREG,trimmer_value(analog_gain_2) );
    44ee:	4643      	mov	r3, r8
    44f0:	7818      	ldrb	r0, [r3, #0]
    44f2:	47a0      	blx	r4
    44f4:	0001      	movs	r1, r0
    44f6:	2011      	movs	r0, #17
    44f8:	4b64      	ldr	r3, [pc, #400]	; (468c <uart_task+0x29c>)
    44fa:	4798      	blx	r3
								usart_write_buffer_wait(&usart_instance,(uint8_t *)&pkt,sizeof(packet));
    44fc:	220c      	movs	r2, #12
    44fe:	495e      	ldr	r1, [pc, #376]	; (4678 <uart_task+0x288>)
    4500:	4863      	ldr	r0, [pc, #396]	; (4690 <uart_task+0x2a0>)
    4502:	4b64      	ldr	r3, [pc, #400]	; (4694 <uart_task+0x2a4>)
    4504:	4798      	blx	r3
								delay_ms(25);
    4506:	2019      	movs	r0, #25
    4508:	4b63      	ldr	r3, [pc, #396]	; (4698 <uart_task+0x2a8>)
    450a:	4798      	blx	r3
    450c:	e798      	b.n	4440 <uart_task+0x50>
									pkt.payload[0]=0xAA;
    450e:	495a      	ldr	r1, [pc, #360]	; (4678 <uart_task+0x288>)
    4510:	23aa      	movs	r3, #170	; 0xaa
    4512:	70cb      	strb	r3, [r1, #3]
									pkt.payload[1]=0xBB;
    4514:	3311      	adds	r3, #17
    4516:	710b      	strb	r3, [r1, #4]
									usart_write_buffer_wait(&usart_instance,(uint8_t *)&pkt,sizeof(packet));
    4518:	220c      	movs	r2, #12
    451a:	485d      	ldr	r0, [pc, #372]	; (4690 <uart_task+0x2a0>)
    451c:	4b5d      	ldr	r3, [pc, #372]	; (4694 <uart_task+0x2a4>)
    451e:	4798      	blx	r3
									delay_ms(25);
    4520:	2019      	movs	r0, #25
    4522:	4b5d      	ldr	r3, [pc, #372]	; (4698 <uart_task+0x2a8>)
    4524:	4798      	blx	r3
    4526:	e78b      	b.n	4440 <uart_task+0x50>
									memset(adc_result_buffer_ch1,0,ADC_SAMPLES);
    4528:	4c5c      	ldr	r4, [pc, #368]	; (469c <uart_task+0x2ac>)
    452a:	2220      	movs	r2, #32
    452c:	2100      	movs	r1, #0
    452e:	0020      	movs	r0, r4
    4530:	4b4c      	ldr	r3, [pc, #304]	; (4664 <uart_task+0x274>)
    4532:	4798      	blx	r3
									adc_read_buffer_job(&adc_instance_ch1, adc_result_buffer_ch1, n_sample);
    4534:	4b5a      	ldr	r3, [pc, #360]	; (46a0 <uart_task+0x2b0>)
    4536:	881a      	ldrh	r2, [r3, #0]
    4538:	0021      	movs	r1, r4
    453a:	485a      	ldr	r0, [pc, #360]	; (46a4 <uart_task+0x2b4>)
    453c:	4b5a      	ldr	r3, [pc, #360]	; (46a8 <uart_task+0x2b8>)
    453e:	4798      	blx	r3
									pkt.payload[0]=(uint8_t)integrale_ch1;
    4540:	4b5a      	ldr	r3, [pc, #360]	; (46ac <uart_task+0x2bc>)
    4542:	881b      	ldrh	r3, [r3, #0]
    4544:	494c      	ldr	r1, [pc, #304]	; (4678 <uart_task+0x288>)
    4546:	70cb      	strb	r3, [r1, #3]
									pkt.payload[1]=(uint8_t)(integrale_ch1>>8);									
    4548:	0a1b      	lsrs	r3, r3, #8
    454a:	710b      	strb	r3, [r1, #4]
									pkt.payload[2]=(uint8_t)integrale_ch2;
    454c:	4b58      	ldr	r3, [pc, #352]	; (46b0 <uart_task+0x2c0>)
    454e:	881b      	ldrh	r3, [r3, #0]
    4550:	714b      	strb	r3, [r1, #5]
									pkt.payload[3]=(uint8_t)(integrale_ch2>>8);
    4552:	0a1b      	lsrs	r3, r3, #8
    4554:	718b      	strb	r3, [r1, #6]
									pkt.payload[4]=(uint8_t)(alarm_detected);
    4556:	4b57      	ldr	r3, [pc, #348]	; (46b4 <uart_task+0x2c4>)
    4558:	781b      	ldrb	r3, [r3, #0]
    455a:	71cb      	strb	r3, [r1, #7]
									pkt.payload[5]=(uint8_t)(acc_x);
    455c:	4b56      	ldr	r3, [pc, #344]	; (46b8 <uart_task+0x2c8>)
    455e:	781b      	ldrb	r3, [r3, #0]
    4560:	720b      	strb	r3, [r1, #8]
									pkt.payload[6]=(uint8_t)(acc_y);
    4562:	4b56      	ldr	r3, [pc, #344]	; (46bc <uart_task+0x2cc>)
    4564:	781b      	ldrb	r3, [r3, #0]
    4566:	724b      	strb	r3, [r1, #9]
									pkt.payload[7]=(uint8_t)(acc_z);
    4568:	4b55      	ldr	r3, [pc, #340]	; (46c0 <uart_task+0x2d0>)
    456a:	781b      	ldrb	r3, [r3, #0]
    456c:	728b      	strb	r3, [r1, #10]
									usart_write_buffer_wait(&usart_instance,(uint8_t *)&pkt,sizeof(packet));
    456e:	220c      	movs	r2, #12
    4570:	4847      	ldr	r0, [pc, #284]	; (4690 <uart_task+0x2a0>)
    4572:	4b48      	ldr	r3, [pc, #288]	; (4694 <uart_task+0x2a4>)
    4574:	4798      	blx	r3
									delay_ms(25);
    4576:	2019      	movs	r0, #25
    4578:	4b47      	ldr	r3, [pc, #284]	; (4698 <uart_task+0x2a8>)
    457a:	4798      	blx	r3
    457c:	e760      	b.n	4440 <uart_task+0x50>
								pkt.payload[0]=(uint8_t)n_sample;
    457e:	4b48      	ldr	r3, [pc, #288]	; (46a0 <uart_task+0x2b0>)
    4580:	881b      	ldrh	r3, [r3, #0]
    4582:	493d      	ldr	r1, [pc, #244]	; (4678 <uart_task+0x288>)
    4584:	70cb      	strb	r3, [r1, #3]
								pkt.payload[1]=(uint8_t)(n_sample>>8);
    4586:	0a1b      	lsrs	r3, r3, #8
    4588:	710b      	strb	r3, [r1, #4]
								usart_write_buffer_wait(&usart_instance,(uint8_t *)&pkt,sizeof(packet));
    458a:	220c      	movs	r2, #12
    458c:	4840      	ldr	r0, [pc, #256]	; (4690 <uart_task+0x2a0>)
    458e:	4b41      	ldr	r3, [pc, #260]	; (4694 <uart_task+0x2a4>)
    4590:	4798      	blx	r3
								delay_ms(25);
    4592:	2019      	movs	r0, #25
    4594:	4b40      	ldr	r3, [pc, #256]	; (4698 <uart_task+0x2a8>)
    4596:	4798      	blx	r3
    4598:	e752      	b.n	4440 <uart_task+0x50>
								pkt.payload[0]=(uint8_t)threshold_value;
    459a:	4b4a      	ldr	r3, [pc, #296]	; (46c4 <uart_task+0x2d4>)
    459c:	881b      	ldrh	r3, [r3, #0]
    459e:	4936      	ldr	r1, [pc, #216]	; (4678 <uart_task+0x288>)
    45a0:	70cb      	strb	r3, [r1, #3]
								pkt.payload[1]=(uint8_t)(threshold_value>>8);
    45a2:	0a1b      	lsrs	r3, r3, #8
    45a4:	710b      	strb	r3, [r1, #4]
								usart_write_buffer_wait(&usart_instance,(uint8_t *)&pkt,sizeof(packet));
    45a6:	220c      	movs	r2, #12
    45a8:	4839      	ldr	r0, [pc, #228]	; (4690 <uart_task+0x2a0>)
    45aa:	4b3a      	ldr	r3, [pc, #232]	; (4694 <uart_task+0x2a4>)
    45ac:	4798      	blx	r3
								delay_ms(25);
    45ae:	2019      	movs	r0, #25
    45b0:	4b39      	ldr	r3, [pc, #228]	; (4698 <uart_task+0x2a8>)
    45b2:	4798      	blx	r3
    45b4:	e744      	b.n	4440 <uart_task+0x50>
								pkt.payload[0]=(uint8_t)analog_gain_1;
    45b6:	4930      	ldr	r1, [pc, #192]	; (4678 <uart_task+0x288>)
    45b8:	4b43      	ldr	r3, [pc, #268]	; (46c8 <uart_task+0x2d8>)
    45ba:	781b      	ldrb	r3, [r3, #0]
    45bc:	70cb      	strb	r3, [r1, #3]
								usart_write_buffer_wait(&usart_instance,(uint8_t *)&pkt,sizeof(packet));
    45be:	220c      	movs	r2, #12
    45c0:	4833      	ldr	r0, [pc, #204]	; (4690 <uart_task+0x2a0>)
    45c2:	4b34      	ldr	r3, [pc, #208]	; (4694 <uart_task+0x2a4>)
    45c4:	4798      	blx	r3
								delay_ms(25);
    45c6:	2019      	movs	r0, #25
    45c8:	4b33      	ldr	r3, [pc, #204]	; (4698 <uart_task+0x2a8>)
    45ca:	4798      	blx	r3
    45cc:	e738      	b.n	4440 <uart_task+0x50>
								value_rx = (uint16_t)(pkt_temp_ptr->payload[1] << 8 | (pkt_temp_ptr->payload[0]));
    45ce:	466b      	mov	r3, sp
    45d0:	791a      	ldrb	r2, [r3, #4]
    45d2:	0212      	lsls	r2, r2, #8
    45d4:	78db      	ldrb	r3, [r3, #3]
    45d6:	4313      	orrs	r3, r2
    45d8:	4a3c      	ldr	r2, [pc, #240]	; (46cc <uart_task+0x2dc>)
    45da:	8013      	strh	r3, [r2, #0]
								n_sample = value_rx;
    45dc:	4a30      	ldr	r2, [pc, #192]	; (46a0 <uart_task+0x2b0>)
    45de:	8013      	strh	r3, [r2, #0]
								usart_write_buffer_wait(&usart_instance,(uint8_t *)&pkt,sizeof(packet));
    45e0:	220c      	movs	r2, #12
    45e2:	4925      	ldr	r1, [pc, #148]	; (4678 <uart_task+0x288>)
    45e4:	482a      	ldr	r0, [pc, #168]	; (4690 <uart_task+0x2a0>)
    45e6:	4b2b      	ldr	r3, [pc, #172]	; (4694 <uart_task+0x2a4>)
    45e8:	4798      	blx	r3
								delay_ms(25);
    45ea:	2019      	movs	r0, #25
    45ec:	4b2a      	ldr	r3, [pc, #168]	; (4698 <uart_task+0x2a8>)
    45ee:	4798      	blx	r3
    45f0:	e726      	b.n	4440 <uart_task+0x50>
								threshold_value = pkt_temp_ptr->payload[1] << 8 | (pkt_temp_ptr->payload[0]);
    45f2:	466b      	mov	r3, sp
    45f4:	791a      	ldrb	r2, [r3, #4]
    45f6:	0212      	lsls	r2, r2, #8
    45f8:	78db      	ldrb	r3, [r3, #3]
    45fa:	4313      	orrs	r3, r2
    45fc:	4a31      	ldr	r2, [pc, #196]	; (46c4 <uart_task+0x2d4>)
    45fe:	8013      	strh	r3, [r2, #0]
								usart_write_buffer_wait(&usart_instance,(uint8_t *)&pkt,sizeof(packet));
    4600:	220c      	movs	r2, #12
    4602:	491d      	ldr	r1, [pc, #116]	; (4678 <uart_task+0x288>)
    4604:	4822      	ldr	r0, [pc, #136]	; (4690 <uart_task+0x2a0>)
    4606:	4b23      	ldr	r3, [pc, #140]	; (4694 <uart_task+0x2a4>)
    4608:	4798      	blx	r3
								delay_ms(25);
    460a:	2019      	movs	r0, #25
    460c:	4b22      	ldr	r3, [pc, #136]	; (4698 <uart_task+0x2a8>)
    460e:	4798      	blx	r3
    4610:	e716      	b.n	4440 <uart_task+0x50>
								uint8_t temp = pkt_temp_ptr->payload[0];
    4612:	466b      	mov	r3, sp
    4614:	78db      	ldrb	r3, [r3, #3]
								if(analog_gain_1 != temp)
    4616:	4a2c      	ldr	r2, [pc, #176]	; (46c8 <uart_task+0x2d8>)
    4618:	7812      	ldrb	r2, [r2, #0]
    461a:	429a      	cmp	r2, r3
    461c:	d004      	beq.n	4628 <uart_task+0x238>
									analog_gain_1 = temp;
    461e:	4a2a      	ldr	r2, [pc, #168]	; (46c8 <uart_task+0x2d8>)
    4620:	7013      	strb	r3, [r2, #0]
									change_gain = true;
    4622:	2201      	movs	r2, #1
    4624:	4b2a      	ldr	r3, [pc, #168]	; (46d0 <uart_task+0x2e0>)
    4626:	701a      	strb	r2, [r3, #0]
								usart_write_buffer_wait(&usart_instance,(uint8_t *)&pkt,sizeof(packet));
    4628:	220c      	movs	r2, #12
    462a:	4913      	ldr	r1, [pc, #76]	; (4678 <uart_task+0x288>)
    462c:	4818      	ldr	r0, [pc, #96]	; (4690 <uart_task+0x2a0>)
    462e:	4b19      	ldr	r3, [pc, #100]	; (4694 <uart_task+0x2a4>)
    4630:	4798      	blx	r3
								delay_ms(25);
    4632:	2019      	movs	r0, #25
    4634:	4b18      	ldr	r3, [pc, #96]	; (4698 <uart_task+0x2a8>)
    4636:	4798      	blx	r3
    4638:	e702      	b.n	4440 <uart_task+0x50>
								save_configuration_param();
    463a:	4b26      	ldr	r3, [pc, #152]	; (46d4 <uart_task+0x2e4>)
    463c:	4798      	blx	r3
								usart_write_buffer_wait(&usart_instance,(uint8_t *)&pkt,sizeof(packet));
    463e:	220c      	movs	r2, #12
    4640:	490d      	ldr	r1, [pc, #52]	; (4678 <uart_task+0x288>)
    4642:	4813      	ldr	r0, [pc, #76]	; (4690 <uart_task+0x2a0>)
    4644:	4b13      	ldr	r3, [pc, #76]	; (4694 <uart_task+0x2a4>)
    4646:	4798      	blx	r3
								delay_ms(25);
    4648:	2019      	movs	r0, #25
    464a:	4b13      	ldr	r3, [pc, #76]	; (4698 <uart_task+0x2a8>)
    464c:	4798      	blx	r3
    464e:	e6f7      	b.n	4440 <uart_task+0x50>
					if(buffer_temp_index < sizeof(buffer_temp))
    4650:	2c0b      	cmp	r4, #11
    4652:	d900      	bls.n	4656 <uart_task+0x266>
    4654:	e6fa      	b.n	444c <uart_task+0x5c>
						buffer_temp[buffer_temp_index] = r;
    4656:	466a      	mov	r2, sp
    4658:	5513      	strb	r3, [r2, r4]
						buffer_temp_index++;
    465a:	3401      	adds	r4, #1
    465c:	e6f6      	b.n	444c <uart_task+0x5c>
		vTaskDelay(UART_TASK_DELAY);
    465e:	300a      	adds	r0, #10
    4660:	47b8      	blx	r7
		while (xQueueReceive(terminal_in_queue, current_char_ptr, 0)) 
    4662:	e6f7      	b.n	4454 <uart_task+0x64>
    4664:	0000633b 	.word	0x0000633b
    4668:	20003d00 	.word	0x20003d00
    466c:	00001745 	.word	0x00001745
    4670:	00001e41 	.word	0x00001e41
    4674:	20000040 	.word	0x20000040
    4678:	20003eb8 	.word	0x20003eb8
    467c:	00006329 	.word	0x00006329
    4680:	20000036 	.word	0x20000036
    4684:	000001f1 	.word	0x000001f1
    4688:	000001f9 	.word	0x000001f9
    468c:	00000231 	.word	0x00000231
    4690:	20003e44 	.word	0x20003e44
    4694:	00002a25 	.word	0x00002a25
    4698:	00002d89 	.word	0x00002d89
    469c:	20003e78 	.word	0x20003e78
    46a0:	20000038 	.word	0x20000038
    46a4:	20003fcc 	.word	0x20003fcc
    46a8:	00003375 	.word	0x00003375
    46ac:	20003cf8 	.word	0x20003cf8
    46b0:	20003cfa 	.word	0x20003cfa
    46b4:	20003ceb 	.word	0x20003ceb
    46b8:	20003ce8 	.word	0x20003ce8
    46bc:	20003ce9 	.word	0x20003ce9
    46c0:	20003cea 	.word	0x20003cea
    46c4:	2000004c 	.word	0x2000004c
    46c8:	20000035 	.word	0x20000035
    46cc:	20003d04 	.word	0x20003d04
    46d0:	20003cec 	.word	0x20003cec
    46d4:	000043b5 	.word	0x000043b5

000046d8 <__udivsi3>:
    46d8:	2200      	movs	r2, #0
    46da:	0843      	lsrs	r3, r0, #1
    46dc:	428b      	cmp	r3, r1
    46de:	d374      	bcc.n	47ca <__udivsi3+0xf2>
    46e0:	0903      	lsrs	r3, r0, #4
    46e2:	428b      	cmp	r3, r1
    46e4:	d35f      	bcc.n	47a6 <__udivsi3+0xce>
    46e6:	0a03      	lsrs	r3, r0, #8
    46e8:	428b      	cmp	r3, r1
    46ea:	d344      	bcc.n	4776 <__udivsi3+0x9e>
    46ec:	0b03      	lsrs	r3, r0, #12
    46ee:	428b      	cmp	r3, r1
    46f0:	d328      	bcc.n	4744 <__udivsi3+0x6c>
    46f2:	0c03      	lsrs	r3, r0, #16
    46f4:	428b      	cmp	r3, r1
    46f6:	d30d      	bcc.n	4714 <__udivsi3+0x3c>
    46f8:	22ff      	movs	r2, #255	; 0xff
    46fa:	0209      	lsls	r1, r1, #8
    46fc:	ba12      	rev	r2, r2
    46fe:	0c03      	lsrs	r3, r0, #16
    4700:	428b      	cmp	r3, r1
    4702:	d302      	bcc.n	470a <__udivsi3+0x32>
    4704:	1212      	asrs	r2, r2, #8
    4706:	0209      	lsls	r1, r1, #8
    4708:	d065      	beq.n	47d6 <__udivsi3+0xfe>
    470a:	0b03      	lsrs	r3, r0, #12
    470c:	428b      	cmp	r3, r1
    470e:	d319      	bcc.n	4744 <__udivsi3+0x6c>
    4710:	e000      	b.n	4714 <__udivsi3+0x3c>
    4712:	0a09      	lsrs	r1, r1, #8
    4714:	0bc3      	lsrs	r3, r0, #15
    4716:	428b      	cmp	r3, r1
    4718:	d301      	bcc.n	471e <__udivsi3+0x46>
    471a:	03cb      	lsls	r3, r1, #15
    471c:	1ac0      	subs	r0, r0, r3
    471e:	4152      	adcs	r2, r2
    4720:	0b83      	lsrs	r3, r0, #14
    4722:	428b      	cmp	r3, r1
    4724:	d301      	bcc.n	472a <__udivsi3+0x52>
    4726:	038b      	lsls	r3, r1, #14
    4728:	1ac0      	subs	r0, r0, r3
    472a:	4152      	adcs	r2, r2
    472c:	0b43      	lsrs	r3, r0, #13
    472e:	428b      	cmp	r3, r1
    4730:	d301      	bcc.n	4736 <__udivsi3+0x5e>
    4732:	034b      	lsls	r3, r1, #13
    4734:	1ac0      	subs	r0, r0, r3
    4736:	4152      	adcs	r2, r2
    4738:	0b03      	lsrs	r3, r0, #12
    473a:	428b      	cmp	r3, r1
    473c:	d301      	bcc.n	4742 <__udivsi3+0x6a>
    473e:	030b      	lsls	r3, r1, #12
    4740:	1ac0      	subs	r0, r0, r3
    4742:	4152      	adcs	r2, r2
    4744:	0ac3      	lsrs	r3, r0, #11
    4746:	428b      	cmp	r3, r1
    4748:	d301      	bcc.n	474e <__udivsi3+0x76>
    474a:	02cb      	lsls	r3, r1, #11
    474c:	1ac0      	subs	r0, r0, r3
    474e:	4152      	adcs	r2, r2
    4750:	0a83      	lsrs	r3, r0, #10
    4752:	428b      	cmp	r3, r1
    4754:	d301      	bcc.n	475a <__udivsi3+0x82>
    4756:	028b      	lsls	r3, r1, #10
    4758:	1ac0      	subs	r0, r0, r3
    475a:	4152      	adcs	r2, r2
    475c:	0a43      	lsrs	r3, r0, #9
    475e:	428b      	cmp	r3, r1
    4760:	d301      	bcc.n	4766 <__udivsi3+0x8e>
    4762:	024b      	lsls	r3, r1, #9
    4764:	1ac0      	subs	r0, r0, r3
    4766:	4152      	adcs	r2, r2
    4768:	0a03      	lsrs	r3, r0, #8
    476a:	428b      	cmp	r3, r1
    476c:	d301      	bcc.n	4772 <__udivsi3+0x9a>
    476e:	020b      	lsls	r3, r1, #8
    4770:	1ac0      	subs	r0, r0, r3
    4772:	4152      	adcs	r2, r2
    4774:	d2cd      	bcs.n	4712 <__udivsi3+0x3a>
    4776:	09c3      	lsrs	r3, r0, #7
    4778:	428b      	cmp	r3, r1
    477a:	d301      	bcc.n	4780 <__udivsi3+0xa8>
    477c:	01cb      	lsls	r3, r1, #7
    477e:	1ac0      	subs	r0, r0, r3
    4780:	4152      	adcs	r2, r2
    4782:	0983      	lsrs	r3, r0, #6
    4784:	428b      	cmp	r3, r1
    4786:	d301      	bcc.n	478c <__udivsi3+0xb4>
    4788:	018b      	lsls	r3, r1, #6
    478a:	1ac0      	subs	r0, r0, r3
    478c:	4152      	adcs	r2, r2
    478e:	0943      	lsrs	r3, r0, #5
    4790:	428b      	cmp	r3, r1
    4792:	d301      	bcc.n	4798 <__udivsi3+0xc0>
    4794:	014b      	lsls	r3, r1, #5
    4796:	1ac0      	subs	r0, r0, r3
    4798:	4152      	adcs	r2, r2
    479a:	0903      	lsrs	r3, r0, #4
    479c:	428b      	cmp	r3, r1
    479e:	d301      	bcc.n	47a4 <__udivsi3+0xcc>
    47a0:	010b      	lsls	r3, r1, #4
    47a2:	1ac0      	subs	r0, r0, r3
    47a4:	4152      	adcs	r2, r2
    47a6:	08c3      	lsrs	r3, r0, #3
    47a8:	428b      	cmp	r3, r1
    47aa:	d301      	bcc.n	47b0 <__udivsi3+0xd8>
    47ac:	00cb      	lsls	r3, r1, #3
    47ae:	1ac0      	subs	r0, r0, r3
    47b0:	4152      	adcs	r2, r2
    47b2:	0883      	lsrs	r3, r0, #2
    47b4:	428b      	cmp	r3, r1
    47b6:	d301      	bcc.n	47bc <__udivsi3+0xe4>
    47b8:	008b      	lsls	r3, r1, #2
    47ba:	1ac0      	subs	r0, r0, r3
    47bc:	4152      	adcs	r2, r2
    47be:	0843      	lsrs	r3, r0, #1
    47c0:	428b      	cmp	r3, r1
    47c2:	d301      	bcc.n	47c8 <__udivsi3+0xf0>
    47c4:	004b      	lsls	r3, r1, #1
    47c6:	1ac0      	subs	r0, r0, r3
    47c8:	4152      	adcs	r2, r2
    47ca:	1a41      	subs	r1, r0, r1
    47cc:	d200      	bcs.n	47d0 <__udivsi3+0xf8>
    47ce:	4601      	mov	r1, r0
    47d0:	4152      	adcs	r2, r2
    47d2:	4610      	mov	r0, r2
    47d4:	4770      	bx	lr
    47d6:	e7ff      	b.n	47d8 <__udivsi3+0x100>
    47d8:	b501      	push	{r0, lr}
    47da:	2000      	movs	r0, #0
    47dc:	f000 f8f0 	bl	49c0 <__aeabi_idiv0>
    47e0:	bd02      	pop	{r1, pc}
    47e2:	46c0      	nop			; (mov r8, r8)

000047e4 <__aeabi_uidivmod>:
    47e4:	2900      	cmp	r1, #0
    47e6:	d0f7      	beq.n	47d8 <__udivsi3+0x100>
    47e8:	e776      	b.n	46d8 <__udivsi3>
    47ea:	4770      	bx	lr

000047ec <__divsi3>:
    47ec:	4603      	mov	r3, r0
    47ee:	430b      	orrs	r3, r1
    47f0:	d47f      	bmi.n	48f2 <__divsi3+0x106>
    47f2:	2200      	movs	r2, #0
    47f4:	0843      	lsrs	r3, r0, #1
    47f6:	428b      	cmp	r3, r1
    47f8:	d374      	bcc.n	48e4 <__divsi3+0xf8>
    47fa:	0903      	lsrs	r3, r0, #4
    47fc:	428b      	cmp	r3, r1
    47fe:	d35f      	bcc.n	48c0 <__divsi3+0xd4>
    4800:	0a03      	lsrs	r3, r0, #8
    4802:	428b      	cmp	r3, r1
    4804:	d344      	bcc.n	4890 <__divsi3+0xa4>
    4806:	0b03      	lsrs	r3, r0, #12
    4808:	428b      	cmp	r3, r1
    480a:	d328      	bcc.n	485e <__divsi3+0x72>
    480c:	0c03      	lsrs	r3, r0, #16
    480e:	428b      	cmp	r3, r1
    4810:	d30d      	bcc.n	482e <__divsi3+0x42>
    4812:	22ff      	movs	r2, #255	; 0xff
    4814:	0209      	lsls	r1, r1, #8
    4816:	ba12      	rev	r2, r2
    4818:	0c03      	lsrs	r3, r0, #16
    481a:	428b      	cmp	r3, r1
    481c:	d302      	bcc.n	4824 <__divsi3+0x38>
    481e:	1212      	asrs	r2, r2, #8
    4820:	0209      	lsls	r1, r1, #8
    4822:	d065      	beq.n	48f0 <__divsi3+0x104>
    4824:	0b03      	lsrs	r3, r0, #12
    4826:	428b      	cmp	r3, r1
    4828:	d319      	bcc.n	485e <__divsi3+0x72>
    482a:	e000      	b.n	482e <__divsi3+0x42>
    482c:	0a09      	lsrs	r1, r1, #8
    482e:	0bc3      	lsrs	r3, r0, #15
    4830:	428b      	cmp	r3, r1
    4832:	d301      	bcc.n	4838 <__divsi3+0x4c>
    4834:	03cb      	lsls	r3, r1, #15
    4836:	1ac0      	subs	r0, r0, r3
    4838:	4152      	adcs	r2, r2
    483a:	0b83      	lsrs	r3, r0, #14
    483c:	428b      	cmp	r3, r1
    483e:	d301      	bcc.n	4844 <__divsi3+0x58>
    4840:	038b      	lsls	r3, r1, #14
    4842:	1ac0      	subs	r0, r0, r3
    4844:	4152      	adcs	r2, r2
    4846:	0b43      	lsrs	r3, r0, #13
    4848:	428b      	cmp	r3, r1
    484a:	d301      	bcc.n	4850 <__divsi3+0x64>
    484c:	034b      	lsls	r3, r1, #13
    484e:	1ac0      	subs	r0, r0, r3
    4850:	4152      	adcs	r2, r2
    4852:	0b03      	lsrs	r3, r0, #12
    4854:	428b      	cmp	r3, r1
    4856:	d301      	bcc.n	485c <__divsi3+0x70>
    4858:	030b      	lsls	r3, r1, #12
    485a:	1ac0      	subs	r0, r0, r3
    485c:	4152      	adcs	r2, r2
    485e:	0ac3      	lsrs	r3, r0, #11
    4860:	428b      	cmp	r3, r1
    4862:	d301      	bcc.n	4868 <__divsi3+0x7c>
    4864:	02cb      	lsls	r3, r1, #11
    4866:	1ac0      	subs	r0, r0, r3
    4868:	4152      	adcs	r2, r2
    486a:	0a83      	lsrs	r3, r0, #10
    486c:	428b      	cmp	r3, r1
    486e:	d301      	bcc.n	4874 <__divsi3+0x88>
    4870:	028b      	lsls	r3, r1, #10
    4872:	1ac0      	subs	r0, r0, r3
    4874:	4152      	adcs	r2, r2
    4876:	0a43      	lsrs	r3, r0, #9
    4878:	428b      	cmp	r3, r1
    487a:	d301      	bcc.n	4880 <__divsi3+0x94>
    487c:	024b      	lsls	r3, r1, #9
    487e:	1ac0      	subs	r0, r0, r3
    4880:	4152      	adcs	r2, r2
    4882:	0a03      	lsrs	r3, r0, #8
    4884:	428b      	cmp	r3, r1
    4886:	d301      	bcc.n	488c <__divsi3+0xa0>
    4888:	020b      	lsls	r3, r1, #8
    488a:	1ac0      	subs	r0, r0, r3
    488c:	4152      	adcs	r2, r2
    488e:	d2cd      	bcs.n	482c <__divsi3+0x40>
    4890:	09c3      	lsrs	r3, r0, #7
    4892:	428b      	cmp	r3, r1
    4894:	d301      	bcc.n	489a <__divsi3+0xae>
    4896:	01cb      	lsls	r3, r1, #7
    4898:	1ac0      	subs	r0, r0, r3
    489a:	4152      	adcs	r2, r2
    489c:	0983      	lsrs	r3, r0, #6
    489e:	428b      	cmp	r3, r1
    48a0:	d301      	bcc.n	48a6 <__divsi3+0xba>
    48a2:	018b      	lsls	r3, r1, #6
    48a4:	1ac0      	subs	r0, r0, r3
    48a6:	4152      	adcs	r2, r2
    48a8:	0943      	lsrs	r3, r0, #5
    48aa:	428b      	cmp	r3, r1
    48ac:	d301      	bcc.n	48b2 <__divsi3+0xc6>
    48ae:	014b      	lsls	r3, r1, #5
    48b0:	1ac0      	subs	r0, r0, r3
    48b2:	4152      	adcs	r2, r2
    48b4:	0903      	lsrs	r3, r0, #4
    48b6:	428b      	cmp	r3, r1
    48b8:	d301      	bcc.n	48be <__divsi3+0xd2>
    48ba:	010b      	lsls	r3, r1, #4
    48bc:	1ac0      	subs	r0, r0, r3
    48be:	4152      	adcs	r2, r2
    48c0:	08c3      	lsrs	r3, r0, #3
    48c2:	428b      	cmp	r3, r1
    48c4:	d301      	bcc.n	48ca <__divsi3+0xde>
    48c6:	00cb      	lsls	r3, r1, #3
    48c8:	1ac0      	subs	r0, r0, r3
    48ca:	4152      	adcs	r2, r2
    48cc:	0883      	lsrs	r3, r0, #2
    48ce:	428b      	cmp	r3, r1
    48d0:	d301      	bcc.n	48d6 <__divsi3+0xea>
    48d2:	008b      	lsls	r3, r1, #2
    48d4:	1ac0      	subs	r0, r0, r3
    48d6:	4152      	adcs	r2, r2
    48d8:	0843      	lsrs	r3, r0, #1
    48da:	428b      	cmp	r3, r1
    48dc:	d301      	bcc.n	48e2 <__divsi3+0xf6>
    48de:	004b      	lsls	r3, r1, #1
    48e0:	1ac0      	subs	r0, r0, r3
    48e2:	4152      	adcs	r2, r2
    48e4:	1a41      	subs	r1, r0, r1
    48e6:	d200      	bcs.n	48ea <__divsi3+0xfe>
    48e8:	4601      	mov	r1, r0
    48ea:	4152      	adcs	r2, r2
    48ec:	4610      	mov	r0, r2
    48ee:	4770      	bx	lr
    48f0:	e05d      	b.n	49ae <__divsi3+0x1c2>
    48f2:	0fca      	lsrs	r2, r1, #31
    48f4:	d000      	beq.n	48f8 <__divsi3+0x10c>
    48f6:	4249      	negs	r1, r1
    48f8:	1003      	asrs	r3, r0, #32
    48fa:	d300      	bcc.n	48fe <__divsi3+0x112>
    48fc:	4240      	negs	r0, r0
    48fe:	4053      	eors	r3, r2
    4900:	2200      	movs	r2, #0
    4902:	469c      	mov	ip, r3
    4904:	0903      	lsrs	r3, r0, #4
    4906:	428b      	cmp	r3, r1
    4908:	d32d      	bcc.n	4966 <__divsi3+0x17a>
    490a:	0a03      	lsrs	r3, r0, #8
    490c:	428b      	cmp	r3, r1
    490e:	d312      	bcc.n	4936 <__divsi3+0x14a>
    4910:	22fc      	movs	r2, #252	; 0xfc
    4912:	0189      	lsls	r1, r1, #6
    4914:	ba12      	rev	r2, r2
    4916:	0a03      	lsrs	r3, r0, #8
    4918:	428b      	cmp	r3, r1
    491a:	d30c      	bcc.n	4936 <__divsi3+0x14a>
    491c:	0189      	lsls	r1, r1, #6
    491e:	1192      	asrs	r2, r2, #6
    4920:	428b      	cmp	r3, r1
    4922:	d308      	bcc.n	4936 <__divsi3+0x14a>
    4924:	0189      	lsls	r1, r1, #6
    4926:	1192      	asrs	r2, r2, #6
    4928:	428b      	cmp	r3, r1
    492a:	d304      	bcc.n	4936 <__divsi3+0x14a>
    492c:	0189      	lsls	r1, r1, #6
    492e:	d03a      	beq.n	49a6 <__divsi3+0x1ba>
    4930:	1192      	asrs	r2, r2, #6
    4932:	e000      	b.n	4936 <__divsi3+0x14a>
    4934:	0989      	lsrs	r1, r1, #6
    4936:	09c3      	lsrs	r3, r0, #7
    4938:	428b      	cmp	r3, r1
    493a:	d301      	bcc.n	4940 <__divsi3+0x154>
    493c:	01cb      	lsls	r3, r1, #7
    493e:	1ac0      	subs	r0, r0, r3
    4940:	4152      	adcs	r2, r2
    4942:	0983      	lsrs	r3, r0, #6
    4944:	428b      	cmp	r3, r1
    4946:	d301      	bcc.n	494c <__divsi3+0x160>
    4948:	018b      	lsls	r3, r1, #6
    494a:	1ac0      	subs	r0, r0, r3
    494c:	4152      	adcs	r2, r2
    494e:	0943      	lsrs	r3, r0, #5
    4950:	428b      	cmp	r3, r1
    4952:	d301      	bcc.n	4958 <__divsi3+0x16c>
    4954:	014b      	lsls	r3, r1, #5
    4956:	1ac0      	subs	r0, r0, r3
    4958:	4152      	adcs	r2, r2
    495a:	0903      	lsrs	r3, r0, #4
    495c:	428b      	cmp	r3, r1
    495e:	d301      	bcc.n	4964 <__divsi3+0x178>
    4960:	010b      	lsls	r3, r1, #4
    4962:	1ac0      	subs	r0, r0, r3
    4964:	4152      	adcs	r2, r2
    4966:	08c3      	lsrs	r3, r0, #3
    4968:	428b      	cmp	r3, r1
    496a:	d301      	bcc.n	4970 <__divsi3+0x184>
    496c:	00cb      	lsls	r3, r1, #3
    496e:	1ac0      	subs	r0, r0, r3
    4970:	4152      	adcs	r2, r2
    4972:	0883      	lsrs	r3, r0, #2
    4974:	428b      	cmp	r3, r1
    4976:	d301      	bcc.n	497c <__divsi3+0x190>
    4978:	008b      	lsls	r3, r1, #2
    497a:	1ac0      	subs	r0, r0, r3
    497c:	4152      	adcs	r2, r2
    497e:	d2d9      	bcs.n	4934 <__divsi3+0x148>
    4980:	0843      	lsrs	r3, r0, #1
    4982:	428b      	cmp	r3, r1
    4984:	d301      	bcc.n	498a <__divsi3+0x19e>
    4986:	004b      	lsls	r3, r1, #1
    4988:	1ac0      	subs	r0, r0, r3
    498a:	4152      	adcs	r2, r2
    498c:	1a41      	subs	r1, r0, r1
    498e:	d200      	bcs.n	4992 <__divsi3+0x1a6>
    4990:	4601      	mov	r1, r0
    4992:	4663      	mov	r3, ip
    4994:	4152      	adcs	r2, r2
    4996:	105b      	asrs	r3, r3, #1
    4998:	4610      	mov	r0, r2
    499a:	d301      	bcc.n	49a0 <__divsi3+0x1b4>
    499c:	4240      	negs	r0, r0
    499e:	2b00      	cmp	r3, #0
    49a0:	d500      	bpl.n	49a4 <__divsi3+0x1b8>
    49a2:	4249      	negs	r1, r1
    49a4:	4770      	bx	lr
    49a6:	4663      	mov	r3, ip
    49a8:	105b      	asrs	r3, r3, #1
    49aa:	d300      	bcc.n	49ae <__divsi3+0x1c2>
    49ac:	4240      	negs	r0, r0
    49ae:	b501      	push	{r0, lr}
    49b0:	2000      	movs	r0, #0
    49b2:	f000 f805 	bl	49c0 <__aeabi_idiv0>
    49b6:	bd02      	pop	{r1, pc}

000049b8 <__aeabi_idivmod>:
    49b8:	2900      	cmp	r1, #0
    49ba:	d0f8      	beq.n	49ae <__divsi3+0x1c2>
    49bc:	e716      	b.n	47ec <__divsi3>
    49be:	4770      	bx	lr

000049c0 <__aeabi_idiv0>:
    49c0:	4770      	bx	lr
    49c2:	46c0      	nop			; (mov r8, r8)

000049c4 <__aeabi_lmul>:
    49c4:	b5f0      	push	{r4, r5, r6, r7, lr}
    49c6:	46ce      	mov	lr, r9
    49c8:	4647      	mov	r7, r8
    49ca:	0415      	lsls	r5, r2, #16
    49cc:	0c2d      	lsrs	r5, r5, #16
    49ce:	002e      	movs	r6, r5
    49d0:	b580      	push	{r7, lr}
    49d2:	0407      	lsls	r7, r0, #16
    49d4:	0c14      	lsrs	r4, r2, #16
    49d6:	0c3f      	lsrs	r7, r7, #16
    49d8:	4699      	mov	r9, r3
    49da:	0c03      	lsrs	r3, r0, #16
    49dc:	437e      	muls	r6, r7
    49de:	435d      	muls	r5, r3
    49e0:	4367      	muls	r7, r4
    49e2:	4363      	muls	r3, r4
    49e4:	197f      	adds	r7, r7, r5
    49e6:	0c34      	lsrs	r4, r6, #16
    49e8:	19e4      	adds	r4, r4, r7
    49ea:	469c      	mov	ip, r3
    49ec:	42a5      	cmp	r5, r4
    49ee:	d903      	bls.n	49f8 <__aeabi_lmul+0x34>
    49f0:	2380      	movs	r3, #128	; 0x80
    49f2:	025b      	lsls	r3, r3, #9
    49f4:	4698      	mov	r8, r3
    49f6:	44c4      	add	ip, r8
    49f8:	464b      	mov	r3, r9
    49fa:	4351      	muls	r1, r2
    49fc:	4343      	muls	r3, r0
    49fe:	0436      	lsls	r6, r6, #16
    4a00:	0c36      	lsrs	r6, r6, #16
    4a02:	0c25      	lsrs	r5, r4, #16
    4a04:	0424      	lsls	r4, r4, #16
    4a06:	4465      	add	r5, ip
    4a08:	19a4      	adds	r4, r4, r6
    4a0a:	1859      	adds	r1, r3, r1
    4a0c:	1949      	adds	r1, r1, r5
    4a0e:	0020      	movs	r0, r4
    4a10:	bc0c      	pop	{r2, r3}
    4a12:	4690      	mov	r8, r2
    4a14:	4699      	mov	r9, r3
    4a16:	bdf0      	pop	{r4, r5, r6, r7, pc}

00004a18 <__aeabi_dadd>:
    4a18:	b5f8      	push	{r3, r4, r5, r6, r7, lr}
    4a1a:	4645      	mov	r5, r8
    4a1c:	46de      	mov	lr, fp
    4a1e:	4657      	mov	r7, sl
    4a20:	464e      	mov	r6, r9
    4a22:	030c      	lsls	r4, r1, #12
    4a24:	b5e0      	push	{r5, r6, r7, lr}
    4a26:	004e      	lsls	r6, r1, #1
    4a28:	0fc9      	lsrs	r1, r1, #31
    4a2a:	4688      	mov	r8, r1
    4a2c:	000d      	movs	r5, r1
    4a2e:	0a61      	lsrs	r1, r4, #9
    4a30:	0f44      	lsrs	r4, r0, #29
    4a32:	430c      	orrs	r4, r1
    4a34:	00c7      	lsls	r7, r0, #3
    4a36:	0319      	lsls	r1, r3, #12
    4a38:	0058      	lsls	r0, r3, #1
    4a3a:	0fdb      	lsrs	r3, r3, #31
    4a3c:	469b      	mov	fp, r3
    4a3e:	0a4b      	lsrs	r3, r1, #9
    4a40:	0f51      	lsrs	r1, r2, #29
    4a42:	430b      	orrs	r3, r1
    4a44:	0d76      	lsrs	r6, r6, #21
    4a46:	0d40      	lsrs	r0, r0, #21
    4a48:	0019      	movs	r1, r3
    4a4a:	00d2      	lsls	r2, r2, #3
    4a4c:	45d8      	cmp	r8, fp
    4a4e:	d100      	bne.n	4a52 <__aeabi_dadd+0x3a>
    4a50:	e0ae      	b.n	4bb0 <__aeabi_dadd+0x198>
    4a52:	1a35      	subs	r5, r6, r0
    4a54:	2d00      	cmp	r5, #0
    4a56:	dc00      	bgt.n	4a5a <__aeabi_dadd+0x42>
    4a58:	e0f6      	b.n	4c48 <__aeabi_dadd+0x230>
    4a5a:	2800      	cmp	r0, #0
    4a5c:	d10f      	bne.n	4a7e <__aeabi_dadd+0x66>
    4a5e:	4313      	orrs	r3, r2
    4a60:	d100      	bne.n	4a64 <__aeabi_dadd+0x4c>
    4a62:	e0db      	b.n	4c1c <__aeabi_dadd+0x204>
    4a64:	1e6b      	subs	r3, r5, #1
    4a66:	2b00      	cmp	r3, #0
    4a68:	d000      	beq.n	4a6c <__aeabi_dadd+0x54>
    4a6a:	e137      	b.n	4cdc <__aeabi_dadd+0x2c4>
    4a6c:	1aba      	subs	r2, r7, r2
    4a6e:	4297      	cmp	r7, r2
    4a70:	41bf      	sbcs	r7, r7
    4a72:	1a64      	subs	r4, r4, r1
    4a74:	427f      	negs	r7, r7
    4a76:	1be4      	subs	r4, r4, r7
    4a78:	2601      	movs	r6, #1
    4a7a:	0017      	movs	r7, r2
    4a7c:	e024      	b.n	4ac8 <__aeabi_dadd+0xb0>
    4a7e:	4bc6      	ldr	r3, [pc, #792]	; (4d98 <__aeabi_dadd+0x380>)
    4a80:	429e      	cmp	r6, r3
    4a82:	d04d      	beq.n	4b20 <__aeabi_dadd+0x108>
    4a84:	2380      	movs	r3, #128	; 0x80
    4a86:	041b      	lsls	r3, r3, #16
    4a88:	4319      	orrs	r1, r3
    4a8a:	2d38      	cmp	r5, #56	; 0x38
    4a8c:	dd00      	ble.n	4a90 <__aeabi_dadd+0x78>
    4a8e:	e107      	b.n	4ca0 <__aeabi_dadd+0x288>
    4a90:	2d1f      	cmp	r5, #31
    4a92:	dd00      	ble.n	4a96 <__aeabi_dadd+0x7e>
    4a94:	e138      	b.n	4d08 <__aeabi_dadd+0x2f0>
    4a96:	2020      	movs	r0, #32
    4a98:	1b43      	subs	r3, r0, r5
    4a9a:	469a      	mov	sl, r3
    4a9c:	000b      	movs	r3, r1
    4a9e:	4650      	mov	r0, sl
    4aa0:	4083      	lsls	r3, r0
    4aa2:	4699      	mov	r9, r3
    4aa4:	0013      	movs	r3, r2
    4aa6:	4648      	mov	r0, r9
    4aa8:	40eb      	lsrs	r3, r5
    4aaa:	4318      	orrs	r0, r3
    4aac:	0003      	movs	r3, r0
    4aae:	4650      	mov	r0, sl
    4ab0:	4082      	lsls	r2, r0
    4ab2:	1e50      	subs	r0, r2, #1
    4ab4:	4182      	sbcs	r2, r0
    4ab6:	40e9      	lsrs	r1, r5
    4ab8:	431a      	orrs	r2, r3
    4aba:	1aba      	subs	r2, r7, r2
    4abc:	1a61      	subs	r1, r4, r1
    4abe:	4297      	cmp	r7, r2
    4ac0:	41a4      	sbcs	r4, r4
    4ac2:	0017      	movs	r7, r2
    4ac4:	4264      	negs	r4, r4
    4ac6:	1b0c      	subs	r4, r1, r4
    4ac8:	0223      	lsls	r3, r4, #8
    4aca:	d562      	bpl.n	4b92 <__aeabi_dadd+0x17a>
    4acc:	0264      	lsls	r4, r4, #9
    4ace:	0a65      	lsrs	r5, r4, #9
    4ad0:	2d00      	cmp	r5, #0
    4ad2:	d100      	bne.n	4ad6 <__aeabi_dadd+0xbe>
    4ad4:	e0df      	b.n	4c96 <__aeabi_dadd+0x27e>
    4ad6:	0028      	movs	r0, r5
    4ad8:	f001 fbe4 	bl	62a4 <__clzsi2>
    4adc:	0003      	movs	r3, r0
    4ade:	3b08      	subs	r3, #8
    4ae0:	2b1f      	cmp	r3, #31
    4ae2:	dd00      	ble.n	4ae6 <__aeabi_dadd+0xce>
    4ae4:	e0d2      	b.n	4c8c <__aeabi_dadd+0x274>
    4ae6:	2220      	movs	r2, #32
    4ae8:	003c      	movs	r4, r7
    4aea:	1ad2      	subs	r2, r2, r3
    4aec:	409d      	lsls	r5, r3
    4aee:	40d4      	lsrs	r4, r2
    4af0:	409f      	lsls	r7, r3
    4af2:	4325      	orrs	r5, r4
    4af4:	429e      	cmp	r6, r3
    4af6:	dd00      	ble.n	4afa <__aeabi_dadd+0xe2>
    4af8:	e0c4      	b.n	4c84 <__aeabi_dadd+0x26c>
    4afa:	1b9e      	subs	r6, r3, r6
    4afc:	1c73      	adds	r3, r6, #1
    4afe:	2b1f      	cmp	r3, #31
    4b00:	dd00      	ble.n	4b04 <__aeabi_dadd+0xec>
    4b02:	e0f1      	b.n	4ce8 <__aeabi_dadd+0x2d0>
    4b04:	2220      	movs	r2, #32
    4b06:	0038      	movs	r0, r7
    4b08:	0029      	movs	r1, r5
    4b0a:	1ad2      	subs	r2, r2, r3
    4b0c:	40d8      	lsrs	r0, r3
    4b0e:	4091      	lsls	r1, r2
    4b10:	4097      	lsls	r7, r2
    4b12:	002c      	movs	r4, r5
    4b14:	4301      	orrs	r1, r0
    4b16:	1e78      	subs	r0, r7, #1
    4b18:	4187      	sbcs	r7, r0
    4b1a:	40dc      	lsrs	r4, r3
    4b1c:	2600      	movs	r6, #0
    4b1e:	430f      	orrs	r7, r1
    4b20:	077b      	lsls	r3, r7, #29
    4b22:	d009      	beq.n	4b38 <__aeabi_dadd+0x120>
    4b24:	230f      	movs	r3, #15
    4b26:	403b      	ands	r3, r7
    4b28:	2b04      	cmp	r3, #4
    4b2a:	d005      	beq.n	4b38 <__aeabi_dadd+0x120>
    4b2c:	1d3b      	adds	r3, r7, #4
    4b2e:	42bb      	cmp	r3, r7
    4b30:	41bf      	sbcs	r7, r7
    4b32:	427f      	negs	r7, r7
    4b34:	19e4      	adds	r4, r4, r7
    4b36:	001f      	movs	r7, r3
    4b38:	0223      	lsls	r3, r4, #8
    4b3a:	d52c      	bpl.n	4b96 <__aeabi_dadd+0x17e>
    4b3c:	4b96      	ldr	r3, [pc, #600]	; (4d98 <__aeabi_dadd+0x380>)
    4b3e:	3601      	adds	r6, #1
    4b40:	429e      	cmp	r6, r3
    4b42:	d100      	bne.n	4b46 <__aeabi_dadd+0x12e>
    4b44:	e09a      	b.n	4c7c <__aeabi_dadd+0x264>
    4b46:	4645      	mov	r5, r8
    4b48:	4b94      	ldr	r3, [pc, #592]	; (4d9c <__aeabi_dadd+0x384>)
    4b4a:	08ff      	lsrs	r7, r7, #3
    4b4c:	401c      	ands	r4, r3
    4b4e:	0760      	lsls	r0, r4, #29
    4b50:	0576      	lsls	r6, r6, #21
    4b52:	0264      	lsls	r4, r4, #9
    4b54:	4307      	orrs	r7, r0
    4b56:	0b24      	lsrs	r4, r4, #12
    4b58:	0d76      	lsrs	r6, r6, #21
    4b5a:	2100      	movs	r1, #0
    4b5c:	0324      	lsls	r4, r4, #12
    4b5e:	0b23      	lsrs	r3, r4, #12
    4b60:	0d0c      	lsrs	r4, r1, #20
    4b62:	4a8f      	ldr	r2, [pc, #572]	; (4da0 <__aeabi_dadd+0x388>)
    4b64:	0524      	lsls	r4, r4, #20
    4b66:	431c      	orrs	r4, r3
    4b68:	4014      	ands	r4, r2
    4b6a:	0533      	lsls	r3, r6, #20
    4b6c:	4323      	orrs	r3, r4
    4b6e:	005b      	lsls	r3, r3, #1
    4b70:	07ed      	lsls	r5, r5, #31
    4b72:	085b      	lsrs	r3, r3, #1
    4b74:	432b      	orrs	r3, r5
    4b76:	0038      	movs	r0, r7
    4b78:	0019      	movs	r1, r3
    4b7a:	bc3c      	pop	{r2, r3, r4, r5}
    4b7c:	4690      	mov	r8, r2
    4b7e:	4699      	mov	r9, r3
    4b80:	46a2      	mov	sl, r4
    4b82:	46ab      	mov	fp, r5
    4b84:	bdf8      	pop	{r3, r4, r5, r6, r7, pc}
    4b86:	4664      	mov	r4, ip
    4b88:	4304      	orrs	r4, r0
    4b8a:	d100      	bne.n	4b8e <__aeabi_dadd+0x176>
    4b8c:	e211      	b.n	4fb2 <__aeabi_dadd+0x59a>
    4b8e:	0004      	movs	r4, r0
    4b90:	4667      	mov	r7, ip
    4b92:	077b      	lsls	r3, r7, #29
    4b94:	d1c6      	bne.n	4b24 <__aeabi_dadd+0x10c>
    4b96:	4645      	mov	r5, r8
    4b98:	0760      	lsls	r0, r4, #29
    4b9a:	08ff      	lsrs	r7, r7, #3
    4b9c:	4307      	orrs	r7, r0
    4b9e:	08e4      	lsrs	r4, r4, #3
    4ba0:	4b7d      	ldr	r3, [pc, #500]	; (4d98 <__aeabi_dadd+0x380>)
    4ba2:	429e      	cmp	r6, r3
    4ba4:	d030      	beq.n	4c08 <__aeabi_dadd+0x1f0>
    4ba6:	0324      	lsls	r4, r4, #12
    4ba8:	0576      	lsls	r6, r6, #21
    4baa:	0b24      	lsrs	r4, r4, #12
    4bac:	0d76      	lsrs	r6, r6, #21
    4bae:	e7d4      	b.n	4b5a <__aeabi_dadd+0x142>
    4bb0:	1a33      	subs	r3, r6, r0
    4bb2:	469a      	mov	sl, r3
    4bb4:	2b00      	cmp	r3, #0
    4bb6:	dd78      	ble.n	4caa <__aeabi_dadd+0x292>
    4bb8:	2800      	cmp	r0, #0
    4bba:	d031      	beq.n	4c20 <__aeabi_dadd+0x208>
    4bbc:	4876      	ldr	r0, [pc, #472]	; (4d98 <__aeabi_dadd+0x380>)
    4bbe:	4286      	cmp	r6, r0
    4bc0:	d0ae      	beq.n	4b20 <__aeabi_dadd+0x108>
    4bc2:	2080      	movs	r0, #128	; 0x80
    4bc4:	0400      	lsls	r0, r0, #16
    4bc6:	4301      	orrs	r1, r0
    4bc8:	4653      	mov	r3, sl
    4bca:	2b38      	cmp	r3, #56	; 0x38
    4bcc:	dc00      	bgt.n	4bd0 <__aeabi_dadd+0x1b8>
    4bce:	e0e9      	b.n	4da4 <__aeabi_dadd+0x38c>
    4bd0:	430a      	orrs	r2, r1
    4bd2:	1e51      	subs	r1, r2, #1
    4bd4:	418a      	sbcs	r2, r1
    4bd6:	2100      	movs	r1, #0
    4bd8:	19d2      	adds	r2, r2, r7
    4bda:	42ba      	cmp	r2, r7
    4bdc:	41bf      	sbcs	r7, r7
    4bde:	1909      	adds	r1, r1, r4
    4be0:	427c      	negs	r4, r7
    4be2:	0017      	movs	r7, r2
    4be4:	190c      	adds	r4, r1, r4
    4be6:	0223      	lsls	r3, r4, #8
    4be8:	d5d3      	bpl.n	4b92 <__aeabi_dadd+0x17a>
    4bea:	4b6b      	ldr	r3, [pc, #428]	; (4d98 <__aeabi_dadd+0x380>)
    4bec:	3601      	adds	r6, #1
    4bee:	429e      	cmp	r6, r3
    4bf0:	d100      	bne.n	4bf4 <__aeabi_dadd+0x1dc>
    4bf2:	e13a      	b.n	4e6a <__aeabi_dadd+0x452>
    4bf4:	2001      	movs	r0, #1
    4bf6:	4b69      	ldr	r3, [pc, #420]	; (4d9c <__aeabi_dadd+0x384>)
    4bf8:	401c      	ands	r4, r3
    4bfa:	087b      	lsrs	r3, r7, #1
    4bfc:	4007      	ands	r7, r0
    4bfe:	431f      	orrs	r7, r3
    4c00:	07e0      	lsls	r0, r4, #31
    4c02:	4307      	orrs	r7, r0
    4c04:	0864      	lsrs	r4, r4, #1
    4c06:	e78b      	b.n	4b20 <__aeabi_dadd+0x108>
    4c08:	0023      	movs	r3, r4
    4c0a:	433b      	orrs	r3, r7
    4c0c:	d100      	bne.n	4c10 <__aeabi_dadd+0x1f8>
    4c0e:	e1cb      	b.n	4fa8 <__aeabi_dadd+0x590>
    4c10:	2280      	movs	r2, #128	; 0x80
    4c12:	0312      	lsls	r2, r2, #12
    4c14:	4314      	orrs	r4, r2
    4c16:	0324      	lsls	r4, r4, #12
    4c18:	0b24      	lsrs	r4, r4, #12
    4c1a:	e79e      	b.n	4b5a <__aeabi_dadd+0x142>
    4c1c:	002e      	movs	r6, r5
    4c1e:	e77f      	b.n	4b20 <__aeabi_dadd+0x108>
    4c20:	0008      	movs	r0, r1
    4c22:	4310      	orrs	r0, r2
    4c24:	d100      	bne.n	4c28 <__aeabi_dadd+0x210>
    4c26:	e0b4      	b.n	4d92 <__aeabi_dadd+0x37a>
    4c28:	1e58      	subs	r0, r3, #1
    4c2a:	2800      	cmp	r0, #0
    4c2c:	d000      	beq.n	4c30 <__aeabi_dadd+0x218>
    4c2e:	e0de      	b.n	4dee <__aeabi_dadd+0x3d6>
    4c30:	18ba      	adds	r2, r7, r2
    4c32:	42ba      	cmp	r2, r7
    4c34:	419b      	sbcs	r3, r3
    4c36:	1864      	adds	r4, r4, r1
    4c38:	425b      	negs	r3, r3
    4c3a:	18e4      	adds	r4, r4, r3
    4c3c:	0017      	movs	r7, r2
    4c3e:	2601      	movs	r6, #1
    4c40:	0223      	lsls	r3, r4, #8
    4c42:	d5a6      	bpl.n	4b92 <__aeabi_dadd+0x17a>
    4c44:	2602      	movs	r6, #2
    4c46:	e7d5      	b.n	4bf4 <__aeabi_dadd+0x1dc>
    4c48:	2d00      	cmp	r5, #0
    4c4a:	d16e      	bne.n	4d2a <__aeabi_dadd+0x312>
    4c4c:	1c70      	adds	r0, r6, #1
    4c4e:	0540      	lsls	r0, r0, #21
    4c50:	0d40      	lsrs	r0, r0, #21
    4c52:	2801      	cmp	r0, #1
    4c54:	dc00      	bgt.n	4c58 <__aeabi_dadd+0x240>
    4c56:	e0f9      	b.n	4e4c <__aeabi_dadd+0x434>
    4c58:	1ab8      	subs	r0, r7, r2
    4c5a:	4684      	mov	ip, r0
    4c5c:	4287      	cmp	r7, r0
    4c5e:	4180      	sbcs	r0, r0
    4c60:	1ae5      	subs	r5, r4, r3
    4c62:	4240      	negs	r0, r0
    4c64:	1a2d      	subs	r5, r5, r0
    4c66:	0228      	lsls	r0, r5, #8
    4c68:	d400      	bmi.n	4c6c <__aeabi_dadd+0x254>
    4c6a:	e089      	b.n	4d80 <__aeabi_dadd+0x368>
    4c6c:	1bd7      	subs	r7, r2, r7
    4c6e:	42ba      	cmp	r2, r7
    4c70:	4192      	sbcs	r2, r2
    4c72:	1b1c      	subs	r4, r3, r4
    4c74:	4252      	negs	r2, r2
    4c76:	1aa5      	subs	r5, r4, r2
    4c78:	46d8      	mov	r8, fp
    4c7a:	e729      	b.n	4ad0 <__aeabi_dadd+0xb8>
    4c7c:	4645      	mov	r5, r8
    4c7e:	2400      	movs	r4, #0
    4c80:	2700      	movs	r7, #0
    4c82:	e76a      	b.n	4b5a <__aeabi_dadd+0x142>
    4c84:	4c45      	ldr	r4, [pc, #276]	; (4d9c <__aeabi_dadd+0x384>)
    4c86:	1af6      	subs	r6, r6, r3
    4c88:	402c      	ands	r4, r5
    4c8a:	e749      	b.n	4b20 <__aeabi_dadd+0x108>
    4c8c:	003d      	movs	r5, r7
    4c8e:	3828      	subs	r0, #40	; 0x28
    4c90:	4085      	lsls	r5, r0
    4c92:	2700      	movs	r7, #0
    4c94:	e72e      	b.n	4af4 <__aeabi_dadd+0xdc>
    4c96:	0038      	movs	r0, r7
    4c98:	f001 fb04 	bl	62a4 <__clzsi2>
    4c9c:	3020      	adds	r0, #32
    4c9e:	e71d      	b.n	4adc <__aeabi_dadd+0xc4>
    4ca0:	430a      	orrs	r2, r1
    4ca2:	1e51      	subs	r1, r2, #1
    4ca4:	418a      	sbcs	r2, r1
    4ca6:	2100      	movs	r1, #0
    4ca8:	e707      	b.n	4aba <__aeabi_dadd+0xa2>
    4caa:	2b00      	cmp	r3, #0
    4cac:	d000      	beq.n	4cb0 <__aeabi_dadd+0x298>
    4cae:	e0f3      	b.n	4e98 <__aeabi_dadd+0x480>
    4cb0:	1c70      	adds	r0, r6, #1
    4cb2:	0543      	lsls	r3, r0, #21
    4cb4:	0d5b      	lsrs	r3, r3, #21
    4cb6:	2b01      	cmp	r3, #1
    4cb8:	dc00      	bgt.n	4cbc <__aeabi_dadd+0x2a4>
    4cba:	e0ad      	b.n	4e18 <__aeabi_dadd+0x400>
    4cbc:	4b36      	ldr	r3, [pc, #216]	; (4d98 <__aeabi_dadd+0x380>)
    4cbe:	4298      	cmp	r0, r3
    4cc0:	d100      	bne.n	4cc4 <__aeabi_dadd+0x2ac>
    4cc2:	e0d1      	b.n	4e68 <__aeabi_dadd+0x450>
    4cc4:	18ba      	adds	r2, r7, r2
    4cc6:	42ba      	cmp	r2, r7
    4cc8:	41bf      	sbcs	r7, r7
    4cca:	1864      	adds	r4, r4, r1
    4ccc:	427f      	negs	r7, r7
    4cce:	19e4      	adds	r4, r4, r7
    4cd0:	07e7      	lsls	r7, r4, #31
    4cd2:	0852      	lsrs	r2, r2, #1
    4cd4:	4317      	orrs	r7, r2
    4cd6:	0864      	lsrs	r4, r4, #1
    4cd8:	0006      	movs	r6, r0
    4cda:	e721      	b.n	4b20 <__aeabi_dadd+0x108>
    4cdc:	482e      	ldr	r0, [pc, #184]	; (4d98 <__aeabi_dadd+0x380>)
    4cde:	4285      	cmp	r5, r0
    4ce0:	d100      	bne.n	4ce4 <__aeabi_dadd+0x2cc>
    4ce2:	e093      	b.n	4e0c <__aeabi_dadd+0x3f4>
    4ce4:	001d      	movs	r5, r3
    4ce6:	e6d0      	b.n	4a8a <__aeabi_dadd+0x72>
    4ce8:	0029      	movs	r1, r5
    4cea:	3e1f      	subs	r6, #31
    4cec:	40f1      	lsrs	r1, r6
    4cee:	2b20      	cmp	r3, #32
    4cf0:	d100      	bne.n	4cf4 <__aeabi_dadd+0x2dc>
    4cf2:	e08d      	b.n	4e10 <__aeabi_dadd+0x3f8>
    4cf4:	2240      	movs	r2, #64	; 0x40
    4cf6:	1ad3      	subs	r3, r2, r3
    4cf8:	409d      	lsls	r5, r3
    4cfa:	432f      	orrs	r7, r5
    4cfc:	1e7d      	subs	r5, r7, #1
    4cfe:	41af      	sbcs	r7, r5
    4d00:	2400      	movs	r4, #0
    4d02:	430f      	orrs	r7, r1
    4d04:	2600      	movs	r6, #0
    4d06:	e744      	b.n	4b92 <__aeabi_dadd+0x17a>
    4d08:	002b      	movs	r3, r5
    4d0a:	0008      	movs	r0, r1
    4d0c:	3b20      	subs	r3, #32
    4d0e:	40d8      	lsrs	r0, r3
    4d10:	0003      	movs	r3, r0
    4d12:	2d20      	cmp	r5, #32
    4d14:	d100      	bne.n	4d18 <__aeabi_dadd+0x300>
    4d16:	e07d      	b.n	4e14 <__aeabi_dadd+0x3fc>
    4d18:	2040      	movs	r0, #64	; 0x40
    4d1a:	1b45      	subs	r5, r0, r5
    4d1c:	40a9      	lsls	r1, r5
    4d1e:	430a      	orrs	r2, r1
    4d20:	1e51      	subs	r1, r2, #1
    4d22:	418a      	sbcs	r2, r1
    4d24:	2100      	movs	r1, #0
    4d26:	431a      	orrs	r2, r3
    4d28:	e6c7      	b.n	4aba <__aeabi_dadd+0xa2>
    4d2a:	2e00      	cmp	r6, #0
    4d2c:	d050      	beq.n	4dd0 <__aeabi_dadd+0x3b8>
    4d2e:	4e1a      	ldr	r6, [pc, #104]	; (4d98 <__aeabi_dadd+0x380>)
    4d30:	42b0      	cmp	r0, r6
    4d32:	d057      	beq.n	4de4 <__aeabi_dadd+0x3cc>
    4d34:	2680      	movs	r6, #128	; 0x80
    4d36:	426b      	negs	r3, r5
    4d38:	4699      	mov	r9, r3
    4d3a:	0436      	lsls	r6, r6, #16
    4d3c:	4334      	orrs	r4, r6
    4d3e:	464b      	mov	r3, r9
    4d40:	2b38      	cmp	r3, #56	; 0x38
    4d42:	dd00      	ble.n	4d46 <__aeabi_dadd+0x32e>
    4d44:	e0d6      	b.n	4ef4 <__aeabi_dadd+0x4dc>
    4d46:	2b1f      	cmp	r3, #31
    4d48:	dd00      	ble.n	4d4c <__aeabi_dadd+0x334>
    4d4a:	e135      	b.n	4fb8 <__aeabi_dadd+0x5a0>
    4d4c:	2620      	movs	r6, #32
    4d4e:	1af5      	subs	r5, r6, r3
    4d50:	0026      	movs	r6, r4
    4d52:	40ae      	lsls	r6, r5
    4d54:	46b2      	mov	sl, r6
    4d56:	003e      	movs	r6, r7
    4d58:	40de      	lsrs	r6, r3
    4d5a:	46ac      	mov	ip, r5
    4d5c:	0035      	movs	r5, r6
    4d5e:	4656      	mov	r6, sl
    4d60:	432e      	orrs	r6, r5
    4d62:	4665      	mov	r5, ip
    4d64:	40af      	lsls	r7, r5
    4d66:	1e7d      	subs	r5, r7, #1
    4d68:	41af      	sbcs	r7, r5
    4d6a:	40dc      	lsrs	r4, r3
    4d6c:	4337      	orrs	r7, r6
    4d6e:	1bd7      	subs	r7, r2, r7
    4d70:	42ba      	cmp	r2, r7
    4d72:	4192      	sbcs	r2, r2
    4d74:	1b0c      	subs	r4, r1, r4
    4d76:	4252      	negs	r2, r2
    4d78:	1aa4      	subs	r4, r4, r2
    4d7a:	0006      	movs	r6, r0
    4d7c:	46d8      	mov	r8, fp
    4d7e:	e6a3      	b.n	4ac8 <__aeabi_dadd+0xb0>
    4d80:	4664      	mov	r4, ip
    4d82:	4667      	mov	r7, ip
    4d84:	432c      	orrs	r4, r5
    4d86:	d000      	beq.n	4d8a <__aeabi_dadd+0x372>
    4d88:	e6a2      	b.n	4ad0 <__aeabi_dadd+0xb8>
    4d8a:	2500      	movs	r5, #0
    4d8c:	2600      	movs	r6, #0
    4d8e:	2700      	movs	r7, #0
    4d90:	e706      	b.n	4ba0 <__aeabi_dadd+0x188>
    4d92:	001e      	movs	r6, r3
    4d94:	e6c4      	b.n	4b20 <__aeabi_dadd+0x108>
    4d96:	46c0      	nop			; (mov r8, r8)
    4d98:	000007ff 	.word	0x000007ff
    4d9c:	ff7fffff 	.word	0xff7fffff
    4da0:	800fffff 	.word	0x800fffff
    4da4:	2b1f      	cmp	r3, #31
    4da6:	dc63      	bgt.n	4e70 <__aeabi_dadd+0x458>
    4da8:	2020      	movs	r0, #32
    4daa:	1ac3      	subs	r3, r0, r3
    4dac:	0008      	movs	r0, r1
    4dae:	4098      	lsls	r0, r3
    4db0:	469c      	mov	ip, r3
    4db2:	4683      	mov	fp, r0
    4db4:	4653      	mov	r3, sl
    4db6:	0010      	movs	r0, r2
    4db8:	40d8      	lsrs	r0, r3
    4dba:	0003      	movs	r3, r0
    4dbc:	4658      	mov	r0, fp
    4dbe:	4318      	orrs	r0, r3
    4dc0:	4663      	mov	r3, ip
    4dc2:	409a      	lsls	r2, r3
    4dc4:	1e53      	subs	r3, r2, #1
    4dc6:	419a      	sbcs	r2, r3
    4dc8:	4653      	mov	r3, sl
    4dca:	4302      	orrs	r2, r0
    4dcc:	40d9      	lsrs	r1, r3
    4dce:	e703      	b.n	4bd8 <__aeabi_dadd+0x1c0>
    4dd0:	0026      	movs	r6, r4
    4dd2:	433e      	orrs	r6, r7
    4dd4:	d006      	beq.n	4de4 <__aeabi_dadd+0x3cc>
    4dd6:	43eb      	mvns	r3, r5
    4dd8:	4699      	mov	r9, r3
    4dda:	2b00      	cmp	r3, #0
    4ddc:	d0c7      	beq.n	4d6e <__aeabi_dadd+0x356>
    4dde:	4e94      	ldr	r6, [pc, #592]	; (5030 <__aeabi_dadd+0x618>)
    4de0:	42b0      	cmp	r0, r6
    4de2:	d1ac      	bne.n	4d3e <__aeabi_dadd+0x326>
    4de4:	000c      	movs	r4, r1
    4de6:	0017      	movs	r7, r2
    4de8:	0006      	movs	r6, r0
    4dea:	46d8      	mov	r8, fp
    4dec:	e698      	b.n	4b20 <__aeabi_dadd+0x108>
    4dee:	4b90      	ldr	r3, [pc, #576]	; (5030 <__aeabi_dadd+0x618>)
    4df0:	459a      	cmp	sl, r3
    4df2:	d00b      	beq.n	4e0c <__aeabi_dadd+0x3f4>
    4df4:	4682      	mov	sl, r0
    4df6:	e6e7      	b.n	4bc8 <__aeabi_dadd+0x1b0>
    4df8:	2800      	cmp	r0, #0
    4dfa:	d000      	beq.n	4dfe <__aeabi_dadd+0x3e6>
    4dfc:	e09e      	b.n	4f3c <__aeabi_dadd+0x524>
    4dfe:	0018      	movs	r0, r3
    4e00:	4310      	orrs	r0, r2
    4e02:	d100      	bne.n	4e06 <__aeabi_dadd+0x3ee>
    4e04:	e0e9      	b.n	4fda <__aeabi_dadd+0x5c2>
    4e06:	001c      	movs	r4, r3
    4e08:	0017      	movs	r7, r2
    4e0a:	46d8      	mov	r8, fp
    4e0c:	4e88      	ldr	r6, [pc, #544]	; (5030 <__aeabi_dadd+0x618>)
    4e0e:	e687      	b.n	4b20 <__aeabi_dadd+0x108>
    4e10:	2500      	movs	r5, #0
    4e12:	e772      	b.n	4cfa <__aeabi_dadd+0x2e2>
    4e14:	2100      	movs	r1, #0
    4e16:	e782      	b.n	4d1e <__aeabi_dadd+0x306>
    4e18:	0023      	movs	r3, r4
    4e1a:	433b      	orrs	r3, r7
    4e1c:	2e00      	cmp	r6, #0
    4e1e:	d000      	beq.n	4e22 <__aeabi_dadd+0x40a>
    4e20:	e0ab      	b.n	4f7a <__aeabi_dadd+0x562>
    4e22:	2b00      	cmp	r3, #0
    4e24:	d100      	bne.n	4e28 <__aeabi_dadd+0x410>
    4e26:	e0e7      	b.n	4ff8 <__aeabi_dadd+0x5e0>
    4e28:	000b      	movs	r3, r1
    4e2a:	4313      	orrs	r3, r2
    4e2c:	d100      	bne.n	4e30 <__aeabi_dadd+0x418>
    4e2e:	e677      	b.n	4b20 <__aeabi_dadd+0x108>
    4e30:	18ba      	adds	r2, r7, r2
    4e32:	42ba      	cmp	r2, r7
    4e34:	41bf      	sbcs	r7, r7
    4e36:	1864      	adds	r4, r4, r1
    4e38:	427f      	negs	r7, r7
    4e3a:	19e4      	adds	r4, r4, r7
    4e3c:	0223      	lsls	r3, r4, #8
    4e3e:	d400      	bmi.n	4e42 <__aeabi_dadd+0x42a>
    4e40:	e0f2      	b.n	5028 <__aeabi_dadd+0x610>
    4e42:	4b7c      	ldr	r3, [pc, #496]	; (5034 <__aeabi_dadd+0x61c>)
    4e44:	0017      	movs	r7, r2
    4e46:	401c      	ands	r4, r3
    4e48:	0006      	movs	r6, r0
    4e4a:	e669      	b.n	4b20 <__aeabi_dadd+0x108>
    4e4c:	0020      	movs	r0, r4
    4e4e:	4338      	orrs	r0, r7
    4e50:	2e00      	cmp	r6, #0
    4e52:	d1d1      	bne.n	4df8 <__aeabi_dadd+0x3e0>
    4e54:	2800      	cmp	r0, #0
    4e56:	d15b      	bne.n	4f10 <__aeabi_dadd+0x4f8>
    4e58:	001c      	movs	r4, r3
    4e5a:	4314      	orrs	r4, r2
    4e5c:	d100      	bne.n	4e60 <__aeabi_dadd+0x448>
    4e5e:	e0a8      	b.n	4fb2 <__aeabi_dadd+0x59a>
    4e60:	001c      	movs	r4, r3
    4e62:	0017      	movs	r7, r2
    4e64:	46d8      	mov	r8, fp
    4e66:	e65b      	b.n	4b20 <__aeabi_dadd+0x108>
    4e68:	0006      	movs	r6, r0
    4e6a:	2400      	movs	r4, #0
    4e6c:	2700      	movs	r7, #0
    4e6e:	e697      	b.n	4ba0 <__aeabi_dadd+0x188>
    4e70:	4650      	mov	r0, sl
    4e72:	000b      	movs	r3, r1
    4e74:	3820      	subs	r0, #32
    4e76:	40c3      	lsrs	r3, r0
    4e78:	4699      	mov	r9, r3
    4e7a:	4653      	mov	r3, sl
    4e7c:	2b20      	cmp	r3, #32
    4e7e:	d100      	bne.n	4e82 <__aeabi_dadd+0x46a>
    4e80:	e095      	b.n	4fae <__aeabi_dadd+0x596>
    4e82:	2340      	movs	r3, #64	; 0x40
    4e84:	4650      	mov	r0, sl
    4e86:	1a1b      	subs	r3, r3, r0
    4e88:	4099      	lsls	r1, r3
    4e8a:	430a      	orrs	r2, r1
    4e8c:	1e51      	subs	r1, r2, #1
    4e8e:	418a      	sbcs	r2, r1
    4e90:	464b      	mov	r3, r9
    4e92:	2100      	movs	r1, #0
    4e94:	431a      	orrs	r2, r3
    4e96:	e69f      	b.n	4bd8 <__aeabi_dadd+0x1c0>
    4e98:	2e00      	cmp	r6, #0
    4e9a:	d130      	bne.n	4efe <__aeabi_dadd+0x4e6>
    4e9c:	0026      	movs	r6, r4
    4e9e:	433e      	orrs	r6, r7
    4ea0:	d067      	beq.n	4f72 <__aeabi_dadd+0x55a>
    4ea2:	43db      	mvns	r3, r3
    4ea4:	469a      	mov	sl, r3
    4ea6:	2b00      	cmp	r3, #0
    4ea8:	d01c      	beq.n	4ee4 <__aeabi_dadd+0x4cc>
    4eaa:	4e61      	ldr	r6, [pc, #388]	; (5030 <__aeabi_dadd+0x618>)
    4eac:	42b0      	cmp	r0, r6
    4eae:	d060      	beq.n	4f72 <__aeabi_dadd+0x55a>
    4eb0:	4653      	mov	r3, sl
    4eb2:	2b38      	cmp	r3, #56	; 0x38
    4eb4:	dd00      	ble.n	4eb8 <__aeabi_dadd+0x4a0>
    4eb6:	e096      	b.n	4fe6 <__aeabi_dadd+0x5ce>
    4eb8:	2b1f      	cmp	r3, #31
    4eba:	dd00      	ble.n	4ebe <__aeabi_dadd+0x4a6>
    4ebc:	e09f      	b.n	4ffe <__aeabi_dadd+0x5e6>
    4ebe:	2620      	movs	r6, #32
    4ec0:	1af3      	subs	r3, r6, r3
    4ec2:	0026      	movs	r6, r4
    4ec4:	409e      	lsls	r6, r3
    4ec6:	469c      	mov	ip, r3
    4ec8:	46b3      	mov	fp, r6
    4eca:	4653      	mov	r3, sl
    4ecc:	003e      	movs	r6, r7
    4ece:	40de      	lsrs	r6, r3
    4ed0:	0033      	movs	r3, r6
    4ed2:	465e      	mov	r6, fp
    4ed4:	431e      	orrs	r6, r3
    4ed6:	4663      	mov	r3, ip
    4ed8:	409f      	lsls	r7, r3
    4eda:	1e7b      	subs	r3, r7, #1
    4edc:	419f      	sbcs	r7, r3
    4ede:	4653      	mov	r3, sl
    4ee0:	40dc      	lsrs	r4, r3
    4ee2:	4337      	orrs	r7, r6
    4ee4:	18bf      	adds	r7, r7, r2
    4ee6:	4297      	cmp	r7, r2
    4ee8:	4192      	sbcs	r2, r2
    4eea:	1864      	adds	r4, r4, r1
    4eec:	4252      	negs	r2, r2
    4eee:	18a4      	adds	r4, r4, r2
    4ef0:	0006      	movs	r6, r0
    4ef2:	e678      	b.n	4be6 <__aeabi_dadd+0x1ce>
    4ef4:	4327      	orrs	r7, r4
    4ef6:	1e7c      	subs	r4, r7, #1
    4ef8:	41a7      	sbcs	r7, r4
    4efa:	2400      	movs	r4, #0
    4efc:	e737      	b.n	4d6e <__aeabi_dadd+0x356>
    4efe:	4e4c      	ldr	r6, [pc, #304]	; (5030 <__aeabi_dadd+0x618>)
    4f00:	42b0      	cmp	r0, r6
    4f02:	d036      	beq.n	4f72 <__aeabi_dadd+0x55a>
    4f04:	2680      	movs	r6, #128	; 0x80
    4f06:	425b      	negs	r3, r3
    4f08:	0436      	lsls	r6, r6, #16
    4f0a:	469a      	mov	sl, r3
    4f0c:	4334      	orrs	r4, r6
    4f0e:	e7cf      	b.n	4eb0 <__aeabi_dadd+0x498>
    4f10:	0018      	movs	r0, r3
    4f12:	4310      	orrs	r0, r2
    4f14:	d100      	bne.n	4f18 <__aeabi_dadd+0x500>
    4f16:	e603      	b.n	4b20 <__aeabi_dadd+0x108>
    4f18:	1ab8      	subs	r0, r7, r2
    4f1a:	4684      	mov	ip, r0
    4f1c:	4567      	cmp	r7, ip
    4f1e:	41ad      	sbcs	r5, r5
    4f20:	1ae0      	subs	r0, r4, r3
    4f22:	426d      	negs	r5, r5
    4f24:	1b40      	subs	r0, r0, r5
    4f26:	0205      	lsls	r5, r0, #8
    4f28:	d400      	bmi.n	4f2c <__aeabi_dadd+0x514>
    4f2a:	e62c      	b.n	4b86 <__aeabi_dadd+0x16e>
    4f2c:	1bd7      	subs	r7, r2, r7
    4f2e:	42ba      	cmp	r2, r7
    4f30:	4192      	sbcs	r2, r2
    4f32:	1b1c      	subs	r4, r3, r4
    4f34:	4252      	negs	r2, r2
    4f36:	1aa4      	subs	r4, r4, r2
    4f38:	46d8      	mov	r8, fp
    4f3a:	e5f1      	b.n	4b20 <__aeabi_dadd+0x108>
    4f3c:	0018      	movs	r0, r3
    4f3e:	4310      	orrs	r0, r2
    4f40:	d100      	bne.n	4f44 <__aeabi_dadd+0x52c>
    4f42:	e763      	b.n	4e0c <__aeabi_dadd+0x3f4>
    4f44:	08f8      	lsrs	r0, r7, #3
    4f46:	0767      	lsls	r7, r4, #29
    4f48:	4307      	orrs	r7, r0
    4f4a:	2080      	movs	r0, #128	; 0x80
    4f4c:	08e4      	lsrs	r4, r4, #3
    4f4e:	0300      	lsls	r0, r0, #12
    4f50:	4204      	tst	r4, r0
    4f52:	d008      	beq.n	4f66 <__aeabi_dadd+0x54e>
    4f54:	08dd      	lsrs	r5, r3, #3
    4f56:	4205      	tst	r5, r0
    4f58:	d105      	bne.n	4f66 <__aeabi_dadd+0x54e>
    4f5a:	08d2      	lsrs	r2, r2, #3
    4f5c:	0759      	lsls	r1, r3, #29
    4f5e:	4311      	orrs	r1, r2
    4f60:	000f      	movs	r7, r1
    4f62:	002c      	movs	r4, r5
    4f64:	46d8      	mov	r8, fp
    4f66:	0f7b      	lsrs	r3, r7, #29
    4f68:	00e4      	lsls	r4, r4, #3
    4f6a:	431c      	orrs	r4, r3
    4f6c:	00ff      	lsls	r7, r7, #3
    4f6e:	4e30      	ldr	r6, [pc, #192]	; (5030 <__aeabi_dadd+0x618>)
    4f70:	e5d6      	b.n	4b20 <__aeabi_dadd+0x108>
    4f72:	000c      	movs	r4, r1
    4f74:	0017      	movs	r7, r2
    4f76:	0006      	movs	r6, r0
    4f78:	e5d2      	b.n	4b20 <__aeabi_dadd+0x108>
    4f7a:	2b00      	cmp	r3, #0
    4f7c:	d038      	beq.n	4ff0 <__aeabi_dadd+0x5d8>
    4f7e:	000b      	movs	r3, r1
    4f80:	4313      	orrs	r3, r2
    4f82:	d100      	bne.n	4f86 <__aeabi_dadd+0x56e>
    4f84:	e742      	b.n	4e0c <__aeabi_dadd+0x3f4>
    4f86:	08f8      	lsrs	r0, r7, #3
    4f88:	0767      	lsls	r7, r4, #29
    4f8a:	4307      	orrs	r7, r0
    4f8c:	2080      	movs	r0, #128	; 0x80
    4f8e:	08e4      	lsrs	r4, r4, #3
    4f90:	0300      	lsls	r0, r0, #12
    4f92:	4204      	tst	r4, r0
    4f94:	d0e7      	beq.n	4f66 <__aeabi_dadd+0x54e>
    4f96:	08cb      	lsrs	r3, r1, #3
    4f98:	4203      	tst	r3, r0
    4f9a:	d1e4      	bne.n	4f66 <__aeabi_dadd+0x54e>
    4f9c:	08d2      	lsrs	r2, r2, #3
    4f9e:	0749      	lsls	r1, r1, #29
    4fa0:	4311      	orrs	r1, r2
    4fa2:	000f      	movs	r7, r1
    4fa4:	001c      	movs	r4, r3
    4fa6:	e7de      	b.n	4f66 <__aeabi_dadd+0x54e>
    4fa8:	2700      	movs	r7, #0
    4faa:	2400      	movs	r4, #0
    4fac:	e5d5      	b.n	4b5a <__aeabi_dadd+0x142>
    4fae:	2100      	movs	r1, #0
    4fb0:	e76b      	b.n	4e8a <__aeabi_dadd+0x472>
    4fb2:	2500      	movs	r5, #0
    4fb4:	2700      	movs	r7, #0
    4fb6:	e5f3      	b.n	4ba0 <__aeabi_dadd+0x188>
    4fb8:	464e      	mov	r6, r9
    4fba:	0025      	movs	r5, r4
    4fbc:	3e20      	subs	r6, #32
    4fbe:	40f5      	lsrs	r5, r6
    4fc0:	464b      	mov	r3, r9
    4fc2:	002e      	movs	r6, r5
    4fc4:	2b20      	cmp	r3, #32
    4fc6:	d02d      	beq.n	5024 <__aeabi_dadd+0x60c>
    4fc8:	2540      	movs	r5, #64	; 0x40
    4fca:	1aed      	subs	r5, r5, r3
    4fcc:	40ac      	lsls	r4, r5
    4fce:	4327      	orrs	r7, r4
    4fd0:	1e7c      	subs	r4, r7, #1
    4fd2:	41a7      	sbcs	r7, r4
    4fd4:	2400      	movs	r4, #0
    4fd6:	4337      	orrs	r7, r6
    4fd8:	e6c9      	b.n	4d6e <__aeabi_dadd+0x356>
    4fda:	2480      	movs	r4, #128	; 0x80
    4fdc:	2500      	movs	r5, #0
    4fde:	0324      	lsls	r4, r4, #12
    4fe0:	4e13      	ldr	r6, [pc, #76]	; (5030 <__aeabi_dadd+0x618>)
    4fe2:	2700      	movs	r7, #0
    4fe4:	e5dc      	b.n	4ba0 <__aeabi_dadd+0x188>
    4fe6:	4327      	orrs	r7, r4
    4fe8:	1e7c      	subs	r4, r7, #1
    4fea:	41a7      	sbcs	r7, r4
    4fec:	2400      	movs	r4, #0
    4fee:	e779      	b.n	4ee4 <__aeabi_dadd+0x4cc>
    4ff0:	000c      	movs	r4, r1
    4ff2:	0017      	movs	r7, r2
    4ff4:	4e0e      	ldr	r6, [pc, #56]	; (5030 <__aeabi_dadd+0x618>)
    4ff6:	e593      	b.n	4b20 <__aeabi_dadd+0x108>
    4ff8:	000c      	movs	r4, r1
    4ffa:	0017      	movs	r7, r2
    4ffc:	e590      	b.n	4b20 <__aeabi_dadd+0x108>
    4ffe:	4656      	mov	r6, sl
    5000:	0023      	movs	r3, r4
    5002:	3e20      	subs	r6, #32
    5004:	40f3      	lsrs	r3, r6
    5006:	4699      	mov	r9, r3
    5008:	4653      	mov	r3, sl
    500a:	2b20      	cmp	r3, #32
    500c:	d00e      	beq.n	502c <__aeabi_dadd+0x614>
    500e:	2340      	movs	r3, #64	; 0x40
    5010:	4656      	mov	r6, sl
    5012:	1b9b      	subs	r3, r3, r6
    5014:	409c      	lsls	r4, r3
    5016:	4327      	orrs	r7, r4
    5018:	1e7c      	subs	r4, r7, #1
    501a:	41a7      	sbcs	r7, r4
    501c:	464b      	mov	r3, r9
    501e:	2400      	movs	r4, #0
    5020:	431f      	orrs	r7, r3
    5022:	e75f      	b.n	4ee4 <__aeabi_dadd+0x4cc>
    5024:	2400      	movs	r4, #0
    5026:	e7d2      	b.n	4fce <__aeabi_dadd+0x5b6>
    5028:	0017      	movs	r7, r2
    502a:	e5b2      	b.n	4b92 <__aeabi_dadd+0x17a>
    502c:	2400      	movs	r4, #0
    502e:	e7f2      	b.n	5016 <__aeabi_dadd+0x5fe>
    5030:	000007ff 	.word	0x000007ff
    5034:	ff7fffff 	.word	0xff7fffff

00005038 <__aeabi_ddiv>:
    5038:	b5f0      	push	{r4, r5, r6, r7, lr}
    503a:	4657      	mov	r7, sl
    503c:	4645      	mov	r5, r8
    503e:	46de      	mov	lr, fp
    5040:	464e      	mov	r6, r9
    5042:	b5e0      	push	{r5, r6, r7, lr}
    5044:	004c      	lsls	r4, r1, #1
    5046:	030e      	lsls	r6, r1, #12
    5048:	b087      	sub	sp, #28
    504a:	4683      	mov	fp, r0
    504c:	4692      	mov	sl, r2
    504e:	001d      	movs	r5, r3
    5050:	4680      	mov	r8, r0
    5052:	0b36      	lsrs	r6, r6, #12
    5054:	0d64      	lsrs	r4, r4, #21
    5056:	0fcf      	lsrs	r7, r1, #31
    5058:	2c00      	cmp	r4, #0
    505a:	d04f      	beq.n	50fc <__aeabi_ddiv+0xc4>
    505c:	4b6f      	ldr	r3, [pc, #444]	; (521c <__aeabi_ddiv+0x1e4>)
    505e:	429c      	cmp	r4, r3
    5060:	d035      	beq.n	50ce <__aeabi_ddiv+0x96>
    5062:	2380      	movs	r3, #128	; 0x80
    5064:	0f42      	lsrs	r2, r0, #29
    5066:	041b      	lsls	r3, r3, #16
    5068:	00f6      	lsls	r6, r6, #3
    506a:	4313      	orrs	r3, r2
    506c:	4333      	orrs	r3, r6
    506e:	4699      	mov	r9, r3
    5070:	00c3      	lsls	r3, r0, #3
    5072:	4698      	mov	r8, r3
    5074:	4b6a      	ldr	r3, [pc, #424]	; (5220 <__aeabi_ddiv+0x1e8>)
    5076:	2600      	movs	r6, #0
    5078:	469c      	mov	ip, r3
    507a:	2300      	movs	r3, #0
    507c:	4464      	add	r4, ip
    507e:	9303      	str	r3, [sp, #12]
    5080:	032b      	lsls	r3, r5, #12
    5082:	0b1b      	lsrs	r3, r3, #12
    5084:	469b      	mov	fp, r3
    5086:	006b      	lsls	r3, r5, #1
    5088:	0fed      	lsrs	r5, r5, #31
    508a:	4650      	mov	r0, sl
    508c:	0d5b      	lsrs	r3, r3, #21
    508e:	9501      	str	r5, [sp, #4]
    5090:	d05e      	beq.n	5150 <__aeabi_ddiv+0x118>
    5092:	4a62      	ldr	r2, [pc, #392]	; (521c <__aeabi_ddiv+0x1e4>)
    5094:	4293      	cmp	r3, r2
    5096:	d053      	beq.n	5140 <__aeabi_ddiv+0x108>
    5098:	465a      	mov	r2, fp
    509a:	00d1      	lsls	r1, r2, #3
    509c:	2280      	movs	r2, #128	; 0x80
    509e:	0f40      	lsrs	r0, r0, #29
    50a0:	0412      	lsls	r2, r2, #16
    50a2:	4302      	orrs	r2, r0
    50a4:	430a      	orrs	r2, r1
    50a6:	4693      	mov	fp, r2
    50a8:	4652      	mov	r2, sl
    50aa:	00d1      	lsls	r1, r2, #3
    50ac:	4a5c      	ldr	r2, [pc, #368]	; (5220 <__aeabi_ddiv+0x1e8>)
    50ae:	4694      	mov	ip, r2
    50b0:	2200      	movs	r2, #0
    50b2:	4463      	add	r3, ip
    50b4:	0038      	movs	r0, r7
    50b6:	4068      	eors	r0, r5
    50b8:	4684      	mov	ip, r0
    50ba:	9002      	str	r0, [sp, #8]
    50bc:	1ae4      	subs	r4, r4, r3
    50be:	4316      	orrs	r6, r2
    50c0:	2e0f      	cmp	r6, #15
    50c2:	d900      	bls.n	50c6 <__aeabi_ddiv+0x8e>
    50c4:	e0b4      	b.n	5230 <__aeabi_ddiv+0x1f8>
    50c6:	4b57      	ldr	r3, [pc, #348]	; (5224 <__aeabi_ddiv+0x1ec>)
    50c8:	00b6      	lsls	r6, r6, #2
    50ca:	599b      	ldr	r3, [r3, r6]
    50cc:	469f      	mov	pc, r3
    50ce:	0003      	movs	r3, r0
    50d0:	4333      	orrs	r3, r6
    50d2:	4699      	mov	r9, r3
    50d4:	d16c      	bne.n	51b0 <__aeabi_ddiv+0x178>
    50d6:	2300      	movs	r3, #0
    50d8:	4698      	mov	r8, r3
    50da:	3302      	adds	r3, #2
    50dc:	2608      	movs	r6, #8
    50de:	9303      	str	r3, [sp, #12]
    50e0:	e7ce      	b.n	5080 <__aeabi_ddiv+0x48>
    50e2:	46cb      	mov	fp, r9
    50e4:	4641      	mov	r1, r8
    50e6:	9a03      	ldr	r2, [sp, #12]
    50e8:	9701      	str	r7, [sp, #4]
    50ea:	2a02      	cmp	r2, #2
    50ec:	d165      	bne.n	51ba <__aeabi_ddiv+0x182>
    50ee:	9b01      	ldr	r3, [sp, #4]
    50f0:	4c4a      	ldr	r4, [pc, #296]	; (521c <__aeabi_ddiv+0x1e4>)
    50f2:	469c      	mov	ip, r3
    50f4:	2300      	movs	r3, #0
    50f6:	2200      	movs	r2, #0
    50f8:	4698      	mov	r8, r3
    50fa:	e06b      	b.n	51d4 <__aeabi_ddiv+0x19c>
    50fc:	0003      	movs	r3, r0
    50fe:	4333      	orrs	r3, r6
    5100:	4699      	mov	r9, r3
    5102:	d04e      	beq.n	51a2 <__aeabi_ddiv+0x16a>
    5104:	2e00      	cmp	r6, #0
    5106:	d100      	bne.n	510a <__aeabi_ddiv+0xd2>
    5108:	e1bc      	b.n	5484 <__aeabi_ddiv+0x44c>
    510a:	0030      	movs	r0, r6
    510c:	f001 f8ca 	bl	62a4 <__clzsi2>
    5110:	0003      	movs	r3, r0
    5112:	3b0b      	subs	r3, #11
    5114:	2b1c      	cmp	r3, #28
    5116:	dd00      	ble.n	511a <__aeabi_ddiv+0xe2>
    5118:	e1ac      	b.n	5474 <__aeabi_ddiv+0x43c>
    511a:	221d      	movs	r2, #29
    511c:	1ad3      	subs	r3, r2, r3
    511e:	465a      	mov	r2, fp
    5120:	0001      	movs	r1, r0
    5122:	40da      	lsrs	r2, r3
    5124:	3908      	subs	r1, #8
    5126:	408e      	lsls	r6, r1
    5128:	0013      	movs	r3, r2
    512a:	4333      	orrs	r3, r6
    512c:	4699      	mov	r9, r3
    512e:	465b      	mov	r3, fp
    5130:	408b      	lsls	r3, r1
    5132:	4698      	mov	r8, r3
    5134:	2300      	movs	r3, #0
    5136:	4c3c      	ldr	r4, [pc, #240]	; (5228 <__aeabi_ddiv+0x1f0>)
    5138:	2600      	movs	r6, #0
    513a:	1a24      	subs	r4, r4, r0
    513c:	9303      	str	r3, [sp, #12]
    513e:	e79f      	b.n	5080 <__aeabi_ddiv+0x48>
    5140:	4651      	mov	r1, sl
    5142:	465a      	mov	r2, fp
    5144:	4311      	orrs	r1, r2
    5146:	d129      	bne.n	519c <__aeabi_ddiv+0x164>
    5148:	2200      	movs	r2, #0
    514a:	4693      	mov	fp, r2
    514c:	3202      	adds	r2, #2
    514e:	e7b1      	b.n	50b4 <__aeabi_ddiv+0x7c>
    5150:	4659      	mov	r1, fp
    5152:	4301      	orrs	r1, r0
    5154:	d01e      	beq.n	5194 <__aeabi_ddiv+0x15c>
    5156:	465b      	mov	r3, fp
    5158:	2b00      	cmp	r3, #0
    515a:	d100      	bne.n	515e <__aeabi_ddiv+0x126>
    515c:	e19e      	b.n	549c <__aeabi_ddiv+0x464>
    515e:	4658      	mov	r0, fp
    5160:	f001 f8a0 	bl	62a4 <__clzsi2>
    5164:	0003      	movs	r3, r0
    5166:	3b0b      	subs	r3, #11
    5168:	2b1c      	cmp	r3, #28
    516a:	dd00      	ble.n	516e <__aeabi_ddiv+0x136>
    516c:	e18f      	b.n	548e <__aeabi_ddiv+0x456>
    516e:	0002      	movs	r2, r0
    5170:	4659      	mov	r1, fp
    5172:	3a08      	subs	r2, #8
    5174:	4091      	lsls	r1, r2
    5176:	468b      	mov	fp, r1
    5178:	211d      	movs	r1, #29
    517a:	1acb      	subs	r3, r1, r3
    517c:	4651      	mov	r1, sl
    517e:	40d9      	lsrs	r1, r3
    5180:	000b      	movs	r3, r1
    5182:	4659      	mov	r1, fp
    5184:	430b      	orrs	r3, r1
    5186:	4651      	mov	r1, sl
    5188:	469b      	mov	fp, r3
    518a:	4091      	lsls	r1, r2
    518c:	4b26      	ldr	r3, [pc, #152]	; (5228 <__aeabi_ddiv+0x1f0>)
    518e:	2200      	movs	r2, #0
    5190:	1a1b      	subs	r3, r3, r0
    5192:	e78f      	b.n	50b4 <__aeabi_ddiv+0x7c>
    5194:	2300      	movs	r3, #0
    5196:	2201      	movs	r2, #1
    5198:	469b      	mov	fp, r3
    519a:	e78b      	b.n	50b4 <__aeabi_ddiv+0x7c>
    519c:	4651      	mov	r1, sl
    519e:	2203      	movs	r2, #3
    51a0:	e788      	b.n	50b4 <__aeabi_ddiv+0x7c>
    51a2:	2300      	movs	r3, #0
    51a4:	4698      	mov	r8, r3
    51a6:	3301      	adds	r3, #1
    51a8:	2604      	movs	r6, #4
    51aa:	2400      	movs	r4, #0
    51ac:	9303      	str	r3, [sp, #12]
    51ae:	e767      	b.n	5080 <__aeabi_ddiv+0x48>
    51b0:	2303      	movs	r3, #3
    51b2:	46b1      	mov	r9, r6
    51b4:	9303      	str	r3, [sp, #12]
    51b6:	260c      	movs	r6, #12
    51b8:	e762      	b.n	5080 <__aeabi_ddiv+0x48>
    51ba:	2a03      	cmp	r2, #3
    51bc:	d100      	bne.n	51c0 <__aeabi_ddiv+0x188>
    51be:	e25c      	b.n	567a <__aeabi_ddiv+0x642>
    51c0:	9b01      	ldr	r3, [sp, #4]
    51c2:	2a01      	cmp	r2, #1
    51c4:	d000      	beq.n	51c8 <__aeabi_ddiv+0x190>
    51c6:	e1e4      	b.n	5592 <__aeabi_ddiv+0x55a>
    51c8:	4013      	ands	r3, r2
    51ca:	469c      	mov	ip, r3
    51cc:	2300      	movs	r3, #0
    51ce:	2400      	movs	r4, #0
    51d0:	2200      	movs	r2, #0
    51d2:	4698      	mov	r8, r3
    51d4:	2100      	movs	r1, #0
    51d6:	0312      	lsls	r2, r2, #12
    51d8:	0b13      	lsrs	r3, r2, #12
    51da:	0d0a      	lsrs	r2, r1, #20
    51dc:	0512      	lsls	r2, r2, #20
    51de:	431a      	orrs	r2, r3
    51e0:	0523      	lsls	r3, r4, #20
    51e2:	4c12      	ldr	r4, [pc, #72]	; (522c <__aeabi_ddiv+0x1f4>)
    51e4:	4640      	mov	r0, r8
    51e6:	4022      	ands	r2, r4
    51e8:	4313      	orrs	r3, r2
    51ea:	4662      	mov	r2, ip
    51ec:	005b      	lsls	r3, r3, #1
    51ee:	07d2      	lsls	r2, r2, #31
    51f0:	085b      	lsrs	r3, r3, #1
    51f2:	4313      	orrs	r3, r2
    51f4:	0019      	movs	r1, r3
    51f6:	b007      	add	sp, #28
    51f8:	bc3c      	pop	{r2, r3, r4, r5}
    51fa:	4690      	mov	r8, r2
    51fc:	4699      	mov	r9, r3
    51fe:	46a2      	mov	sl, r4
    5200:	46ab      	mov	fp, r5
    5202:	bdf0      	pop	{r4, r5, r6, r7, pc}
    5204:	2300      	movs	r3, #0
    5206:	2280      	movs	r2, #128	; 0x80
    5208:	469c      	mov	ip, r3
    520a:	0312      	lsls	r2, r2, #12
    520c:	4698      	mov	r8, r3
    520e:	4c03      	ldr	r4, [pc, #12]	; (521c <__aeabi_ddiv+0x1e4>)
    5210:	e7e0      	b.n	51d4 <__aeabi_ddiv+0x19c>
    5212:	2300      	movs	r3, #0
    5214:	4c01      	ldr	r4, [pc, #4]	; (521c <__aeabi_ddiv+0x1e4>)
    5216:	2200      	movs	r2, #0
    5218:	4698      	mov	r8, r3
    521a:	e7db      	b.n	51d4 <__aeabi_ddiv+0x19c>
    521c:	000007ff 	.word	0x000007ff
    5220:	fffffc01 	.word	0xfffffc01
    5224:	00006d04 	.word	0x00006d04
    5228:	fffffc0d 	.word	0xfffffc0d
    522c:	800fffff 	.word	0x800fffff
    5230:	45d9      	cmp	r9, fp
    5232:	d900      	bls.n	5236 <__aeabi_ddiv+0x1fe>
    5234:	e139      	b.n	54aa <__aeabi_ddiv+0x472>
    5236:	d100      	bne.n	523a <__aeabi_ddiv+0x202>
    5238:	e134      	b.n	54a4 <__aeabi_ddiv+0x46c>
    523a:	2300      	movs	r3, #0
    523c:	4646      	mov	r6, r8
    523e:	464d      	mov	r5, r9
    5240:	469a      	mov	sl, r3
    5242:	3c01      	subs	r4, #1
    5244:	465b      	mov	r3, fp
    5246:	0e0a      	lsrs	r2, r1, #24
    5248:	021b      	lsls	r3, r3, #8
    524a:	431a      	orrs	r2, r3
    524c:	020b      	lsls	r3, r1, #8
    524e:	0c17      	lsrs	r7, r2, #16
    5250:	9303      	str	r3, [sp, #12]
    5252:	0413      	lsls	r3, r2, #16
    5254:	0c1b      	lsrs	r3, r3, #16
    5256:	0039      	movs	r1, r7
    5258:	0028      	movs	r0, r5
    525a:	4690      	mov	r8, r2
    525c:	9301      	str	r3, [sp, #4]
    525e:	f7ff fa3b 	bl	46d8 <__udivsi3>
    5262:	0002      	movs	r2, r0
    5264:	9b01      	ldr	r3, [sp, #4]
    5266:	4683      	mov	fp, r0
    5268:	435a      	muls	r2, r3
    526a:	0028      	movs	r0, r5
    526c:	0039      	movs	r1, r7
    526e:	4691      	mov	r9, r2
    5270:	f7ff fab8 	bl	47e4 <__aeabi_uidivmod>
    5274:	0c35      	lsrs	r5, r6, #16
    5276:	0409      	lsls	r1, r1, #16
    5278:	430d      	orrs	r5, r1
    527a:	45a9      	cmp	r9, r5
    527c:	d90d      	bls.n	529a <__aeabi_ddiv+0x262>
    527e:	465b      	mov	r3, fp
    5280:	4445      	add	r5, r8
    5282:	3b01      	subs	r3, #1
    5284:	45a8      	cmp	r8, r5
    5286:	d900      	bls.n	528a <__aeabi_ddiv+0x252>
    5288:	e13a      	b.n	5500 <__aeabi_ddiv+0x4c8>
    528a:	45a9      	cmp	r9, r5
    528c:	d800      	bhi.n	5290 <__aeabi_ddiv+0x258>
    528e:	e137      	b.n	5500 <__aeabi_ddiv+0x4c8>
    5290:	2302      	movs	r3, #2
    5292:	425b      	negs	r3, r3
    5294:	469c      	mov	ip, r3
    5296:	4445      	add	r5, r8
    5298:	44e3      	add	fp, ip
    529a:	464b      	mov	r3, r9
    529c:	1aeb      	subs	r3, r5, r3
    529e:	0039      	movs	r1, r7
    52a0:	0018      	movs	r0, r3
    52a2:	9304      	str	r3, [sp, #16]
    52a4:	f7ff fa18 	bl	46d8 <__udivsi3>
    52a8:	9b01      	ldr	r3, [sp, #4]
    52aa:	0005      	movs	r5, r0
    52ac:	4343      	muls	r3, r0
    52ae:	0039      	movs	r1, r7
    52b0:	9804      	ldr	r0, [sp, #16]
    52b2:	4699      	mov	r9, r3
    52b4:	f7ff fa96 	bl	47e4 <__aeabi_uidivmod>
    52b8:	0433      	lsls	r3, r6, #16
    52ba:	0409      	lsls	r1, r1, #16
    52bc:	0c1b      	lsrs	r3, r3, #16
    52be:	430b      	orrs	r3, r1
    52c0:	4599      	cmp	r9, r3
    52c2:	d909      	bls.n	52d8 <__aeabi_ddiv+0x2a0>
    52c4:	4443      	add	r3, r8
    52c6:	1e6a      	subs	r2, r5, #1
    52c8:	4598      	cmp	r8, r3
    52ca:	d900      	bls.n	52ce <__aeabi_ddiv+0x296>
    52cc:	e11a      	b.n	5504 <__aeabi_ddiv+0x4cc>
    52ce:	4599      	cmp	r9, r3
    52d0:	d800      	bhi.n	52d4 <__aeabi_ddiv+0x29c>
    52d2:	e117      	b.n	5504 <__aeabi_ddiv+0x4cc>
    52d4:	3d02      	subs	r5, #2
    52d6:	4443      	add	r3, r8
    52d8:	464a      	mov	r2, r9
    52da:	1a9b      	subs	r3, r3, r2
    52dc:	465a      	mov	r2, fp
    52de:	0412      	lsls	r2, r2, #16
    52e0:	432a      	orrs	r2, r5
    52e2:	9903      	ldr	r1, [sp, #12]
    52e4:	4693      	mov	fp, r2
    52e6:	0c10      	lsrs	r0, r2, #16
    52e8:	0c0a      	lsrs	r2, r1, #16
    52ea:	4691      	mov	r9, r2
    52ec:	0409      	lsls	r1, r1, #16
    52ee:	465a      	mov	r2, fp
    52f0:	0c09      	lsrs	r1, r1, #16
    52f2:	464e      	mov	r6, r9
    52f4:	000d      	movs	r5, r1
    52f6:	0412      	lsls	r2, r2, #16
    52f8:	0c12      	lsrs	r2, r2, #16
    52fa:	4345      	muls	r5, r0
    52fc:	9105      	str	r1, [sp, #20]
    52fe:	4351      	muls	r1, r2
    5300:	4372      	muls	r2, r6
    5302:	4370      	muls	r0, r6
    5304:	1952      	adds	r2, r2, r5
    5306:	0c0e      	lsrs	r6, r1, #16
    5308:	18b2      	adds	r2, r6, r2
    530a:	4295      	cmp	r5, r2
    530c:	d903      	bls.n	5316 <__aeabi_ddiv+0x2de>
    530e:	2580      	movs	r5, #128	; 0x80
    5310:	026d      	lsls	r5, r5, #9
    5312:	46ac      	mov	ip, r5
    5314:	4460      	add	r0, ip
    5316:	0c15      	lsrs	r5, r2, #16
    5318:	0409      	lsls	r1, r1, #16
    531a:	0412      	lsls	r2, r2, #16
    531c:	0c09      	lsrs	r1, r1, #16
    531e:	1828      	adds	r0, r5, r0
    5320:	1852      	adds	r2, r2, r1
    5322:	4283      	cmp	r3, r0
    5324:	d200      	bcs.n	5328 <__aeabi_ddiv+0x2f0>
    5326:	e0ce      	b.n	54c6 <__aeabi_ddiv+0x48e>
    5328:	d100      	bne.n	532c <__aeabi_ddiv+0x2f4>
    532a:	e0c8      	b.n	54be <__aeabi_ddiv+0x486>
    532c:	1a1d      	subs	r5, r3, r0
    532e:	4653      	mov	r3, sl
    5330:	1a9e      	subs	r6, r3, r2
    5332:	45b2      	cmp	sl, r6
    5334:	4192      	sbcs	r2, r2
    5336:	4252      	negs	r2, r2
    5338:	1aab      	subs	r3, r5, r2
    533a:	469a      	mov	sl, r3
    533c:	4598      	cmp	r8, r3
    533e:	d100      	bne.n	5342 <__aeabi_ddiv+0x30a>
    5340:	e117      	b.n	5572 <__aeabi_ddiv+0x53a>
    5342:	0039      	movs	r1, r7
    5344:	0018      	movs	r0, r3
    5346:	f7ff f9c7 	bl	46d8 <__udivsi3>
    534a:	9b01      	ldr	r3, [sp, #4]
    534c:	0005      	movs	r5, r0
    534e:	4343      	muls	r3, r0
    5350:	0039      	movs	r1, r7
    5352:	4650      	mov	r0, sl
    5354:	9304      	str	r3, [sp, #16]
    5356:	f7ff fa45 	bl	47e4 <__aeabi_uidivmod>
    535a:	9804      	ldr	r0, [sp, #16]
    535c:	040b      	lsls	r3, r1, #16
    535e:	0c31      	lsrs	r1, r6, #16
    5360:	4319      	orrs	r1, r3
    5362:	4288      	cmp	r0, r1
    5364:	d909      	bls.n	537a <__aeabi_ddiv+0x342>
    5366:	4441      	add	r1, r8
    5368:	1e6b      	subs	r3, r5, #1
    536a:	4588      	cmp	r8, r1
    536c:	d900      	bls.n	5370 <__aeabi_ddiv+0x338>
    536e:	e107      	b.n	5580 <__aeabi_ddiv+0x548>
    5370:	4288      	cmp	r0, r1
    5372:	d800      	bhi.n	5376 <__aeabi_ddiv+0x33e>
    5374:	e104      	b.n	5580 <__aeabi_ddiv+0x548>
    5376:	3d02      	subs	r5, #2
    5378:	4441      	add	r1, r8
    537a:	9b04      	ldr	r3, [sp, #16]
    537c:	1acb      	subs	r3, r1, r3
    537e:	0018      	movs	r0, r3
    5380:	0039      	movs	r1, r7
    5382:	9304      	str	r3, [sp, #16]
    5384:	f7ff f9a8 	bl	46d8 <__udivsi3>
    5388:	9b01      	ldr	r3, [sp, #4]
    538a:	4682      	mov	sl, r0
    538c:	4343      	muls	r3, r0
    538e:	0039      	movs	r1, r7
    5390:	9804      	ldr	r0, [sp, #16]
    5392:	9301      	str	r3, [sp, #4]
    5394:	f7ff fa26 	bl	47e4 <__aeabi_uidivmod>
    5398:	9801      	ldr	r0, [sp, #4]
    539a:	040b      	lsls	r3, r1, #16
    539c:	0431      	lsls	r1, r6, #16
    539e:	0c09      	lsrs	r1, r1, #16
    53a0:	4319      	orrs	r1, r3
    53a2:	4288      	cmp	r0, r1
    53a4:	d90d      	bls.n	53c2 <__aeabi_ddiv+0x38a>
    53a6:	4653      	mov	r3, sl
    53a8:	4441      	add	r1, r8
    53aa:	3b01      	subs	r3, #1
    53ac:	4588      	cmp	r8, r1
    53ae:	d900      	bls.n	53b2 <__aeabi_ddiv+0x37a>
    53b0:	e0e8      	b.n	5584 <__aeabi_ddiv+0x54c>
    53b2:	4288      	cmp	r0, r1
    53b4:	d800      	bhi.n	53b8 <__aeabi_ddiv+0x380>
    53b6:	e0e5      	b.n	5584 <__aeabi_ddiv+0x54c>
    53b8:	2302      	movs	r3, #2
    53ba:	425b      	negs	r3, r3
    53bc:	469c      	mov	ip, r3
    53be:	4441      	add	r1, r8
    53c0:	44e2      	add	sl, ip
    53c2:	9b01      	ldr	r3, [sp, #4]
    53c4:	042d      	lsls	r5, r5, #16
    53c6:	1ace      	subs	r6, r1, r3
    53c8:	4651      	mov	r1, sl
    53ca:	4329      	orrs	r1, r5
    53cc:	9d05      	ldr	r5, [sp, #20]
    53ce:	464f      	mov	r7, r9
    53d0:	002a      	movs	r2, r5
    53d2:	040b      	lsls	r3, r1, #16
    53d4:	0c08      	lsrs	r0, r1, #16
    53d6:	0c1b      	lsrs	r3, r3, #16
    53d8:	435a      	muls	r2, r3
    53da:	4345      	muls	r5, r0
    53dc:	437b      	muls	r3, r7
    53de:	4378      	muls	r0, r7
    53e0:	195b      	adds	r3, r3, r5
    53e2:	0c17      	lsrs	r7, r2, #16
    53e4:	18fb      	adds	r3, r7, r3
    53e6:	429d      	cmp	r5, r3
    53e8:	d903      	bls.n	53f2 <__aeabi_ddiv+0x3ba>
    53ea:	2580      	movs	r5, #128	; 0x80
    53ec:	026d      	lsls	r5, r5, #9
    53ee:	46ac      	mov	ip, r5
    53f0:	4460      	add	r0, ip
    53f2:	0c1d      	lsrs	r5, r3, #16
    53f4:	0412      	lsls	r2, r2, #16
    53f6:	041b      	lsls	r3, r3, #16
    53f8:	0c12      	lsrs	r2, r2, #16
    53fa:	1828      	adds	r0, r5, r0
    53fc:	189b      	adds	r3, r3, r2
    53fe:	4286      	cmp	r6, r0
    5400:	d200      	bcs.n	5404 <__aeabi_ddiv+0x3cc>
    5402:	e093      	b.n	552c <__aeabi_ddiv+0x4f4>
    5404:	d100      	bne.n	5408 <__aeabi_ddiv+0x3d0>
    5406:	e08e      	b.n	5526 <__aeabi_ddiv+0x4ee>
    5408:	2301      	movs	r3, #1
    540a:	4319      	orrs	r1, r3
    540c:	4ba0      	ldr	r3, [pc, #640]	; (5690 <__aeabi_ddiv+0x658>)
    540e:	18e3      	adds	r3, r4, r3
    5410:	2b00      	cmp	r3, #0
    5412:	dc00      	bgt.n	5416 <__aeabi_ddiv+0x3de>
    5414:	e099      	b.n	554a <__aeabi_ddiv+0x512>
    5416:	074a      	lsls	r2, r1, #29
    5418:	d000      	beq.n	541c <__aeabi_ddiv+0x3e4>
    541a:	e09e      	b.n	555a <__aeabi_ddiv+0x522>
    541c:	465a      	mov	r2, fp
    541e:	01d2      	lsls	r2, r2, #7
    5420:	d506      	bpl.n	5430 <__aeabi_ddiv+0x3f8>
    5422:	465a      	mov	r2, fp
    5424:	4b9b      	ldr	r3, [pc, #620]	; (5694 <__aeabi_ddiv+0x65c>)
    5426:	401a      	ands	r2, r3
    5428:	2380      	movs	r3, #128	; 0x80
    542a:	4693      	mov	fp, r2
    542c:	00db      	lsls	r3, r3, #3
    542e:	18e3      	adds	r3, r4, r3
    5430:	4a99      	ldr	r2, [pc, #612]	; (5698 <__aeabi_ddiv+0x660>)
    5432:	4293      	cmp	r3, r2
    5434:	dd68      	ble.n	5508 <__aeabi_ddiv+0x4d0>
    5436:	2301      	movs	r3, #1
    5438:	9a02      	ldr	r2, [sp, #8]
    543a:	4c98      	ldr	r4, [pc, #608]	; (569c <__aeabi_ddiv+0x664>)
    543c:	401a      	ands	r2, r3
    543e:	2300      	movs	r3, #0
    5440:	4694      	mov	ip, r2
    5442:	4698      	mov	r8, r3
    5444:	2200      	movs	r2, #0
    5446:	e6c5      	b.n	51d4 <__aeabi_ddiv+0x19c>
    5448:	2280      	movs	r2, #128	; 0x80
    544a:	464b      	mov	r3, r9
    544c:	0312      	lsls	r2, r2, #12
    544e:	4213      	tst	r3, r2
    5450:	d00a      	beq.n	5468 <__aeabi_ddiv+0x430>
    5452:	465b      	mov	r3, fp
    5454:	4213      	tst	r3, r2
    5456:	d106      	bne.n	5466 <__aeabi_ddiv+0x42e>
    5458:	431a      	orrs	r2, r3
    545a:	0312      	lsls	r2, r2, #12
    545c:	0b12      	lsrs	r2, r2, #12
    545e:	46ac      	mov	ip, r5
    5460:	4688      	mov	r8, r1
    5462:	4c8e      	ldr	r4, [pc, #568]	; (569c <__aeabi_ddiv+0x664>)
    5464:	e6b6      	b.n	51d4 <__aeabi_ddiv+0x19c>
    5466:	464b      	mov	r3, r9
    5468:	431a      	orrs	r2, r3
    546a:	0312      	lsls	r2, r2, #12
    546c:	0b12      	lsrs	r2, r2, #12
    546e:	46bc      	mov	ip, r7
    5470:	4c8a      	ldr	r4, [pc, #552]	; (569c <__aeabi_ddiv+0x664>)
    5472:	e6af      	b.n	51d4 <__aeabi_ddiv+0x19c>
    5474:	0003      	movs	r3, r0
    5476:	465a      	mov	r2, fp
    5478:	3b28      	subs	r3, #40	; 0x28
    547a:	409a      	lsls	r2, r3
    547c:	2300      	movs	r3, #0
    547e:	4691      	mov	r9, r2
    5480:	4698      	mov	r8, r3
    5482:	e657      	b.n	5134 <__aeabi_ddiv+0xfc>
    5484:	4658      	mov	r0, fp
    5486:	f000 ff0d 	bl	62a4 <__clzsi2>
    548a:	3020      	adds	r0, #32
    548c:	e640      	b.n	5110 <__aeabi_ddiv+0xd8>
    548e:	0003      	movs	r3, r0
    5490:	4652      	mov	r2, sl
    5492:	3b28      	subs	r3, #40	; 0x28
    5494:	409a      	lsls	r2, r3
    5496:	2100      	movs	r1, #0
    5498:	4693      	mov	fp, r2
    549a:	e677      	b.n	518c <__aeabi_ddiv+0x154>
    549c:	f000 ff02 	bl	62a4 <__clzsi2>
    54a0:	3020      	adds	r0, #32
    54a2:	e65f      	b.n	5164 <__aeabi_ddiv+0x12c>
    54a4:	4588      	cmp	r8, r1
    54a6:	d200      	bcs.n	54aa <__aeabi_ddiv+0x472>
    54a8:	e6c7      	b.n	523a <__aeabi_ddiv+0x202>
    54aa:	464b      	mov	r3, r9
    54ac:	07de      	lsls	r6, r3, #31
    54ae:	085d      	lsrs	r5, r3, #1
    54b0:	4643      	mov	r3, r8
    54b2:	085b      	lsrs	r3, r3, #1
    54b4:	431e      	orrs	r6, r3
    54b6:	4643      	mov	r3, r8
    54b8:	07db      	lsls	r3, r3, #31
    54ba:	469a      	mov	sl, r3
    54bc:	e6c2      	b.n	5244 <__aeabi_ddiv+0x20c>
    54be:	2500      	movs	r5, #0
    54c0:	4592      	cmp	sl, r2
    54c2:	d300      	bcc.n	54c6 <__aeabi_ddiv+0x48e>
    54c4:	e733      	b.n	532e <__aeabi_ddiv+0x2f6>
    54c6:	9e03      	ldr	r6, [sp, #12]
    54c8:	4659      	mov	r1, fp
    54ca:	46b4      	mov	ip, r6
    54cc:	44e2      	add	sl, ip
    54ce:	45b2      	cmp	sl, r6
    54d0:	41ad      	sbcs	r5, r5
    54d2:	426d      	negs	r5, r5
    54d4:	4445      	add	r5, r8
    54d6:	18eb      	adds	r3, r5, r3
    54d8:	3901      	subs	r1, #1
    54da:	4598      	cmp	r8, r3
    54dc:	d207      	bcs.n	54ee <__aeabi_ddiv+0x4b6>
    54de:	4298      	cmp	r0, r3
    54e0:	d900      	bls.n	54e4 <__aeabi_ddiv+0x4ac>
    54e2:	e07f      	b.n	55e4 <__aeabi_ddiv+0x5ac>
    54e4:	d100      	bne.n	54e8 <__aeabi_ddiv+0x4b0>
    54e6:	e0bc      	b.n	5662 <__aeabi_ddiv+0x62a>
    54e8:	1a1d      	subs	r5, r3, r0
    54ea:	468b      	mov	fp, r1
    54ec:	e71f      	b.n	532e <__aeabi_ddiv+0x2f6>
    54ee:	4598      	cmp	r8, r3
    54f0:	d1fa      	bne.n	54e8 <__aeabi_ddiv+0x4b0>
    54f2:	9d03      	ldr	r5, [sp, #12]
    54f4:	4555      	cmp	r5, sl
    54f6:	d9f2      	bls.n	54de <__aeabi_ddiv+0x4a6>
    54f8:	4643      	mov	r3, r8
    54fa:	468b      	mov	fp, r1
    54fc:	1a1d      	subs	r5, r3, r0
    54fe:	e716      	b.n	532e <__aeabi_ddiv+0x2f6>
    5500:	469b      	mov	fp, r3
    5502:	e6ca      	b.n	529a <__aeabi_ddiv+0x262>
    5504:	0015      	movs	r5, r2
    5506:	e6e7      	b.n	52d8 <__aeabi_ddiv+0x2a0>
    5508:	465a      	mov	r2, fp
    550a:	08c9      	lsrs	r1, r1, #3
    550c:	0752      	lsls	r2, r2, #29
    550e:	430a      	orrs	r2, r1
    5510:	055b      	lsls	r3, r3, #21
    5512:	4690      	mov	r8, r2
    5514:	0d5c      	lsrs	r4, r3, #21
    5516:	465a      	mov	r2, fp
    5518:	2301      	movs	r3, #1
    551a:	9902      	ldr	r1, [sp, #8]
    551c:	0252      	lsls	r2, r2, #9
    551e:	4019      	ands	r1, r3
    5520:	0b12      	lsrs	r2, r2, #12
    5522:	468c      	mov	ip, r1
    5524:	e656      	b.n	51d4 <__aeabi_ddiv+0x19c>
    5526:	2b00      	cmp	r3, #0
    5528:	d100      	bne.n	552c <__aeabi_ddiv+0x4f4>
    552a:	e76f      	b.n	540c <__aeabi_ddiv+0x3d4>
    552c:	4446      	add	r6, r8
    552e:	1e4a      	subs	r2, r1, #1
    5530:	45b0      	cmp	r8, r6
    5532:	d929      	bls.n	5588 <__aeabi_ddiv+0x550>
    5534:	0011      	movs	r1, r2
    5536:	4286      	cmp	r6, r0
    5538:	d000      	beq.n	553c <__aeabi_ddiv+0x504>
    553a:	e765      	b.n	5408 <__aeabi_ddiv+0x3d0>
    553c:	9a03      	ldr	r2, [sp, #12]
    553e:	4293      	cmp	r3, r2
    5540:	d000      	beq.n	5544 <__aeabi_ddiv+0x50c>
    5542:	e761      	b.n	5408 <__aeabi_ddiv+0x3d0>
    5544:	e762      	b.n	540c <__aeabi_ddiv+0x3d4>
    5546:	2101      	movs	r1, #1
    5548:	4249      	negs	r1, r1
    554a:	2001      	movs	r0, #1
    554c:	1ac2      	subs	r2, r0, r3
    554e:	2a38      	cmp	r2, #56	; 0x38
    5550:	dd21      	ble.n	5596 <__aeabi_ddiv+0x55e>
    5552:	9b02      	ldr	r3, [sp, #8]
    5554:	4003      	ands	r3, r0
    5556:	469c      	mov	ip, r3
    5558:	e638      	b.n	51cc <__aeabi_ddiv+0x194>
    555a:	220f      	movs	r2, #15
    555c:	400a      	ands	r2, r1
    555e:	2a04      	cmp	r2, #4
    5560:	d100      	bne.n	5564 <__aeabi_ddiv+0x52c>
    5562:	e75b      	b.n	541c <__aeabi_ddiv+0x3e4>
    5564:	000a      	movs	r2, r1
    5566:	1d11      	adds	r1, r2, #4
    5568:	4291      	cmp	r1, r2
    556a:	4192      	sbcs	r2, r2
    556c:	4252      	negs	r2, r2
    556e:	4493      	add	fp, r2
    5570:	e754      	b.n	541c <__aeabi_ddiv+0x3e4>
    5572:	4b47      	ldr	r3, [pc, #284]	; (5690 <__aeabi_ddiv+0x658>)
    5574:	18e3      	adds	r3, r4, r3
    5576:	2b00      	cmp	r3, #0
    5578:	dde5      	ble.n	5546 <__aeabi_ddiv+0x50e>
    557a:	2201      	movs	r2, #1
    557c:	4252      	negs	r2, r2
    557e:	e7f2      	b.n	5566 <__aeabi_ddiv+0x52e>
    5580:	001d      	movs	r5, r3
    5582:	e6fa      	b.n	537a <__aeabi_ddiv+0x342>
    5584:	469a      	mov	sl, r3
    5586:	e71c      	b.n	53c2 <__aeabi_ddiv+0x38a>
    5588:	42b0      	cmp	r0, r6
    558a:	d839      	bhi.n	5600 <__aeabi_ddiv+0x5c8>
    558c:	d06e      	beq.n	566c <__aeabi_ddiv+0x634>
    558e:	0011      	movs	r1, r2
    5590:	e73a      	b.n	5408 <__aeabi_ddiv+0x3d0>
    5592:	9302      	str	r3, [sp, #8]
    5594:	e73a      	b.n	540c <__aeabi_ddiv+0x3d4>
    5596:	2a1f      	cmp	r2, #31
    5598:	dc3c      	bgt.n	5614 <__aeabi_ddiv+0x5dc>
    559a:	2320      	movs	r3, #32
    559c:	1a9b      	subs	r3, r3, r2
    559e:	000c      	movs	r4, r1
    55a0:	4658      	mov	r0, fp
    55a2:	4099      	lsls	r1, r3
    55a4:	4098      	lsls	r0, r3
    55a6:	1e4b      	subs	r3, r1, #1
    55a8:	4199      	sbcs	r1, r3
    55aa:	465b      	mov	r3, fp
    55ac:	40d4      	lsrs	r4, r2
    55ae:	40d3      	lsrs	r3, r2
    55b0:	4320      	orrs	r0, r4
    55b2:	4308      	orrs	r0, r1
    55b4:	001a      	movs	r2, r3
    55b6:	0743      	lsls	r3, r0, #29
    55b8:	d009      	beq.n	55ce <__aeabi_ddiv+0x596>
    55ba:	230f      	movs	r3, #15
    55bc:	4003      	ands	r3, r0
    55be:	2b04      	cmp	r3, #4
    55c0:	d005      	beq.n	55ce <__aeabi_ddiv+0x596>
    55c2:	0001      	movs	r1, r0
    55c4:	1d08      	adds	r0, r1, #4
    55c6:	4288      	cmp	r0, r1
    55c8:	419b      	sbcs	r3, r3
    55ca:	425b      	negs	r3, r3
    55cc:	18d2      	adds	r2, r2, r3
    55ce:	0213      	lsls	r3, r2, #8
    55d0:	d53a      	bpl.n	5648 <__aeabi_ddiv+0x610>
    55d2:	2301      	movs	r3, #1
    55d4:	9a02      	ldr	r2, [sp, #8]
    55d6:	2401      	movs	r4, #1
    55d8:	401a      	ands	r2, r3
    55da:	2300      	movs	r3, #0
    55dc:	4694      	mov	ip, r2
    55de:	4698      	mov	r8, r3
    55e0:	2200      	movs	r2, #0
    55e2:	e5f7      	b.n	51d4 <__aeabi_ddiv+0x19c>
    55e4:	2102      	movs	r1, #2
    55e6:	4249      	negs	r1, r1
    55e8:	468c      	mov	ip, r1
    55ea:	9d03      	ldr	r5, [sp, #12]
    55ec:	44e3      	add	fp, ip
    55ee:	46ac      	mov	ip, r5
    55f0:	44e2      	add	sl, ip
    55f2:	45aa      	cmp	sl, r5
    55f4:	41ad      	sbcs	r5, r5
    55f6:	426d      	negs	r5, r5
    55f8:	4445      	add	r5, r8
    55fa:	18ed      	adds	r5, r5, r3
    55fc:	1a2d      	subs	r5, r5, r0
    55fe:	e696      	b.n	532e <__aeabi_ddiv+0x2f6>
    5600:	1e8a      	subs	r2, r1, #2
    5602:	9903      	ldr	r1, [sp, #12]
    5604:	004d      	lsls	r5, r1, #1
    5606:	428d      	cmp	r5, r1
    5608:	4189      	sbcs	r1, r1
    560a:	4249      	negs	r1, r1
    560c:	4441      	add	r1, r8
    560e:	1876      	adds	r6, r6, r1
    5610:	9503      	str	r5, [sp, #12]
    5612:	e78f      	b.n	5534 <__aeabi_ddiv+0x4fc>
    5614:	201f      	movs	r0, #31
    5616:	4240      	negs	r0, r0
    5618:	1ac3      	subs	r3, r0, r3
    561a:	4658      	mov	r0, fp
    561c:	40d8      	lsrs	r0, r3
    561e:	0003      	movs	r3, r0
    5620:	2a20      	cmp	r2, #32
    5622:	d028      	beq.n	5676 <__aeabi_ddiv+0x63e>
    5624:	2040      	movs	r0, #64	; 0x40
    5626:	465d      	mov	r5, fp
    5628:	1a82      	subs	r2, r0, r2
    562a:	4095      	lsls	r5, r2
    562c:	4329      	orrs	r1, r5
    562e:	1e4a      	subs	r2, r1, #1
    5630:	4191      	sbcs	r1, r2
    5632:	4319      	orrs	r1, r3
    5634:	2307      	movs	r3, #7
    5636:	2200      	movs	r2, #0
    5638:	400b      	ands	r3, r1
    563a:	d009      	beq.n	5650 <__aeabi_ddiv+0x618>
    563c:	230f      	movs	r3, #15
    563e:	2200      	movs	r2, #0
    5640:	400b      	ands	r3, r1
    5642:	0008      	movs	r0, r1
    5644:	2b04      	cmp	r3, #4
    5646:	d1bd      	bne.n	55c4 <__aeabi_ddiv+0x58c>
    5648:	0001      	movs	r1, r0
    564a:	0753      	lsls	r3, r2, #29
    564c:	0252      	lsls	r2, r2, #9
    564e:	0b12      	lsrs	r2, r2, #12
    5650:	08c9      	lsrs	r1, r1, #3
    5652:	4319      	orrs	r1, r3
    5654:	2301      	movs	r3, #1
    5656:	4688      	mov	r8, r1
    5658:	9902      	ldr	r1, [sp, #8]
    565a:	2400      	movs	r4, #0
    565c:	4019      	ands	r1, r3
    565e:	468c      	mov	ip, r1
    5660:	e5b8      	b.n	51d4 <__aeabi_ddiv+0x19c>
    5662:	4552      	cmp	r2, sl
    5664:	d8be      	bhi.n	55e4 <__aeabi_ddiv+0x5ac>
    5666:	468b      	mov	fp, r1
    5668:	2500      	movs	r5, #0
    566a:	e660      	b.n	532e <__aeabi_ddiv+0x2f6>
    566c:	9d03      	ldr	r5, [sp, #12]
    566e:	429d      	cmp	r5, r3
    5670:	d3c6      	bcc.n	5600 <__aeabi_ddiv+0x5c8>
    5672:	0011      	movs	r1, r2
    5674:	e762      	b.n	553c <__aeabi_ddiv+0x504>
    5676:	2500      	movs	r5, #0
    5678:	e7d8      	b.n	562c <__aeabi_ddiv+0x5f4>
    567a:	2280      	movs	r2, #128	; 0x80
    567c:	465b      	mov	r3, fp
    567e:	0312      	lsls	r2, r2, #12
    5680:	431a      	orrs	r2, r3
    5682:	9b01      	ldr	r3, [sp, #4]
    5684:	0312      	lsls	r2, r2, #12
    5686:	0b12      	lsrs	r2, r2, #12
    5688:	469c      	mov	ip, r3
    568a:	4688      	mov	r8, r1
    568c:	4c03      	ldr	r4, [pc, #12]	; (569c <__aeabi_ddiv+0x664>)
    568e:	e5a1      	b.n	51d4 <__aeabi_ddiv+0x19c>
    5690:	000003ff 	.word	0x000003ff
    5694:	feffffff 	.word	0xfeffffff
    5698:	000007fe 	.word	0x000007fe
    569c:	000007ff 	.word	0x000007ff

000056a0 <__aeabi_dmul>:
    56a0:	b5f0      	push	{r4, r5, r6, r7, lr}
    56a2:	4657      	mov	r7, sl
    56a4:	4645      	mov	r5, r8
    56a6:	46de      	mov	lr, fp
    56a8:	464e      	mov	r6, r9
    56aa:	b5e0      	push	{r5, r6, r7, lr}
    56ac:	030c      	lsls	r4, r1, #12
    56ae:	4698      	mov	r8, r3
    56b0:	004e      	lsls	r6, r1, #1
    56b2:	0b23      	lsrs	r3, r4, #12
    56b4:	b087      	sub	sp, #28
    56b6:	0007      	movs	r7, r0
    56b8:	4692      	mov	sl, r2
    56ba:	469b      	mov	fp, r3
    56bc:	0d76      	lsrs	r6, r6, #21
    56be:	0fcd      	lsrs	r5, r1, #31
    56c0:	2e00      	cmp	r6, #0
    56c2:	d06b      	beq.n	579c <__aeabi_dmul+0xfc>
    56c4:	4b6d      	ldr	r3, [pc, #436]	; (587c <__aeabi_dmul+0x1dc>)
    56c6:	429e      	cmp	r6, r3
    56c8:	d035      	beq.n	5736 <__aeabi_dmul+0x96>
    56ca:	2480      	movs	r4, #128	; 0x80
    56cc:	465b      	mov	r3, fp
    56ce:	0f42      	lsrs	r2, r0, #29
    56d0:	0424      	lsls	r4, r4, #16
    56d2:	00db      	lsls	r3, r3, #3
    56d4:	4314      	orrs	r4, r2
    56d6:	431c      	orrs	r4, r3
    56d8:	00c3      	lsls	r3, r0, #3
    56da:	4699      	mov	r9, r3
    56dc:	4b68      	ldr	r3, [pc, #416]	; (5880 <__aeabi_dmul+0x1e0>)
    56de:	46a3      	mov	fp, r4
    56e0:	469c      	mov	ip, r3
    56e2:	2300      	movs	r3, #0
    56e4:	2700      	movs	r7, #0
    56e6:	4466      	add	r6, ip
    56e8:	9302      	str	r3, [sp, #8]
    56ea:	4643      	mov	r3, r8
    56ec:	031c      	lsls	r4, r3, #12
    56ee:	005a      	lsls	r2, r3, #1
    56f0:	0fdb      	lsrs	r3, r3, #31
    56f2:	4650      	mov	r0, sl
    56f4:	0b24      	lsrs	r4, r4, #12
    56f6:	0d52      	lsrs	r2, r2, #21
    56f8:	4698      	mov	r8, r3
    56fa:	d100      	bne.n	56fe <__aeabi_dmul+0x5e>
    56fc:	e076      	b.n	57ec <__aeabi_dmul+0x14c>
    56fe:	4b5f      	ldr	r3, [pc, #380]	; (587c <__aeabi_dmul+0x1dc>)
    5700:	429a      	cmp	r2, r3
    5702:	d06d      	beq.n	57e0 <__aeabi_dmul+0x140>
    5704:	2380      	movs	r3, #128	; 0x80
    5706:	0f41      	lsrs	r1, r0, #29
    5708:	041b      	lsls	r3, r3, #16
    570a:	430b      	orrs	r3, r1
    570c:	495c      	ldr	r1, [pc, #368]	; (5880 <__aeabi_dmul+0x1e0>)
    570e:	00e4      	lsls	r4, r4, #3
    5710:	468c      	mov	ip, r1
    5712:	431c      	orrs	r4, r3
    5714:	00c3      	lsls	r3, r0, #3
    5716:	2000      	movs	r0, #0
    5718:	4462      	add	r2, ip
    571a:	4641      	mov	r1, r8
    571c:	18b6      	adds	r6, r6, r2
    571e:	4069      	eors	r1, r5
    5720:	1c72      	adds	r2, r6, #1
    5722:	9101      	str	r1, [sp, #4]
    5724:	4694      	mov	ip, r2
    5726:	4307      	orrs	r7, r0
    5728:	2f0f      	cmp	r7, #15
    572a:	d900      	bls.n	572e <__aeabi_dmul+0x8e>
    572c:	e0b0      	b.n	5890 <__aeabi_dmul+0x1f0>
    572e:	4a55      	ldr	r2, [pc, #340]	; (5884 <__aeabi_dmul+0x1e4>)
    5730:	00bf      	lsls	r7, r7, #2
    5732:	59d2      	ldr	r2, [r2, r7]
    5734:	4697      	mov	pc, r2
    5736:	465b      	mov	r3, fp
    5738:	4303      	orrs	r3, r0
    573a:	4699      	mov	r9, r3
    573c:	d000      	beq.n	5740 <__aeabi_dmul+0xa0>
    573e:	e087      	b.n	5850 <__aeabi_dmul+0x1b0>
    5740:	2300      	movs	r3, #0
    5742:	469b      	mov	fp, r3
    5744:	3302      	adds	r3, #2
    5746:	2708      	movs	r7, #8
    5748:	9302      	str	r3, [sp, #8]
    574a:	e7ce      	b.n	56ea <__aeabi_dmul+0x4a>
    574c:	4642      	mov	r2, r8
    574e:	9201      	str	r2, [sp, #4]
    5750:	2802      	cmp	r0, #2
    5752:	d067      	beq.n	5824 <__aeabi_dmul+0x184>
    5754:	2803      	cmp	r0, #3
    5756:	d100      	bne.n	575a <__aeabi_dmul+0xba>
    5758:	e20e      	b.n	5b78 <__aeabi_dmul+0x4d8>
    575a:	2801      	cmp	r0, #1
    575c:	d000      	beq.n	5760 <__aeabi_dmul+0xc0>
    575e:	e162      	b.n	5a26 <__aeabi_dmul+0x386>
    5760:	2300      	movs	r3, #0
    5762:	2400      	movs	r4, #0
    5764:	2200      	movs	r2, #0
    5766:	4699      	mov	r9, r3
    5768:	9901      	ldr	r1, [sp, #4]
    576a:	4001      	ands	r1, r0
    576c:	b2cd      	uxtb	r5, r1
    576e:	2100      	movs	r1, #0
    5770:	0312      	lsls	r2, r2, #12
    5772:	0d0b      	lsrs	r3, r1, #20
    5774:	0b12      	lsrs	r2, r2, #12
    5776:	051b      	lsls	r3, r3, #20
    5778:	4313      	orrs	r3, r2
    577a:	4a43      	ldr	r2, [pc, #268]	; (5888 <__aeabi_dmul+0x1e8>)
    577c:	0524      	lsls	r4, r4, #20
    577e:	4013      	ands	r3, r2
    5780:	431c      	orrs	r4, r3
    5782:	0064      	lsls	r4, r4, #1
    5784:	07ed      	lsls	r5, r5, #31
    5786:	0864      	lsrs	r4, r4, #1
    5788:	432c      	orrs	r4, r5
    578a:	4648      	mov	r0, r9
    578c:	0021      	movs	r1, r4
    578e:	b007      	add	sp, #28
    5790:	bc3c      	pop	{r2, r3, r4, r5}
    5792:	4690      	mov	r8, r2
    5794:	4699      	mov	r9, r3
    5796:	46a2      	mov	sl, r4
    5798:	46ab      	mov	fp, r5
    579a:	bdf0      	pop	{r4, r5, r6, r7, pc}
    579c:	4303      	orrs	r3, r0
    579e:	4699      	mov	r9, r3
    57a0:	d04f      	beq.n	5842 <__aeabi_dmul+0x1a2>
    57a2:	465b      	mov	r3, fp
    57a4:	2b00      	cmp	r3, #0
    57a6:	d100      	bne.n	57aa <__aeabi_dmul+0x10a>
    57a8:	e189      	b.n	5abe <__aeabi_dmul+0x41e>
    57aa:	4658      	mov	r0, fp
    57ac:	f000 fd7a 	bl	62a4 <__clzsi2>
    57b0:	0003      	movs	r3, r0
    57b2:	3b0b      	subs	r3, #11
    57b4:	2b1c      	cmp	r3, #28
    57b6:	dd00      	ble.n	57ba <__aeabi_dmul+0x11a>
    57b8:	e17a      	b.n	5ab0 <__aeabi_dmul+0x410>
    57ba:	221d      	movs	r2, #29
    57bc:	1ad3      	subs	r3, r2, r3
    57be:	003a      	movs	r2, r7
    57c0:	0001      	movs	r1, r0
    57c2:	465c      	mov	r4, fp
    57c4:	40da      	lsrs	r2, r3
    57c6:	3908      	subs	r1, #8
    57c8:	408c      	lsls	r4, r1
    57ca:	0013      	movs	r3, r2
    57cc:	408f      	lsls	r7, r1
    57ce:	4323      	orrs	r3, r4
    57d0:	469b      	mov	fp, r3
    57d2:	46b9      	mov	r9, r7
    57d4:	2300      	movs	r3, #0
    57d6:	4e2d      	ldr	r6, [pc, #180]	; (588c <__aeabi_dmul+0x1ec>)
    57d8:	2700      	movs	r7, #0
    57da:	1a36      	subs	r6, r6, r0
    57dc:	9302      	str	r3, [sp, #8]
    57de:	e784      	b.n	56ea <__aeabi_dmul+0x4a>
    57e0:	4653      	mov	r3, sl
    57e2:	4323      	orrs	r3, r4
    57e4:	d12a      	bne.n	583c <__aeabi_dmul+0x19c>
    57e6:	2400      	movs	r4, #0
    57e8:	2002      	movs	r0, #2
    57ea:	e796      	b.n	571a <__aeabi_dmul+0x7a>
    57ec:	4653      	mov	r3, sl
    57ee:	4323      	orrs	r3, r4
    57f0:	d020      	beq.n	5834 <__aeabi_dmul+0x194>
    57f2:	2c00      	cmp	r4, #0
    57f4:	d100      	bne.n	57f8 <__aeabi_dmul+0x158>
    57f6:	e157      	b.n	5aa8 <__aeabi_dmul+0x408>
    57f8:	0020      	movs	r0, r4
    57fa:	f000 fd53 	bl	62a4 <__clzsi2>
    57fe:	0003      	movs	r3, r0
    5800:	3b0b      	subs	r3, #11
    5802:	2b1c      	cmp	r3, #28
    5804:	dd00      	ble.n	5808 <__aeabi_dmul+0x168>
    5806:	e149      	b.n	5a9c <__aeabi_dmul+0x3fc>
    5808:	211d      	movs	r1, #29
    580a:	1acb      	subs	r3, r1, r3
    580c:	4651      	mov	r1, sl
    580e:	0002      	movs	r2, r0
    5810:	40d9      	lsrs	r1, r3
    5812:	4653      	mov	r3, sl
    5814:	3a08      	subs	r2, #8
    5816:	4094      	lsls	r4, r2
    5818:	4093      	lsls	r3, r2
    581a:	430c      	orrs	r4, r1
    581c:	4a1b      	ldr	r2, [pc, #108]	; (588c <__aeabi_dmul+0x1ec>)
    581e:	1a12      	subs	r2, r2, r0
    5820:	2000      	movs	r0, #0
    5822:	e77a      	b.n	571a <__aeabi_dmul+0x7a>
    5824:	2501      	movs	r5, #1
    5826:	9b01      	ldr	r3, [sp, #4]
    5828:	4c14      	ldr	r4, [pc, #80]	; (587c <__aeabi_dmul+0x1dc>)
    582a:	401d      	ands	r5, r3
    582c:	2300      	movs	r3, #0
    582e:	2200      	movs	r2, #0
    5830:	4699      	mov	r9, r3
    5832:	e79c      	b.n	576e <__aeabi_dmul+0xce>
    5834:	2400      	movs	r4, #0
    5836:	2200      	movs	r2, #0
    5838:	2001      	movs	r0, #1
    583a:	e76e      	b.n	571a <__aeabi_dmul+0x7a>
    583c:	4653      	mov	r3, sl
    583e:	2003      	movs	r0, #3
    5840:	e76b      	b.n	571a <__aeabi_dmul+0x7a>
    5842:	2300      	movs	r3, #0
    5844:	469b      	mov	fp, r3
    5846:	3301      	adds	r3, #1
    5848:	2704      	movs	r7, #4
    584a:	2600      	movs	r6, #0
    584c:	9302      	str	r3, [sp, #8]
    584e:	e74c      	b.n	56ea <__aeabi_dmul+0x4a>
    5850:	2303      	movs	r3, #3
    5852:	4681      	mov	r9, r0
    5854:	270c      	movs	r7, #12
    5856:	9302      	str	r3, [sp, #8]
    5858:	e747      	b.n	56ea <__aeabi_dmul+0x4a>
    585a:	2280      	movs	r2, #128	; 0x80
    585c:	2300      	movs	r3, #0
    585e:	2500      	movs	r5, #0
    5860:	0312      	lsls	r2, r2, #12
    5862:	4699      	mov	r9, r3
    5864:	4c05      	ldr	r4, [pc, #20]	; (587c <__aeabi_dmul+0x1dc>)
    5866:	e782      	b.n	576e <__aeabi_dmul+0xce>
    5868:	465c      	mov	r4, fp
    586a:	464b      	mov	r3, r9
    586c:	9802      	ldr	r0, [sp, #8]
    586e:	e76f      	b.n	5750 <__aeabi_dmul+0xb0>
    5870:	465c      	mov	r4, fp
    5872:	464b      	mov	r3, r9
    5874:	9501      	str	r5, [sp, #4]
    5876:	9802      	ldr	r0, [sp, #8]
    5878:	e76a      	b.n	5750 <__aeabi_dmul+0xb0>
    587a:	46c0      	nop			; (mov r8, r8)
    587c:	000007ff 	.word	0x000007ff
    5880:	fffffc01 	.word	0xfffffc01
    5884:	00006d44 	.word	0x00006d44
    5888:	800fffff 	.word	0x800fffff
    588c:	fffffc0d 	.word	0xfffffc0d
    5890:	464a      	mov	r2, r9
    5892:	4649      	mov	r1, r9
    5894:	0c17      	lsrs	r7, r2, #16
    5896:	0c1a      	lsrs	r2, r3, #16
    5898:	041b      	lsls	r3, r3, #16
    589a:	0c1b      	lsrs	r3, r3, #16
    589c:	0408      	lsls	r0, r1, #16
    589e:	0019      	movs	r1, r3
    58a0:	0c00      	lsrs	r0, r0, #16
    58a2:	4341      	muls	r1, r0
    58a4:	0015      	movs	r5, r2
    58a6:	4688      	mov	r8, r1
    58a8:	0019      	movs	r1, r3
    58aa:	437d      	muls	r5, r7
    58ac:	4379      	muls	r1, r7
    58ae:	9503      	str	r5, [sp, #12]
    58b0:	4689      	mov	r9, r1
    58b2:	0029      	movs	r1, r5
    58b4:	0015      	movs	r5, r2
    58b6:	4345      	muls	r5, r0
    58b8:	444d      	add	r5, r9
    58ba:	9502      	str	r5, [sp, #8]
    58bc:	4645      	mov	r5, r8
    58be:	0c2d      	lsrs	r5, r5, #16
    58c0:	46aa      	mov	sl, r5
    58c2:	9d02      	ldr	r5, [sp, #8]
    58c4:	4455      	add	r5, sl
    58c6:	45a9      	cmp	r9, r5
    58c8:	d906      	bls.n	58d8 <__aeabi_dmul+0x238>
    58ca:	468a      	mov	sl, r1
    58cc:	2180      	movs	r1, #128	; 0x80
    58ce:	0249      	lsls	r1, r1, #9
    58d0:	4689      	mov	r9, r1
    58d2:	44ca      	add	sl, r9
    58d4:	4651      	mov	r1, sl
    58d6:	9103      	str	r1, [sp, #12]
    58d8:	0c29      	lsrs	r1, r5, #16
    58da:	9104      	str	r1, [sp, #16]
    58dc:	4641      	mov	r1, r8
    58de:	0409      	lsls	r1, r1, #16
    58e0:	042d      	lsls	r5, r5, #16
    58e2:	0c09      	lsrs	r1, r1, #16
    58e4:	4688      	mov	r8, r1
    58e6:	0029      	movs	r1, r5
    58e8:	0c25      	lsrs	r5, r4, #16
    58ea:	0424      	lsls	r4, r4, #16
    58ec:	4441      	add	r1, r8
    58ee:	0c24      	lsrs	r4, r4, #16
    58f0:	9105      	str	r1, [sp, #20]
    58f2:	0021      	movs	r1, r4
    58f4:	4341      	muls	r1, r0
    58f6:	4688      	mov	r8, r1
    58f8:	0021      	movs	r1, r4
    58fa:	4379      	muls	r1, r7
    58fc:	468a      	mov	sl, r1
    58fe:	4368      	muls	r0, r5
    5900:	4641      	mov	r1, r8
    5902:	4450      	add	r0, sl
    5904:	4681      	mov	r9, r0
    5906:	0c08      	lsrs	r0, r1, #16
    5908:	4448      	add	r0, r9
    590a:	436f      	muls	r7, r5
    590c:	4582      	cmp	sl, r0
    590e:	d903      	bls.n	5918 <__aeabi_dmul+0x278>
    5910:	2180      	movs	r1, #128	; 0x80
    5912:	0249      	lsls	r1, r1, #9
    5914:	4689      	mov	r9, r1
    5916:	444f      	add	r7, r9
    5918:	0c01      	lsrs	r1, r0, #16
    591a:	4689      	mov	r9, r1
    591c:	0039      	movs	r1, r7
    591e:	4449      	add	r1, r9
    5920:	9102      	str	r1, [sp, #8]
    5922:	4641      	mov	r1, r8
    5924:	040f      	lsls	r7, r1, #16
    5926:	9904      	ldr	r1, [sp, #16]
    5928:	0c3f      	lsrs	r7, r7, #16
    592a:	4688      	mov	r8, r1
    592c:	0400      	lsls	r0, r0, #16
    592e:	19c0      	adds	r0, r0, r7
    5930:	4480      	add	r8, r0
    5932:	4641      	mov	r1, r8
    5934:	9104      	str	r1, [sp, #16]
    5936:	4659      	mov	r1, fp
    5938:	0c0f      	lsrs	r7, r1, #16
    593a:	0409      	lsls	r1, r1, #16
    593c:	0c09      	lsrs	r1, r1, #16
    593e:	4688      	mov	r8, r1
    5940:	4359      	muls	r1, r3
    5942:	468a      	mov	sl, r1
    5944:	0039      	movs	r1, r7
    5946:	4351      	muls	r1, r2
    5948:	4689      	mov	r9, r1
    594a:	4641      	mov	r1, r8
    594c:	434a      	muls	r2, r1
    594e:	4651      	mov	r1, sl
    5950:	0c09      	lsrs	r1, r1, #16
    5952:	468b      	mov	fp, r1
    5954:	437b      	muls	r3, r7
    5956:	18d2      	adds	r2, r2, r3
    5958:	445a      	add	r2, fp
    595a:	4293      	cmp	r3, r2
    595c:	d903      	bls.n	5966 <__aeabi_dmul+0x2c6>
    595e:	2380      	movs	r3, #128	; 0x80
    5960:	025b      	lsls	r3, r3, #9
    5962:	469b      	mov	fp, r3
    5964:	44d9      	add	r9, fp
    5966:	4651      	mov	r1, sl
    5968:	0409      	lsls	r1, r1, #16
    596a:	0c09      	lsrs	r1, r1, #16
    596c:	468a      	mov	sl, r1
    596e:	4641      	mov	r1, r8
    5970:	4361      	muls	r1, r4
    5972:	437c      	muls	r4, r7
    5974:	0c13      	lsrs	r3, r2, #16
    5976:	0412      	lsls	r2, r2, #16
    5978:	444b      	add	r3, r9
    597a:	4452      	add	r2, sl
    597c:	46a1      	mov	r9, r4
    597e:	468a      	mov	sl, r1
    5980:	003c      	movs	r4, r7
    5982:	4641      	mov	r1, r8
    5984:	436c      	muls	r4, r5
    5986:	434d      	muls	r5, r1
    5988:	4651      	mov	r1, sl
    598a:	444d      	add	r5, r9
    598c:	0c0f      	lsrs	r7, r1, #16
    598e:	197d      	adds	r5, r7, r5
    5990:	45a9      	cmp	r9, r5
    5992:	d903      	bls.n	599c <__aeabi_dmul+0x2fc>
    5994:	2180      	movs	r1, #128	; 0x80
    5996:	0249      	lsls	r1, r1, #9
    5998:	4688      	mov	r8, r1
    599a:	4444      	add	r4, r8
    599c:	9f04      	ldr	r7, [sp, #16]
    599e:	9903      	ldr	r1, [sp, #12]
    59a0:	46b8      	mov	r8, r7
    59a2:	4441      	add	r1, r8
    59a4:	468b      	mov	fp, r1
    59a6:	4583      	cmp	fp, r0
    59a8:	4180      	sbcs	r0, r0
    59aa:	4241      	negs	r1, r0
    59ac:	4688      	mov	r8, r1
    59ae:	4651      	mov	r1, sl
    59b0:	0408      	lsls	r0, r1, #16
    59b2:	042f      	lsls	r7, r5, #16
    59b4:	0c00      	lsrs	r0, r0, #16
    59b6:	183f      	adds	r7, r7, r0
    59b8:	4658      	mov	r0, fp
    59ba:	9902      	ldr	r1, [sp, #8]
    59bc:	1810      	adds	r0, r2, r0
    59be:	4689      	mov	r9, r1
    59c0:	4290      	cmp	r0, r2
    59c2:	4192      	sbcs	r2, r2
    59c4:	444f      	add	r7, r9
    59c6:	46ba      	mov	sl, r7
    59c8:	4252      	negs	r2, r2
    59ca:	4699      	mov	r9, r3
    59cc:	4693      	mov	fp, r2
    59ce:	44c2      	add	sl, r8
    59d0:	44d1      	add	r9, sl
    59d2:	44cb      	add	fp, r9
    59d4:	428f      	cmp	r7, r1
    59d6:	41bf      	sbcs	r7, r7
    59d8:	45c2      	cmp	sl, r8
    59da:	4189      	sbcs	r1, r1
    59dc:	4599      	cmp	r9, r3
    59de:	419b      	sbcs	r3, r3
    59e0:	4593      	cmp	fp, r2
    59e2:	4192      	sbcs	r2, r2
    59e4:	427f      	negs	r7, r7
    59e6:	4249      	negs	r1, r1
    59e8:	0c2d      	lsrs	r5, r5, #16
    59ea:	4252      	negs	r2, r2
    59ec:	430f      	orrs	r7, r1
    59ee:	425b      	negs	r3, r3
    59f0:	4313      	orrs	r3, r2
    59f2:	197f      	adds	r7, r7, r5
    59f4:	18ff      	adds	r7, r7, r3
    59f6:	465b      	mov	r3, fp
    59f8:	193c      	adds	r4, r7, r4
    59fa:	0ddb      	lsrs	r3, r3, #23
    59fc:	9a05      	ldr	r2, [sp, #20]
    59fe:	0264      	lsls	r4, r4, #9
    5a00:	431c      	orrs	r4, r3
    5a02:	0243      	lsls	r3, r0, #9
    5a04:	4313      	orrs	r3, r2
    5a06:	1e5d      	subs	r5, r3, #1
    5a08:	41ab      	sbcs	r3, r5
    5a0a:	465a      	mov	r2, fp
    5a0c:	0dc0      	lsrs	r0, r0, #23
    5a0e:	4303      	orrs	r3, r0
    5a10:	0252      	lsls	r2, r2, #9
    5a12:	4313      	orrs	r3, r2
    5a14:	01e2      	lsls	r2, r4, #7
    5a16:	d556      	bpl.n	5ac6 <__aeabi_dmul+0x426>
    5a18:	2001      	movs	r0, #1
    5a1a:	085a      	lsrs	r2, r3, #1
    5a1c:	4003      	ands	r3, r0
    5a1e:	4313      	orrs	r3, r2
    5a20:	07e2      	lsls	r2, r4, #31
    5a22:	4313      	orrs	r3, r2
    5a24:	0864      	lsrs	r4, r4, #1
    5a26:	485a      	ldr	r0, [pc, #360]	; (5b90 <__aeabi_dmul+0x4f0>)
    5a28:	4460      	add	r0, ip
    5a2a:	2800      	cmp	r0, #0
    5a2c:	dd4d      	ble.n	5aca <__aeabi_dmul+0x42a>
    5a2e:	075a      	lsls	r2, r3, #29
    5a30:	d009      	beq.n	5a46 <__aeabi_dmul+0x3a6>
    5a32:	220f      	movs	r2, #15
    5a34:	401a      	ands	r2, r3
    5a36:	2a04      	cmp	r2, #4
    5a38:	d005      	beq.n	5a46 <__aeabi_dmul+0x3a6>
    5a3a:	1d1a      	adds	r2, r3, #4
    5a3c:	429a      	cmp	r2, r3
    5a3e:	419b      	sbcs	r3, r3
    5a40:	425b      	negs	r3, r3
    5a42:	18e4      	adds	r4, r4, r3
    5a44:	0013      	movs	r3, r2
    5a46:	01e2      	lsls	r2, r4, #7
    5a48:	d504      	bpl.n	5a54 <__aeabi_dmul+0x3b4>
    5a4a:	2080      	movs	r0, #128	; 0x80
    5a4c:	4a51      	ldr	r2, [pc, #324]	; (5b94 <__aeabi_dmul+0x4f4>)
    5a4e:	00c0      	lsls	r0, r0, #3
    5a50:	4014      	ands	r4, r2
    5a52:	4460      	add	r0, ip
    5a54:	4a50      	ldr	r2, [pc, #320]	; (5b98 <__aeabi_dmul+0x4f8>)
    5a56:	4290      	cmp	r0, r2
    5a58:	dd00      	ble.n	5a5c <__aeabi_dmul+0x3bc>
    5a5a:	e6e3      	b.n	5824 <__aeabi_dmul+0x184>
    5a5c:	2501      	movs	r5, #1
    5a5e:	08db      	lsrs	r3, r3, #3
    5a60:	0762      	lsls	r2, r4, #29
    5a62:	431a      	orrs	r2, r3
    5a64:	0264      	lsls	r4, r4, #9
    5a66:	9b01      	ldr	r3, [sp, #4]
    5a68:	4691      	mov	r9, r2
    5a6a:	0b22      	lsrs	r2, r4, #12
    5a6c:	0544      	lsls	r4, r0, #21
    5a6e:	0d64      	lsrs	r4, r4, #21
    5a70:	401d      	ands	r5, r3
    5a72:	e67c      	b.n	576e <__aeabi_dmul+0xce>
    5a74:	2280      	movs	r2, #128	; 0x80
    5a76:	4659      	mov	r1, fp
    5a78:	0312      	lsls	r2, r2, #12
    5a7a:	4211      	tst	r1, r2
    5a7c:	d008      	beq.n	5a90 <__aeabi_dmul+0x3f0>
    5a7e:	4214      	tst	r4, r2
    5a80:	d106      	bne.n	5a90 <__aeabi_dmul+0x3f0>
    5a82:	4322      	orrs	r2, r4
    5a84:	0312      	lsls	r2, r2, #12
    5a86:	0b12      	lsrs	r2, r2, #12
    5a88:	4645      	mov	r5, r8
    5a8a:	4699      	mov	r9, r3
    5a8c:	4c43      	ldr	r4, [pc, #268]	; (5b9c <__aeabi_dmul+0x4fc>)
    5a8e:	e66e      	b.n	576e <__aeabi_dmul+0xce>
    5a90:	465b      	mov	r3, fp
    5a92:	431a      	orrs	r2, r3
    5a94:	0312      	lsls	r2, r2, #12
    5a96:	0b12      	lsrs	r2, r2, #12
    5a98:	4c40      	ldr	r4, [pc, #256]	; (5b9c <__aeabi_dmul+0x4fc>)
    5a9a:	e668      	b.n	576e <__aeabi_dmul+0xce>
    5a9c:	0003      	movs	r3, r0
    5a9e:	4654      	mov	r4, sl
    5aa0:	3b28      	subs	r3, #40	; 0x28
    5aa2:	409c      	lsls	r4, r3
    5aa4:	2300      	movs	r3, #0
    5aa6:	e6b9      	b.n	581c <__aeabi_dmul+0x17c>
    5aa8:	f000 fbfc 	bl	62a4 <__clzsi2>
    5aac:	3020      	adds	r0, #32
    5aae:	e6a6      	b.n	57fe <__aeabi_dmul+0x15e>
    5ab0:	0003      	movs	r3, r0
    5ab2:	3b28      	subs	r3, #40	; 0x28
    5ab4:	409f      	lsls	r7, r3
    5ab6:	2300      	movs	r3, #0
    5ab8:	46bb      	mov	fp, r7
    5aba:	4699      	mov	r9, r3
    5abc:	e68a      	b.n	57d4 <__aeabi_dmul+0x134>
    5abe:	f000 fbf1 	bl	62a4 <__clzsi2>
    5ac2:	3020      	adds	r0, #32
    5ac4:	e674      	b.n	57b0 <__aeabi_dmul+0x110>
    5ac6:	46b4      	mov	ip, r6
    5ac8:	e7ad      	b.n	5a26 <__aeabi_dmul+0x386>
    5aca:	2501      	movs	r5, #1
    5acc:	1a2a      	subs	r2, r5, r0
    5ace:	2a38      	cmp	r2, #56	; 0x38
    5ad0:	dd06      	ble.n	5ae0 <__aeabi_dmul+0x440>
    5ad2:	9b01      	ldr	r3, [sp, #4]
    5ad4:	2400      	movs	r4, #0
    5ad6:	401d      	ands	r5, r3
    5ad8:	2300      	movs	r3, #0
    5ada:	2200      	movs	r2, #0
    5adc:	4699      	mov	r9, r3
    5ade:	e646      	b.n	576e <__aeabi_dmul+0xce>
    5ae0:	2a1f      	cmp	r2, #31
    5ae2:	dc21      	bgt.n	5b28 <__aeabi_dmul+0x488>
    5ae4:	2520      	movs	r5, #32
    5ae6:	0020      	movs	r0, r4
    5ae8:	1aad      	subs	r5, r5, r2
    5aea:	001e      	movs	r6, r3
    5aec:	40ab      	lsls	r3, r5
    5aee:	40a8      	lsls	r0, r5
    5af0:	40d6      	lsrs	r6, r2
    5af2:	1e5d      	subs	r5, r3, #1
    5af4:	41ab      	sbcs	r3, r5
    5af6:	4330      	orrs	r0, r6
    5af8:	4318      	orrs	r0, r3
    5afa:	40d4      	lsrs	r4, r2
    5afc:	0743      	lsls	r3, r0, #29
    5afe:	d009      	beq.n	5b14 <__aeabi_dmul+0x474>
    5b00:	230f      	movs	r3, #15
    5b02:	4003      	ands	r3, r0
    5b04:	2b04      	cmp	r3, #4
    5b06:	d005      	beq.n	5b14 <__aeabi_dmul+0x474>
    5b08:	0003      	movs	r3, r0
    5b0a:	1d18      	adds	r0, r3, #4
    5b0c:	4298      	cmp	r0, r3
    5b0e:	419b      	sbcs	r3, r3
    5b10:	425b      	negs	r3, r3
    5b12:	18e4      	adds	r4, r4, r3
    5b14:	0223      	lsls	r3, r4, #8
    5b16:	d521      	bpl.n	5b5c <__aeabi_dmul+0x4bc>
    5b18:	2501      	movs	r5, #1
    5b1a:	9b01      	ldr	r3, [sp, #4]
    5b1c:	2401      	movs	r4, #1
    5b1e:	401d      	ands	r5, r3
    5b20:	2300      	movs	r3, #0
    5b22:	2200      	movs	r2, #0
    5b24:	4699      	mov	r9, r3
    5b26:	e622      	b.n	576e <__aeabi_dmul+0xce>
    5b28:	251f      	movs	r5, #31
    5b2a:	0021      	movs	r1, r4
    5b2c:	426d      	negs	r5, r5
    5b2e:	1a28      	subs	r0, r5, r0
    5b30:	40c1      	lsrs	r1, r0
    5b32:	0008      	movs	r0, r1
    5b34:	2a20      	cmp	r2, #32
    5b36:	d01d      	beq.n	5b74 <__aeabi_dmul+0x4d4>
    5b38:	355f      	adds	r5, #95	; 0x5f
    5b3a:	1aaa      	subs	r2, r5, r2
    5b3c:	4094      	lsls	r4, r2
    5b3e:	4323      	orrs	r3, r4
    5b40:	1e5c      	subs	r4, r3, #1
    5b42:	41a3      	sbcs	r3, r4
    5b44:	2507      	movs	r5, #7
    5b46:	4303      	orrs	r3, r0
    5b48:	401d      	ands	r5, r3
    5b4a:	2200      	movs	r2, #0
    5b4c:	2d00      	cmp	r5, #0
    5b4e:	d009      	beq.n	5b64 <__aeabi_dmul+0x4c4>
    5b50:	220f      	movs	r2, #15
    5b52:	2400      	movs	r4, #0
    5b54:	401a      	ands	r2, r3
    5b56:	0018      	movs	r0, r3
    5b58:	2a04      	cmp	r2, #4
    5b5a:	d1d6      	bne.n	5b0a <__aeabi_dmul+0x46a>
    5b5c:	0003      	movs	r3, r0
    5b5e:	0765      	lsls	r5, r4, #29
    5b60:	0264      	lsls	r4, r4, #9
    5b62:	0b22      	lsrs	r2, r4, #12
    5b64:	08db      	lsrs	r3, r3, #3
    5b66:	432b      	orrs	r3, r5
    5b68:	2501      	movs	r5, #1
    5b6a:	4699      	mov	r9, r3
    5b6c:	9b01      	ldr	r3, [sp, #4]
    5b6e:	2400      	movs	r4, #0
    5b70:	401d      	ands	r5, r3
    5b72:	e5fc      	b.n	576e <__aeabi_dmul+0xce>
    5b74:	2400      	movs	r4, #0
    5b76:	e7e2      	b.n	5b3e <__aeabi_dmul+0x49e>
    5b78:	2280      	movs	r2, #128	; 0x80
    5b7a:	2501      	movs	r5, #1
    5b7c:	0312      	lsls	r2, r2, #12
    5b7e:	4322      	orrs	r2, r4
    5b80:	9901      	ldr	r1, [sp, #4]
    5b82:	0312      	lsls	r2, r2, #12
    5b84:	0b12      	lsrs	r2, r2, #12
    5b86:	400d      	ands	r5, r1
    5b88:	4699      	mov	r9, r3
    5b8a:	4c04      	ldr	r4, [pc, #16]	; (5b9c <__aeabi_dmul+0x4fc>)
    5b8c:	e5ef      	b.n	576e <__aeabi_dmul+0xce>
    5b8e:	46c0      	nop			; (mov r8, r8)
    5b90:	000003ff 	.word	0x000003ff
    5b94:	feffffff 	.word	0xfeffffff
    5b98:	000007fe 	.word	0x000007fe
    5b9c:	000007ff 	.word	0x000007ff

00005ba0 <__aeabi_dsub>:
    5ba0:	b5f0      	push	{r4, r5, r6, r7, lr}
    5ba2:	4646      	mov	r6, r8
    5ba4:	46d6      	mov	lr, sl
    5ba6:	464f      	mov	r7, r9
    5ba8:	030c      	lsls	r4, r1, #12
    5baa:	b5c0      	push	{r6, r7, lr}
    5bac:	0fcd      	lsrs	r5, r1, #31
    5bae:	004e      	lsls	r6, r1, #1
    5bb0:	0a61      	lsrs	r1, r4, #9
    5bb2:	0f44      	lsrs	r4, r0, #29
    5bb4:	430c      	orrs	r4, r1
    5bb6:	00c1      	lsls	r1, r0, #3
    5bb8:	0058      	lsls	r0, r3, #1
    5bba:	0d40      	lsrs	r0, r0, #21
    5bbc:	4684      	mov	ip, r0
    5bbe:	468a      	mov	sl, r1
    5bc0:	000f      	movs	r7, r1
    5bc2:	0319      	lsls	r1, r3, #12
    5bc4:	0f50      	lsrs	r0, r2, #29
    5bc6:	0a49      	lsrs	r1, r1, #9
    5bc8:	4301      	orrs	r1, r0
    5bca:	48c6      	ldr	r0, [pc, #792]	; (5ee4 <__aeabi_dsub+0x344>)
    5bcc:	0d76      	lsrs	r6, r6, #21
    5bce:	46a8      	mov	r8, r5
    5bd0:	0fdb      	lsrs	r3, r3, #31
    5bd2:	00d2      	lsls	r2, r2, #3
    5bd4:	4584      	cmp	ip, r0
    5bd6:	d100      	bne.n	5bda <__aeabi_dsub+0x3a>
    5bd8:	e0d8      	b.n	5d8c <__aeabi_dsub+0x1ec>
    5bda:	2001      	movs	r0, #1
    5bdc:	4043      	eors	r3, r0
    5bde:	42ab      	cmp	r3, r5
    5be0:	d100      	bne.n	5be4 <__aeabi_dsub+0x44>
    5be2:	e0a6      	b.n	5d32 <__aeabi_dsub+0x192>
    5be4:	4660      	mov	r0, ip
    5be6:	1a35      	subs	r5, r6, r0
    5be8:	2d00      	cmp	r5, #0
    5bea:	dc00      	bgt.n	5bee <__aeabi_dsub+0x4e>
    5bec:	e105      	b.n	5dfa <__aeabi_dsub+0x25a>
    5bee:	2800      	cmp	r0, #0
    5bf0:	d110      	bne.n	5c14 <__aeabi_dsub+0x74>
    5bf2:	000b      	movs	r3, r1
    5bf4:	4313      	orrs	r3, r2
    5bf6:	d100      	bne.n	5bfa <__aeabi_dsub+0x5a>
    5bf8:	e0d7      	b.n	5daa <__aeabi_dsub+0x20a>
    5bfa:	1e6b      	subs	r3, r5, #1
    5bfc:	2b00      	cmp	r3, #0
    5bfe:	d000      	beq.n	5c02 <__aeabi_dsub+0x62>
    5c00:	e14b      	b.n	5e9a <__aeabi_dsub+0x2fa>
    5c02:	4653      	mov	r3, sl
    5c04:	1a9f      	subs	r7, r3, r2
    5c06:	45ba      	cmp	sl, r7
    5c08:	4180      	sbcs	r0, r0
    5c0a:	1a64      	subs	r4, r4, r1
    5c0c:	4240      	negs	r0, r0
    5c0e:	1a24      	subs	r4, r4, r0
    5c10:	2601      	movs	r6, #1
    5c12:	e01e      	b.n	5c52 <__aeabi_dsub+0xb2>
    5c14:	4bb3      	ldr	r3, [pc, #716]	; (5ee4 <__aeabi_dsub+0x344>)
    5c16:	429e      	cmp	r6, r3
    5c18:	d048      	beq.n	5cac <__aeabi_dsub+0x10c>
    5c1a:	2380      	movs	r3, #128	; 0x80
    5c1c:	041b      	lsls	r3, r3, #16
    5c1e:	4319      	orrs	r1, r3
    5c20:	2d38      	cmp	r5, #56	; 0x38
    5c22:	dd00      	ble.n	5c26 <__aeabi_dsub+0x86>
    5c24:	e119      	b.n	5e5a <__aeabi_dsub+0x2ba>
    5c26:	2d1f      	cmp	r5, #31
    5c28:	dd00      	ble.n	5c2c <__aeabi_dsub+0x8c>
    5c2a:	e14c      	b.n	5ec6 <__aeabi_dsub+0x326>
    5c2c:	2320      	movs	r3, #32
    5c2e:	000f      	movs	r7, r1
    5c30:	1b5b      	subs	r3, r3, r5
    5c32:	0010      	movs	r0, r2
    5c34:	409a      	lsls	r2, r3
    5c36:	409f      	lsls	r7, r3
    5c38:	40e8      	lsrs	r0, r5
    5c3a:	1e53      	subs	r3, r2, #1
    5c3c:	419a      	sbcs	r2, r3
    5c3e:	40e9      	lsrs	r1, r5
    5c40:	4307      	orrs	r7, r0
    5c42:	4317      	orrs	r7, r2
    5c44:	4653      	mov	r3, sl
    5c46:	1bdf      	subs	r7, r3, r7
    5c48:	1a61      	subs	r1, r4, r1
    5c4a:	45ba      	cmp	sl, r7
    5c4c:	41a4      	sbcs	r4, r4
    5c4e:	4264      	negs	r4, r4
    5c50:	1b0c      	subs	r4, r1, r4
    5c52:	0223      	lsls	r3, r4, #8
    5c54:	d400      	bmi.n	5c58 <__aeabi_dsub+0xb8>
    5c56:	e0c5      	b.n	5de4 <__aeabi_dsub+0x244>
    5c58:	0264      	lsls	r4, r4, #9
    5c5a:	0a65      	lsrs	r5, r4, #9
    5c5c:	2d00      	cmp	r5, #0
    5c5e:	d100      	bne.n	5c62 <__aeabi_dsub+0xc2>
    5c60:	e0f6      	b.n	5e50 <__aeabi_dsub+0x2b0>
    5c62:	0028      	movs	r0, r5
    5c64:	f000 fb1e 	bl	62a4 <__clzsi2>
    5c68:	0003      	movs	r3, r0
    5c6a:	3b08      	subs	r3, #8
    5c6c:	2b1f      	cmp	r3, #31
    5c6e:	dd00      	ble.n	5c72 <__aeabi_dsub+0xd2>
    5c70:	e0e9      	b.n	5e46 <__aeabi_dsub+0x2a6>
    5c72:	2220      	movs	r2, #32
    5c74:	003c      	movs	r4, r7
    5c76:	1ad2      	subs	r2, r2, r3
    5c78:	409d      	lsls	r5, r3
    5c7a:	40d4      	lsrs	r4, r2
    5c7c:	409f      	lsls	r7, r3
    5c7e:	4325      	orrs	r5, r4
    5c80:	429e      	cmp	r6, r3
    5c82:	dd00      	ble.n	5c86 <__aeabi_dsub+0xe6>
    5c84:	e0db      	b.n	5e3e <__aeabi_dsub+0x29e>
    5c86:	1b9e      	subs	r6, r3, r6
    5c88:	1c73      	adds	r3, r6, #1
    5c8a:	2b1f      	cmp	r3, #31
    5c8c:	dd00      	ble.n	5c90 <__aeabi_dsub+0xf0>
    5c8e:	e10a      	b.n	5ea6 <__aeabi_dsub+0x306>
    5c90:	2220      	movs	r2, #32
    5c92:	0038      	movs	r0, r7
    5c94:	1ad2      	subs	r2, r2, r3
    5c96:	0029      	movs	r1, r5
    5c98:	4097      	lsls	r7, r2
    5c9a:	002c      	movs	r4, r5
    5c9c:	4091      	lsls	r1, r2
    5c9e:	40d8      	lsrs	r0, r3
    5ca0:	1e7a      	subs	r2, r7, #1
    5ca2:	4197      	sbcs	r7, r2
    5ca4:	40dc      	lsrs	r4, r3
    5ca6:	2600      	movs	r6, #0
    5ca8:	4301      	orrs	r1, r0
    5caa:	430f      	orrs	r7, r1
    5cac:	077b      	lsls	r3, r7, #29
    5cae:	d009      	beq.n	5cc4 <__aeabi_dsub+0x124>
    5cb0:	230f      	movs	r3, #15
    5cb2:	403b      	ands	r3, r7
    5cb4:	2b04      	cmp	r3, #4
    5cb6:	d005      	beq.n	5cc4 <__aeabi_dsub+0x124>
    5cb8:	1d3b      	adds	r3, r7, #4
    5cba:	42bb      	cmp	r3, r7
    5cbc:	41bf      	sbcs	r7, r7
    5cbe:	427f      	negs	r7, r7
    5cc0:	19e4      	adds	r4, r4, r7
    5cc2:	001f      	movs	r7, r3
    5cc4:	0223      	lsls	r3, r4, #8
    5cc6:	d525      	bpl.n	5d14 <__aeabi_dsub+0x174>
    5cc8:	4b86      	ldr	r3, [pc, #536]	; (5ee4 <__aeabi_dsub+0x344>)
    5cca:	3601      	adds	r6, #1
    5ccc:	429e      	cmp	r6, r3
    5cce:	d100      	bne.n	5cd2 <__aeabi_dsub+0x132>
    5cd0:	e0af      	b.n	5e32 <__aeabi_dsub+0x292>
    5cd2:	4b85      	ldr	r3, [pc, #532]	; (5ee8 <__aeabi_dsub+0x348>)
    5cd4:	2501      	movs	r5, #1
    5cd6:	401c      	ands	r4, r3
    5cd8:	4643      	mov	r3, r8
    5cda:	0762      	lsls	r2, r4, #29
    5cdc:	08ff      	lsrs	r7, r7, #3
    5cde:	0264      	lsls	r4, r4, #9
    5ce0:	0576      	lsls	r6, r6, #21
    5ce2:	4317      	orrs	r7, r2
    5ce4:	0b24      	lsrs	r4, r4, #12
    5ce6:	0d76      	lsrs	r6, r6, #21
    5ce8:	401d      	ands	r5, r3
    5cea:	2100      	movs	r1, #0
    5cec:	0324      	lsls	r4, r4, #12
    5cee:	0b23      	lsrs	r3, r4, #12
    5cf0:	0d0c      	lsrs	r4, r1, #20
    5cf2:	4a7e      	ldr	r2, [pc, #504]	; (5eec <__aeabi_dsub+0x34c>)
    5cf4:	0524      	lsls	r4, r4, #20
    5cf6:	431c      	orrs	r4, r3
    5cf8:	4014      	ands	r4, r2
    5cfa:	0533      	lsls	r3, r6, #20
    5cfc:	4323      	orrs	r3, r4
    5cfe:	005b      	lsls	r3, r3, #1
    5d00:	07ed      	lsls	r5, r5, #31
    5d02:	085b      	lsrs	r3, r3, #1
    5d04:	432b      	orrs	r3, r5
    5d06:	0038      	movs	r0, r7
    5d08:	0019      	movs	r1, r3
    5d0a:	bc1c      	pop	{r2, r3, r4}
    5d0c:	4690      	mov	r8, r2
    5d0e:	4699      	mov	r9, r3
    5d10:	46a2      	mov	sl, r4
    5d12:	bdf0      	pop	{r4, r5, r6, r7, pc}
    5d14:	2501      	movs	r5, #1
    5d16:	4643      	mov	r3, r8
    5d18:	0762      	lsls	r2, r4, #29
    5d1a:	08ff      	lsrs	r7, r7, #3
    5d1c:	4317      	orrs	r7, r2
    5d1e:	08e4      	lsrs	r4, r4, #3
    5d20:	401d      	ands	r5, r3
    5d22:	4b70      	ldr	r3, [pc, #448]	; (5ee4 <__aeabi_dsub+0x344>)
    5d24:	429e      	cmp	r6, r3
    5d26:	d036      	beq.n	5d96 <__aeabi_dsub+0x1f6>
    5d28:	0324      	lsls	r4, r4, #12
    5d2a:	0576      	lsls	r6, r6, #21
    5d2c:	0b24      	lsrs	r4, r4, #12
    5d2e:	0d76      	lsrs	r6, r6, #21
    5d30:	e7db      	b.n	5cea <__aeabi_dsub+0x14a>
    5d32:	4663      	mov	r3, ip
    5d34:	1af3      	subs	r3, r6, r3
    5d36:	2b00      	cmp	r3, #0
    5d38:	dc00      	bgt.n	5d3c <__aeabi_dsub+0x19c>
    5d3a:	e094      	b.n	5e66 <__aeabi_dsub+0x2c6>
    5d3c:	4660      	mov	r0, ip
    5d3e:	2800      	cmp	r0, #0
    5d40:	d035      	beq.n	5dae <__aeabi_dsub+0x20e>
    5d42:	4868      	ldr	r0, [pc, #416]	; (5ee4 <__aeabi_dsub+0x344>)
    5d44:	4286      	cmp	r6, r0
    5d46:	d0b1      	beq.n	5cac <__aeabi_dsub+0x10c>
    5d48:	2780      	movs	r7, #128	; 0x80
    5d4a:	043f      	lsls	r7, r7, #16
    5d4c:	4339      	orrs	r1, r7
    5d4e:	2b38      	cmp	r3, #56	; 0x38
    5d50:	dc00      	bgt.n	5d54 <__aeabi_dsub+0x1b4>
    5d52:	e0fd      	b.n	5f50 <__aeabi_dsub+0x3b0>
    5d54:	430a      	orrs	r2, r1
    5d56:	0017      	movs	r7, r2
    5d58:	2100      	movs	r1, #0
    5d5a:	1e7a      	subs	r2, r7, #1
    5d5c:	4197      	sbcs	r7, r2
    5d5e:	4457      	add	r7, sl
    5d60:	4557      	cmp	r7, sl
    5d62:	4180      	sbcs	r0, r0
    5d64:	1909      	adds	r1, r1, r4
    5d66:	4244      	negs	r4, r0
    5d68:	190c      	adds	r4, r1, r4
    5d6a:	0223      	lsls	r3, r4, #8
    5d6c:	d53a      	bpl.n	5de4 <__aeabi_dsub+0x244>
    5d6e:	4b5d      	ldr	r3, [pc, #372]	; (5ee4 <__aeabi_dsub+0x344>)
    5d70:	3601      	adds	r6, #1
    5d72:	429e      	cmp	r6, r3
    5d74:	d100      	bne.n	5d78 <__aeabi_dsub+0x1d8>
    5d76:	e14b      	b.n	6010 <__aeabi_dsub+0x470>
    5d78:	2201      	movs	r2, #1
    5d7a:	4b5b      	ldr	r3, [pc, #364]	; (5ee8 <__aeabi_dsub+0x348>)
    5d7c:	401c      	ands	r4, r3
    5d7e:	087b      	lsrs	r3, r7, #1
    5d80:	4017      	ands	r7, r2
    5d82:	431f      	orrs	r7, r3
    5d84:	07e2      	lsls	r2, r4, #31
    5d86:	4317      	orrs	r7, r2
    5d88:	0864      	lsrs	r4, r4, #1
    5d8a:	e78f      	b.n	5cac <__aeabi_dsub+0x10c>
    5d8c:	0008      	movs	r0, r1
    5d8e:	4310      	orrs	r0, r2
    5d90:	d000      	beq.n	5d94 <__aeabi_dsub+0x1f4>
    5d92:	e724      	b.n	5bde <__aeabi_dsub+0x3e>
    5d94:	e721      	b.n	5bda <__aeabi_dsub+0x3a>
    5d96:	0023      	movs	r3, r4
    5d98:	433b      	orrs	r3, r7
    5d9a:	d100      	bne.n	5d9e <__aeabi_dsub+0x1fe>
    5d9c:	e1b9      	b.n	6112 <__aeabi_dsub+0x572>
    5d9e:	2280      	movs	r2, #128	; 0x80
    5da0:	0312      	lsls	r2, r2, #12
    5da2:	4314      	orrs	r4, r2
    5da4:	0324      	lsls	r4, r4, #12
    5da6:	0b24      	lsrs	r4, r4, #12
    5da8:	e79f      	b.n	5cea <__aeabi_dsub+0x14a>
    5daa:	002e      	movs	r6, r5
    5dac:	e77e      	b.n	5cac <__aeabi_dsub+0x10c>
    5dae:	0008      	movs	r0, r1
    5db0:	4310      	orrs	r0, r2
    5db2:	d100      	bne.n	5db6 <__aeabi_dsub+0x216>
    5db4:	e0ca      	b.n	5f4c <__aeabi_dsub+0x3ac>
    5db6:	1e58      	subs	r0, r3, #1
    5db8:	4684      	mov	ip, r0
    5dba:	2800      	cmp	r0, #0
    5dbc:	d000      	beq.n	5dc0 <__aeabi_dsub+0x220>
    5dbe:	e0e7      	b.n	5f90 <__aeabi_dsub+0x3f0>
    5dc0:	4452      	add	r2, sl
    5dc2:	4552      	cmp	r2, sl
    5dc4:	4180      	sbcs	r0, r0
    5dc6:	1864      	adds	r4, r4, r1
    5dc8:	4240      	negs	r0, r0
    5dca:	1824      	adds	r4, r4, r0
    5dcc:	0017      	movs	r7, r2
    5dce:	2601      	movs	r6, #1
    5dd0:	0223      	lsls	r3, r4, #8
    5dd2:	d507      	bpl.n	5de4 <__aeabi_dsub+0x244>
    5dd4:	2602      	movs	r6, #2
    5dd6:	e7cf      	b.n	5d78 <__aeabi_dsub+0x1d8>
    5dd8:	4664      	mov	r4, ip
    5dda:	432c      	orrs	r4, r5
    5ddc:	d100      	bne.n	5de0 <__aeabi_dsub+0x240>
    5dde:	e1b3      	b.n	6148 <__aeabi_dsub+0x5a8>
    5de0:	002c      	movs	r4, r5
    5de2:	4667      	mov	r7, ip
    5de4:	077b      	lsls	r3, r7, #29
    5de6:	d000      	beq.n	5dea <__aeabi_dsub+0x24a>
    5de8:	e762      	b.n	5cb0 <__aeabi_dsub+0x110>
    5dea:	0763      	lsls	r3, r4, #29
    5dec:	08ff      	lsrs	r7, r7, #3
    5dee:	431f      	orrs	r7, r3
    5df0:	2501      	movs	r5, #1
    5df2:	4643      	mov	r3, r8
    5df4:	08e4      	lsrs	r4, r4, #3
    5df6:	401d      	ands	r5, r3
    5df8:	e793      	b.n	5d22 <__aeabi_dsub+0x182>
    5dfa:	2d00      	cmp	r5, #0
    5dfc:	d178      	bne.n	5ef0 <__aeabi_dsub+0x350>
    5dfe:	1c75      	adds	r5, r6, #1
    5e00:	056d      	lsls	r5, r5, #21
    5e02:	0d6d      	lsrs	r5, r5, #21
    5e04:	2d01      	cmp	r5, #1
    5e06:	dc00      	bgt.n	5e0a <__aeabi_dsub+0x26a>
    5e08:	e0f2      	b.n	5ff0 <__aeabi_dsub+0x450>
    5e0a:	4650      	mov	r0, sl
    5e0c:	1a80      	subs	r0, r0, r2
    5e0e:	4582      	cmp	sl, r0
    5e10:	41bf      	sbcs	r7, r7
    5e12:	1a65      	subs	r5, r4, r1
    5e14:	427f      	negs	r7, r7
    5e16:	1bed      	subs	r5, r5, r7
    5e18:	4684      	mov	ip, r0
    5e1a:	0228      	lsls	r0, r5, #8
    5e1c:	d400      	bmi.n	5e20 <__aeabi_dsub+0x280>
    5e1e:	e08c      	b.n	5f3a <__aeabi_dsub+0x39a>
    5e20:	4650      	mov	r0, sl
    5e22:	1a17      	subs	r7, r2, r0
    5e24:	42ba      	cmp	r2, r7
    5e26:	4192      	sbcs	r2, r2
    5e28:	1b0c      	subs	r4, r1, r4
    5e2a:	4255      	negs	r5, r2
    5e2c:	1b65      	subs	r5, r4, r5
    5e2e:	4698      	mov	r8, r3
    5e30:	e714      	b.n	5c5c <__aeabi_dsub+0xbc>
    5e32:	2501      	movs	r5, #1
    5e34:	4643      	mov	r3, r8
    5e36:	2400      	movs	r4, #0
    5e38:	401d      	ands	r5, r3
    5e3a:	2700      	movs	r7, #0
    5e3c:	e755      	b.n	5cea <__aeabi_dsub+0x14a>
    5e3e:	4c2a      	ldr	r4, [pc, #168]	; (5ee8 <__aeabi_dsub+0x348>)
    5e40:	1af6      	subs	r6, r6, r3
    5e42:	402c      	ands	r4, r5
    5e44:	e732      	b.n	5cac <__aeabi_dsub+0x10c>
    5e46:	003d      	movs	r5, r7
    5e48:	3828      	subs	r0, #40	; 0x28
    5e4a:	4085      	lsls	r5, r0
    5e4c:	2700      	movs	r7, #0
    5e4e:	e717      	b.n	5c80 <__aeabi_dsub+0xe0>
    5e50:	0038      	movs	r0, r7
    5e52:	f000 fa27 	bl	62a4 <__clzsi2>
    5e56:	3020      	adds	r0, #32
    5e58:	e706      	b.n	5c68 <__aeabi_dsub+0xc8>
    5e5a:	430a      	orrs	r2, r1
    5e5c:	0017      	movs	r7, r2
    5e5e:	2100      	movs	r1, #0
    5e60:	1e7a      	subs	r2, r7, #1
    5e62:	4197      	sbcs	r7, r2
    5e64:	e6ee      	b.n	5c44 <__aeabi_dsub+0xa4>
    5e66:	2b00      	cmp	r3, #0
    5e68:	d000      	beq.n	5e6c <__aeabi_dsub+0x2cc>
    5e6a:	e0e5      	b.n	6038 <__aeabi_dsub+0x498>
    5e6c:	1c73      	adds	r3, r6, #1
    5e6e:	469c      	mov	ip, r3
    5e70:	055b      	lsls	r3, r3, #21
    5e72:	0d5b      	lsrs	r3, r3, #21
    5e74:	2b01      	cmp	r3, #1
    5e76:	dc00      	bgt.n	5e7a <__aeabi_dsub+0x2da>
    5e78:	e09f      	b.n	5fba <__aeabi_dsub+0x41a>
    5e7a:	4b1a      	ldr	r3, [pc, #104]	; (5ee4 <__aeabi_dsub+0x344>)
    5e7c:	459c      	cmp	ip, r3
    5e7e:	d100      	bne.n	5e82 <__aeabi_dsub+0x2e2>
    5e80:	e0c5      	b.n	600e <__aeabi_dsub+0x46e>
    5e82:	4452      	add	r2, sl
    5e84:	4552      	cmp	r2, sl
    5e86:	4180      	sbcs	r0, r0
    5e88:	1864      	adds	r4, r4, r1
    5e8a:	4240      	negs	r0, r0
    5e8c:	1824      	adds	r4, r4, r0
    5e8e:	07e7      	lsls	r7, r4, #31
    5e90:	0852      	lsrs	r2, r2, #1
    5e92:	4317      	orrs	r7, r2
    5e94:	0864      	lsrs	r4, r4, #1
    5e96:	4666      	mov	r6, ip
    5e98:	e708      	b.n	5cac <__aeabi_dsub+0x10c>
    5e9a:	4812      	ldr	r0, [pc, #72]	; (5ee4 <__aeabi_dsub+0x344>)
    5e9c:	4285      	cmp	r5, r0
    5e9e:	d100      	bne.n	5ea2 <__aeabi_dsub+0x302>
    5ea0:	e085      	b.n	5fae <__aeabi_dsub+0x40e>
    5ea2:	001d      	movs	r5, r3
    5ea4:	e6bc      	b.n	5c20 <__aeabi_dsub+0x80>
    5ea6:	0029      	movs	r1, r5
    5ea8:	3e1f      	subs	r6, #31
    5eaa:	40f1      	lsrs	r1, r6
    5eac:	2b20      	cmp	r3, #32
    5eae:	d100      	bne.n	5eb2 <__aeabi_dsub+0x312>
    5eb0:	e07f      	b.n	5fb2 <__aeabi_dsub+0x412>
    5eb2:	2240      	movs	r2, #64	; 0x40
    5eb4:	1ad3      	subs	r3, r2, r3
    5eb6:	409d      	lsls	r5, r3
    5eb8:	432f      	orrs	r7, r5
    5eba:	1e7d      	subs	r5, r7, #1
    5ebc:	41af      	sbcs	r7, r5
    5ebe:	2400      	movs	r4, #0
    5ec0:	430f      	orrs	r7, r1
    5ec2:	2600      	movs	r6, #0
    5ec4:	e78e      	b.n	5de4 <__aeabi_dsub+0x244>
    5ec6:	002b      	movs	r3, r5
    5ec8:	000f      	movs	r7, r1
    5eca:	3b20      	subs	r3, #32
    5ecc:	40df      	lsrs	r7, r3
    5ece:	2d20      	cmp	r5, #32
    5ed0:	d071      	beq.n	5fb6 <__aeabi_dsub+0x416>
    5ed2:	2340      	movs	r3, #64	; 0x40
    5ed4:	1b5d      	subs	r5, r3, r5
    5ed6:	40a9      	lsls	r1, r5
    5ed8:	430a      	orrs	r2, r1
    5eda:	1e51      	subs	r1, r2, #1
    5edc:	418a      	sbcs	r2, r1
    5ede:	2100      	movs	r1, #0
    5ee0:	4317      	orrs	r7, r2
    5ee2:	e6af      	b.n	5c44 <__aeabi_dsub+0xa4>
    5ee4:	000007ff 	.word	0x000007ff
    5ee8:	ff7fffff 	.word	0xff7fffff
    5eec:	800fffff 	.word	0x800fffff
    5ef0:	2e00      	cmp	r6, #0
    5ef2:	d03e      	beq.n	5f72 <__aeabi_dsub+0x3d2>
    5ef4:	4eb3      	ldr	r6, [pc, #716]	; (61c4 <__aeabi_dsub+0x624>)
    5ef6:	45b4      	cmp	ip, r6
    5ef8:	d045      	beq.n	5f86 <__aeabi_dsub+0x3e6>
    5efa:	2680      	movs	r6, #128	; 0x80
    5efc:	0436      	lsls	r6, r6, #16
    5efe:	426d      	negs	r5, r5
    5f00:	4334      	orrs	r4, r6
    5f02:	2d38      	cmp	r5, #56	; 0x38
    5f04:	dd00      	ble.n	5f08 <__aeabi_dsub+0x368>
    5f06:	e0a8      	b.n	605a <__aeabi_dsub+0x4ba>
    5f08:	2d1f      	cmp	r5, #31
    5f0a:	dd00      	ble.n	5f0e <__aeabi_dsub+0x36e>
    5f0c:	e11f      	b.n	614e <__aeabi_dsub+0x5ae>
    5f0e:	2620      	movs	r6, #32
    5f10:	0027      	movs	r7, r4
    5f12:	4650      	mov	r0, sl
    5f14:	1b76      	subs	r6, r6, r5
    5f16:	40b7      	lsls	r7, r6
    5f18:	40e8      	lsrs	r0, r5
    5f1a:	4307      	orrs	r7, r0
    5f1c:	4650      	mov	r0, sl
    5f1e:	40b0      	lsls	r0, r6
    5f20:	1e46      	subs	r6, r0, #1
    5f22:	41b0      	sbcs	r0, r6
    5f24:	40ec      	lsrs	r4, r5
    5f26:	4338      	orrs	r0, r7
    5f28:	1a17      	subs	r7, r2, r0
    5f2a:	42ba      	cmp	r2, r7
    5f2c:	4192      	sbcs	r2, r2
    5f2e:	1b0c      	subs	r4, r1, r4
    5f30:	4252      	negs	r2, r2
    5f32:	1aa4      	subs	r4, r4, r2
    5f34:	4666      	mov	r6, ip
    5f36:	4698      	mov	r8, r3
    5f38:	e68b      	b.n	5c52 <__aeabi_dsub+0xb2>
    5f3a:	4664      	mov	r4, ip
    5f3c:	4667      	mov	r7, ip
    5f3e:	432c      	orrs	r4, r5
    5f40:	d000      	beq.n	5f44 <__aeabi_dsub+0x3a4>
    5f42:	e68b      	b.n	5c5c <__aeabi_dsub+0xbc>
    5f44:	2500      	movs	r5, #0
    5f46:	2600      	movs	r6, #0
    5f48:	2700      	movs	r7, #0
    5f4a:	e6ea      	b.n	5d22 <__aeabi_dsub+0x182>
    5f4c:	001e      	movs	r6, r3
    5f4e:	e6ad      	b.n	5cac <__aeabi_dsub+0x10c>
    5f50:	2b1f      	cmp	r3, #31
    5f52:	dc60      	bgt.n	6016 <__aeabi_dsub+0x476>
    5f54:	2720      	movs	r7, #32
    5f56:	1af8      	subs	r0, r7, r3
    5f58:	000f      	movs	r7, r1
    5f5a:	4684      	mov	ip, r0
    5f5c:	4087      	lsls	r7, r0
    5f5e:	0010      	movs	r0, r2
    5f60:	40d8      	lsrs	r0, r3
    5f62:	4307      	orrs	r7, r0
    5f64:	4660      	mov	r0, ip
    5f66:	4082      	lsls	r2, r0
    5f68:	1e50      	subs	r0, r2, #1
    5f6a:	4182      	sbcs	r2, r0
    5f6c:	40d9      	lsrs	r1, r3
    5f6e:	4317      	orrs	r7, r2
    5f70:	e6f5      	b.n	5d5e <__aeabi_dsub+0x1be>
    5f72:	0026      	movs	r6, r4
    5f74:	4650      	mov	r0, sl
    5f76:	4306      	orrs	r6, r0
    5f78:	d005      	beq.n	5f86 <__aeabi_dsub+0x3e6>
    5f7a:	43ed      	mvns	r5, r5
    5f7c:	2d00      	cmp	r5, #0
    5f7e:	d0d3      	beq.n	5f28 <__aeabi_dsub+0x388>
    5f80:	4e90      	ldr	r6, [pc, #576]	; (61c4 <__aeabi_dsub+0x624>)
    5f82:	45b4      	cmp	ip, r6
    5f84:	d1bd      	bne.n	5f02 <__aeabi_dsub+0x362>
    5f86:	000c      	movs	r4, r1
    5f88:	0017      	movs	r7, r2
    5f8a:	4666      	mov	r6, ip
    5f8c:	4698      	mov	r8, r3
    5f8e:	e68d      	b.n	5cac <__aeabi_dsub+0x10c>
    5f90:	488c      	ldr	r0, [pc, #560]	; (61c4 <__aeabi_dsub+0x624>)
    5f92:	4283      	cmp	r3, r0
    5f94:	d00b      	beq.n	5fae <__aeabi_dsub+0x40e>
    5f96:	4663      	mov	r3, ip
    5f98:	e6d9      	b.n	5d4e <__aeabi_dsub+0x1ae>
    5f9a:	2d00      	cmp	r5, #0
    5f9c:	d000      	beq.n	5fa0 <__aeabi_dsub+0x400>
    5f9e:	e096      	b.n	60ce <__aeabi_dsub+0x52e>
    5fa0:	0008      	movs	r0, r1
    5fa2:	4310      	orrs	r0, r2
    5fa4:	d100      	bne.n	5fa8 <__aeabi_dsub+0x408>
    5fa6:	e0e2      	b.n	616e <__aeabi_dsub+0x5ce>
    5fa8:	000c      	movs	r4, r1
    5faa:	0017      	movs	r7, r2
    5fac:	4698      	mov	r8, r3
    5fae:	4e85      	ldr	r6, [pc, #532]	; (61c4 <__aeabi_dsub+0x624>)
    5fb0:	e67c      	b.n	5cac <__aeabi_dsub+0x10c>
    5fb2:	2500      	movs	r5, #0
    5fb4:	e780      	b.n	5eb8 <__aeabi_dsub+0x318>
    5fb6:	2100      	movs	r1, #0
    5fb8:	e78e      	b.n	5ed8 <__aeabi_dsub+0x338>
    5fba:	0023      	movs	r3, r4
    5fbc:	4650      	mov	r0, sl
    5fbe:	4303      	orrs	r3, r0
    5fc0:	2e00      	cmp	r6, #0
    5fc2:	d000      	beq.n	5fc6 <__aeabi_dsub+0x426>
    5fc4:	e0a8      	b.n	6118 <__aeabi_dsub+0x578>
    5fc6:	2b00      	cmp	r3, #0
    5fc8:	d100      	bne.n	5fcc <__aeabi_dsub+0x42c>
    5fca:	e0de      	b.n	618a <__aeabi_dsub+0x5ea>
    5fcc:	000b      	movs	r3, r1
    5fce:	4313      	orrs	r3, r2
    5fd0:	d100      	bne.n	5fd4 <__aeabi_dsub+0x434>
    5fd2:	e66b      	b.n	5cac <__aeabi_dsub+0x10c>
    5fd4:	4452      	add	r2, sl
    5fd6:	4552      	cmp	r2, sl
    5fd8:	4180      	sbcs	r0, r0
    5fda:	1864      	adds	r4, r4, r1
    5fdc:	4240      	negs	r0, r0
    5fde:	1824      	adds	r4, r4, r0
    5fe0:	0017      	movs	r7, r2
    5fe2:	0223      	lsls	r3, r4, #8
    5fe4:	d400      	bmi.n	5fe8 <__aeabi_dsub+0x448>
    5fe6:	e6fd      	b.n	5de4 <__aeabi_dsub+0x244>
    5fe8:	4b77      	ldr	r3, [pc, #476]	; (61c8 <__aeabi_dsub+0x628>)
    5fea:	4666      	mov	r6, ip
    5fec:	401c      	ands	r4, r3
    5fee:	e65d      	b.n	5cac <__aeabi_dsub+0x10c>
    5ff0:	0025      	movs	r5, r4
    5ff2:	4650      	mov	r0, sl
    5ff4:	4305      	orrs	r5, r0
    5ff6:	2e00      	cmp	r6, #0
    5ff8:	d1cf      	bne.n	5f9a <__aeabi_dsub+0x3fa>
    5ffa:	2d00      	cmp	r5, #0
    5ffc:	d14f      	bne.n	609e <__aeabi_dsub+0x4fe>
    5ffe:	000c      	movs	r4, r1
    6000:	4314      	orrs	r4, r2
    6002:	d100      	bne.n	6006 <__aeabi_dsub+0x466>
    6004:	e0a0      	b.n	6148 <__aeabi_dsub+0x5a8>
    6006:	000c      	movs	r4, r1
    6008:	0017      	movs	r7, r2
    600a:	4698      	mov	r8, r3
    600c:	e64e      	b.n	5cac <__aeabi_dsub+0x10c>
    600e:	4666      	mov	r6, ip
    6010:	2400      	movs	r4, #0
    6012:	2700      	movs	r7, #0
    6014:	e685      	b.n	5d22 <__aeabi_dsub+0x182>
    6016:	001f      	movs	r7, r3
    6018:	0008      	movs	r0, r1
    601a:	3f20      	subs	r7, #32
    601c:	40f8      	lsrs	r0, r7
    601e:	0007      	movs	r7, r0
    6020:	2b20      	cmp	r3, #32
    6022:	d100      	bne.n	6026 <__aeabi_dsub+0x486>
    6024:	e08e      	b.n	6144 <__aeabi_dsub+0x5a4>
    6026:	2040      	movs	r0, #64	; 0x40
    6028:	1ac3      	subs	r3, r0, r3
    602a:	4099      	lsls	r1, r3
    602c:	430a      	orrs	r2, r1
    602e:	1e51      	subs	r1, r2, #1
    6030:	418a      	sbcs	r2, r1
    6032:	2100      	movs	r1, #0
    6034:	4317      	orrs	r7, r2
    6036:	e692      	b.n	5d5e <__aeabi_dsub+0x1be>
    6038:	2e00      	cmp	r6, #0
    603a:	d114      	bne.n	6066 <__aeabi_dsub+0x4c6>
    603c:	0026      	movs	r6, r4
    603e:	4650      	mov	r0, sl
    6040:	4306      	orrs	r6, r0
    6042:	d062      	beq.n	610a <__aeabi_dsub+0x56a>
    6044:	43db      	mvns	r3, r3
    6046:	2b00      	cmp	r3, #0
    6048:	d15c      	bne.n	6104 <__aeabi_dsub+0x564>
    604a:	1887      	adds	r7, r0, r2
    604c:	4297      	cmp	r7, r2
    604e:	4192      	sbcs	r2, r2
    6050:	1864      	adds	r4, r4, r1
    6052:	4252      	negs	r2, r2
    6054:	18a4      	adds	r4, r4, r2
    6056:	4666      	mov	r6, ip
    6058:	e687      	b.n	5d6a <__aeabi_dsub+0x1ca>
    605a:	4650      	mov	r0, sl
    605c:	4320      	orrs	r0, r4
    605e:	1e44      	subs	r4, r0, #1
    6060:	41a0      	sbcs	r0, r4
    6062:	2400      	movs	r4, #0
    6064:	e760      	b.n	5f28 <__aeabi_dsub+0x388>
    6066:	4e57      	ldr	r6, [pc, #348]	; (61c4 <__aeabi_dsub+0x624>)
    6068:	45b4      	cmp	ip, r6
    606a:	d04e      	beq.n	610a <__aeabi_dsub+0x56a>
    606c:	2680      	movs	r6, #128	; 0x80
    606e:	0436      	lsls	r6, r6, #16
    6070:	425b      	negs	r3, r3
    6072:	4334      	orrs	r4, r6
    6074:	2b38      	cmp	r3, #56	; 0x38
    6076:	dd00      	ble.n	607a <__aeabi_dsub+0x4da>
    6078:	e07f      	b.n	617a <__aeabi_dsub+0x5da>
    607a:	2b1f      	cmp	r3, #31
    607c:	dd00      	ble.n	6080 <__aeabi_dsub+0x4e0>
    607e:	e08b      	b.n	6198 <__aeabi_dsub+0x5f8>
    6080:	2620      	movs	r6, #32
    6082:	0027      	movs	r7, r4
    6084:	4650      	mov	r0, sl
    6086:	1af6      	subs	r6, r6, r3
    6088:	40b7      	lsls	r7, r6
    608a:	40d8      	lsrs	r0, r3
    608c:	4307      	orrs	r7, r0
    608e:	4650      	mov	r0, sl
    6090:	40b0      	lsls	r0, r6
    6092:	1e46      	subs	r6, r0, #1
    6094:	41b0      	sbcs	r0, r6
    6096:	4307      	orrs	r7, r0
    6098:	40dc      	lsrs	r4, r3
    609a:	18bf      	adds	r7, r7, r2
    609c:	e7d6      	b.n	604c <__aeabi_dsub+0x4ac>
    609e:	000d      	movs	r5, r1
    60a0:	4315      	orrs	r5, r2
    60a2:	d100      	bne.n	60a6 <__aeabi_dsub+0x506>
    60a4:	e602      	b.n	5cac <__aeabi_dsub+0x10c>
    60a6:	4650      	mov	r0, sl
    60a8:	1a80      	subs	r0, r0, r2
    60aa:	4582      	cmp	sl, r0
    60ac:	41bf      	sbcs	r7, r7
    60ae:	1a65      	subs	r5, r4, r1
    60b0:	427f      	negs	r7, r7
    60b2:	1bed      	subs	r5, r5, r7
    60b4:	4684      	mov	ip, r0
    60b6:	0228      	lsls	r0, r5, #8
    60b8:	d400      	bmi.n	60bc <__aeabi_dsub+0x51c>
    60ba:	e68d      	b.n	5dd8 <__aeabi_dsub+0x238>
    60bc:	4650      	mov	r0, sl
    60be:	1a17      	subs	r7, r2, r0
    60c0:	42ba      	cmp	r2, r7
    60c2:	4192      	sbcs	r2, r2
    60c4:	1b0c      	subs	r4, r1, r4
    60c6:	4252      	negs	r2, r2
    60c8:	1aa4      	subs	r4, r4, r2
    60ca:	4698      	mov	r8, r3
    60cc:	e5ee      	b.n	5cac <__aeabi_dsub+0x10c>
    60ce:	000d      	movs	r5, r1
    60d0:	4315      	orrs	r5, r2
    60d2:	d100      	bne.n	60d6 <__aeabi_dsub+0x536>
    60d4:	e76b      	b.n	5fae <__aeabi_dsub+0x40e>
    60d6:	4650      	mov	r0, sl
    60d8:	0767      	lsls	r7, r4, #29
    60da:	08c0      	lsrs	r0, r0, #3
    60dc:	4307      	orrs	r7, r0
    60de:	2080      	movs	r0, #128	; 0x80
    60e0:	08e4      	lsrs	r4, r4, #3
    60e2:	0300      	lsls	r0, r0, #12
    60e4:	4204      	tst	r4, r0
    60e6:	d007      	beq.n	60f8 <__aeabi_dsub+0x558>
    60e8:	08cd      	lsrs	r5, r1, #3
    60ea:	4205      	tst	r5, r0
    60ec:	d104      	bne.n	60f8 <__aeabi_dsub+0x558>
    60ee:	002c      	movs	r4, r5
    60f0:	4698      	mov	r8, r3
    60f2:	08d7      	lsrs	r7, r2, #3
    60f4:	0749      	lsls	r1, r1, #29
    60f6:	430f      	orrs	r7, r1
    60f8:	0f7b      	lsrs	r3, r7, #29
    60fa:	00e4      	lsls	r4, r4, #3
    60fc:	431c      	orrs	r4, r3
    60fe:	00ff      	lsls	r7, r7, #3
    6100:	4e30      	ldr	r6, [pc, #192]	; (61c4 <__aeabi_dsub+0x624>)
    6102:	e5d3      	b.n	5cac <__aeabi_dsub+0x10c>
    6104:	4e2f      	ldr	r6, [pc, #188]	; (61c4 <__aeabi_dsub+0x624>)
    6106:	45b4      	cmp	ip, r6
    6108:	d1b4      	bne.n	6074 <__aeabi_dsub+0x4d4>
    610a:	000c      	movs	r4, r1
    610c:	0017      	movs	r7, r2
    610e:	4666      	mov	r6, ip
    6110:	e5cc      	b.n	5cac <__aeabi_dsub+0x10c>
    6112:	2700      	movs	r7, #0
    6114:	2400      	movs	r4, #0
    6116:	e5e8      	b.n	5cea <__aeabi_dsub+0x14a>
    6118:	2b00      	cmp	r3, #0
    611a:	d039      	beq.n	6190 <__aeabi_dsub+0x5f0>
    611c:	000b      	movs	r3, r1
    611e:	4313      	orrs	r3, r2
    6120:	d100      	bne.n	6124 <__aeabi_dsub+0x584>
    6122:	e744      	b.n	5fae <__aeabi_dsub+0x40e>
    6124:	08c0      	lsrs	r0, r0, #3
    6126:	0767      	lsls	r7, r4, #29
    6128:	4307      	orrs	r7, r0
    612a:	2080      	movs	r0, #128	; 0x80
    612c:	08e4      	lsrs	r4, r4, #3
    612e:	0300      	lsls	r0, r0, #12
    6130:	4204      	tst	r4, r0
    6132:	d0e1      	beq.n	60f8 <__aeabi_dsub+0x558>
    6134:	08cb      	lsrs	r3, r1, #3
    6136:	4203      	tst	r3, r0
    6138:	d1de      	bne.n	60f8 <__aeabi_dsub+0x558>
    613a:	08d7      	lsrs	r7, r2, #3
    613c:	0749      	lsls	r1, r1, #29
    613e:	430f      	orrs	r7, r1
    6140:	001c      	movs	r4, r3
    6142:	e7d9      	b.n	60f8 <__aeabi_dsub+0x558>
    6144:	2100      	movs	r1, #0
    6146:	e771      	b.n	602c <__aeabi_dsub+0x48c>
    6148:	2500      	movs	r5, #0
    614a:	2700      	movs	r7, #0
    614c:	e5e9      	b.n	5d22 <__aeabi_dsub+0x182>
    614e:	002e      	movs	r6, r5
    6150:	0027      	movs	r7, r4
    6152:	3e20      	subs	r6, #32
    6154:	40f7      	lsrs	r7, r6
    6156:	2d20      	cmp	r5, #32
    6158:	d02f      	beq.n	61ba <__aeabi_dsub+0x61a>
    615a:	2640      	movs	r6, #64	; 0x40
    615c:	1b75      	subs	r5, r6, r5
    615e:	40ac      	lsls	r4, r5
    6160:	4650      	mov	r0, sl
    6162:	4320      	orrs	r0, r4
    6164:	1e44      	subs	r4, r0, #1
    6166:	41a0      	sbcs	r0, r4
    6168:	2400      	movs	r4, #0
    616a:	4338      	orrs	r0, r7
    616c:	e6dc      	b.n	5f28 <__aeabi_dsub+0x388>
    616e:	2480      	movs	r4, #128	; 0x80
    6170:	2500      	movs	r5, #0
    6172:	0324      	lsls	r4, r4, #12
    6174:	4e13      	ldr	r6, [pc, #76]	; (61c4 <__aeabi_dsub+0x624>)
    6176:	2700      	movs	r7, #0
    6178:	e5d3      	b.n	5d22 <__aeabi_dsub+0x182>
    617a:	4650      	mov	r0, sl
    617c:	4320      	orrs	r0, r4
    617e:	0007      	movs	r7, r0
    6180:	1e78      	subs	r0, r7, #1
    6182:	4187      	sbcs	r7, r0
    6184:	2400      	movs	r4, #0
    6186:	18bf      	adds	r7, r7, r2
    6188:	e760      	b.n	604c <__aeabi_dsub+0x4ac>
    618a:	000c      	movs	r4, r1
    618c:	0017      	movs	r7, r2
    618e:	e58d      	b.n	5cac <__aeabi_dsub+0x10c>
    6190:	000c      	movs	r4, r1
    6192:	0017      	movs	r7, r2
    6194:	4e0b      	ldr	r6, [pc, #44]	; (61c4 <__aeabi_dsub+0x624>)
    6196:	e589      	b.n	5cac <__aeabi_dsub+0x10c>
    6198:	001e      	movs	r6, r3
    619a:	0027      	movs	r7, r4
    619c:	3e20      	subs	r6, #32
    619e:	40f7      	lsrs	r7, r6
    61a0:	2b20      	cmp	r3, #32
    61a2:	d00c      	beq.n	61be <__aeabi_dsub+0x61e>
    61a4:	2640      	movs	r6, #64	; 0x40
    61a6:	1af3      	subs	r3, r6, r3
    61a8:	409c      	lsls	r4, r3
    61aa:	4650      	mov	r0, sl
    61ac:	4320      	orrs	r0, r4
    61ae:	1e44      	subs	r4, r0, #1
    61b0:	41a0      	sbcs	r0, r4
    61b2:	4307      	orrs	r7, r0
    61b4:	2400      	movs	r4, #0
    61b6:	18bf      	adds	r7, r7, r2
    61b8:	e748      	b.n	604c <__aeabi_dsub+0x4ac>
    61ba:	2400      	movs	r4, #0
    61bc:	e7d0      	b.n	6160 <__aeabi_dsub+0x5c0>
    61be:	2400      	movs	r4, #0
    61c0:	e7f3      	b.n	61aa <__aeabi_dsub+0x60a>
    61c2:	46c0      	nop			; (mov r8, r8)
    61c4:	000007ff 	.word	0x000007ff
    61c8:	ff7fffff 	.word	0xff7fffff

000061cc <__aeabi_d2iz>:
    61cc:	b530      	push	{r4, r5, lr}
    61ce:	4d13      	ldr	r5, [pc, #76]	; (621c <__aeabi_d2iz+0x50>)
    61d0:	030a      	lsls	r2, r1, #12
    61d2:	004b      	lsls	r3, r1, #1
    61d4:	0b12      	lsrs	r2, r2, #12
    61d6:	0d5b      	lsrs	r3, r3, #21
    61d8:	0fc9      	lsrs	r1, r1, #31
    61da:	2400      	movs	r4, #0
    61dc:	42ab      	cmp	r3, r5
    61de:	dd10      	ble.n	6202 <__aeabi_d2iz+0x36>
    61e0:	4c0f      	ldr	r4, [pc, #60]	; (6220 <__aeabi_d2iz+0x54>)
    61e2:	42a3      	cmp	r3, r4
    61e4:	dc0f      	bgt.n	6206 <__aeabi_d2iz+0x3a>
    61e6:	2480      	movs	r4, #128	; 0x80
    61e8:	4d0e      	ldr	r5, [pc, #56]	; (6224 <__aeabi_d2iz+0x58>)
    61ea:	0364      	lsls	r4, r4, #13
    61ec:	4322      	orrs	r2, r4
    61ee:	1aed      	subs	r5, r5, r3
    61f0:	2d1f      	cmp	r5, #31
    61f2:	dd0b      	ble.n	620c <__aeabi_d2iz+0x40>
    61f4:	480c      	ldr	r0, [pc, #48]	; (6228 <__aeabi_d2iz+0x5c>)
    61f6:	1ac3      	subs	r3, r0, r3
    61f8:	40da      	lsrs	r2, r3
    61fa:	4254      	negs	r4, r2
    61fc:	2900      	cmp	r1, #0
    61fe:	d100      	bne.n	6202 <__aeabi_d2iz+0x36>
    6200:	0014      	movs	r4, r2
    6202:	0020      	movs	r0, r4
    6204:	bd30      	pop	{r4, r5, pc}
    6206:	4b09      	ldr	r3, [pc, #36]	; (622c <__aeabi_d2iz+0x60>)
    6208:	18cc      	adds	r4, r1, r3
    620a:	e7fa      	b.n	6202 <__aeabi_d2iz+0x36>
    620c:	4c08      	ldr	r4, [pc, #32]	; (6230 <__aeabi_d2iz+0x64>)
    620e:	40e8      	lsrs	r0, r5
    6210:	46a4      	mov	ip, r4
    6212:	4463      	add	r3, ip
    6214:	409a      	lsls	r2, r3
    6216:	4302      	orrs	r2, r0
    6218:	e7ef      	b.n	61fa <__aeabi_d2iz+0x2e>
    621a:	46c0      	nop			; (mov r8, r8)
    621c:	000003fe 	.word	0x000003fe
    6220:	0000041d 	.word	0x0000041d
    6224:	00000433 	.word	0x00000433
    6228:	00000413 	.word	0x00000413
    622c:	7fffffff 	.word	0x7fffffff
    6230:	fffffbed 	.word	0xfffffbed

00006234 <__aeabi_ui2d>:
    6234:	b510      	push	{r4, lr}
    6236:	1e04      	subs	r4, r0, #0
    6238:	d028      	beq.n	628c <__aeabi_ui2d+0x58>
    623a:	f000 f833 	bl	62a4 <__clzsi2>
    623e:	4b15      	ldr	r3, [pc, #84]	; (6294 <__aeabi_ui2d+0x60>)
    6240:	4a15      	ldr	r2, [pc, #84]	; (6298 <__aeabi_ui2d+0x64>)
    6242:	1a1b      	subs	r3, r3, r0
    6244:	1ad2      	subs	r2, r2, r3
    6246:	2a1f      	cmp	r2, #31
    6248:	dd15      	ble.n	6276 <__aeabi_ui2d+0x42>
    624a:	4a14      	ldr	r2, [pc, #80]	; (629c <__aeabi_ui2d+0x68>)
    624c:	1ad2      	subs	r2, r2, r3
    624e:	4094      	lsls	r4, r2
    6250:	2200      	movs	r2, #0
    6252:	0324      	lsls	r4, r4, #12
    6254:	055b      	lsls	r3, r3, #21
    6256:	0b24      	lsrs	r4, r4, #12
    6258:	0d5b      	lsrs	r3, r3, #21
    625a:	2100      	movs	r1, #0
    625c:	0010      	movs	r0, r2
    625e:	0324      	lsls	r4, r4, #12
    6260:	0d0a      	lsrs	r2, r1, #20
    6262:	0b24      	lsrs	r4, r4, #12
    6264:	0512      	lsls	r2, r2, #20
    6266:	4322      	orrs	r2, r4
    6268:	4c0d      	ldr	r4, [pc, #52]	; (62a0 <__aeabi_ui2d+0x6c>)
    626a:	051b      	lsls	r3, r3, #20
    626c:	4022      	ands	r2, r4
    626e:	4313      	orrs	r3, r2
    6270:	005b      	lsls	r3, r3, #1
    6272:	0859      	lsrs	r1, r3, #1
    6274:	bd10      	pop	{r4, pc}
    6276:	0021      	movs	r1, r4
    6278:	4091      	lsls	r1, r2
    627a:	000a      	movs	r2, r1
    627c:	210b      	movs	r1, #11
    627e:	1a08      	subs	r0, r1, r0
    6280:	40c4      	lsrs	r4, r0
    6282:	055b      	lsls	r3, r3, #21
    6284:	0324      	lsls	r4, r4, #12
    6286:	0b24      	lsrs	r4, r4, #12
    6288:	0d5b      	lsrs	r3, r3, #21
    628a:	e7e6      	b.n	625a <__aeabi_ui2d+0x26>
    628c:	2300      	movs	r3, #0
    628e:	2400      	movs	r4, #0
    6290:	2200      	movs	r2, #0
    6292:	e7e2      	b.n	625a <__aeabi_ui2d+0x26>
    6294:	0000041e 	.word	0x0000041e
    6298:	00000433 	.word	0x00000433
    629c:	00000413 	.word	0x00000413
    62a0:	800fffff 	.word	0x800fffff

000062a4 <__clzsi2>:
    62a4:	211c      	movs	r1, #28
    62a6:	2301      	movs	r3, #1
    62a8:	041b      	lsls	r3, r3, #16
    62aa:	4298      	cmp	r0, r3
    62ac:	d301      	bcc.n	62b2 <__clzsi2+0xe>
    62ae:	0c00      	lsrs	r0, r0, #16
    62b0:	3910      	subs	r1, #16
    62b2:	0a1b      	lsrs	r3, r3, #8
    62b4:	4298      	cmp	r0, r3
    62b6:	d301      	bcc.n	62bc <__clzsi2+0x18>
    62b8:	0a00      	lsrs	r0, r0, #8
    62ba:	3908      	subs	r1, #8
    62bc:	091b      	lsrs	r3, r3, #4
    62be:	4298      	cmp	r0, r3
    62c0:	d301      	bcc.n	62c6 <__clzsi2+0x22>
    62c2:	0900      	lsrs	r0, r0, #4
    62c4:	3904      	subs	r1, #4
    62c6:	a202      	add	r2, pc, #8	; (adr r2, 62d0 <__clzsi2+0x2c>)
    62c8:	5c10      	ldrb	r0, [r2, r0]
    62ca:	1840      	adds	r0, r0, r1
    62cc:	4770      	bx	lr
    62ce:	46c0      	nop			; (mov r8, r8)
    62d0:	02020304 	.word	0x02020304
    62d4:	01010101 	.word	0x01010101
	...

000062e0 <__libc_init_array>:
    62e0:	b570      	push	{r4, r5, r6, lr}
    62e2:	2600      	movs	r6, #0
    62e4:	4d0c      	ldr	r5, [pc, #48]	; (6318 <__libc_init_array+0x38>)
    62e6:	4c0d      	ldr	r4, [pc, #52]	; (631c <__libc_init_array+0x3c>)
    62e8:	1b64      	subs	r4, r4, r5
    62ea:	10a4      	asrs	r4, r4, #2
    62ec:	42a6      	cmp	r6, r4
    62ee:	d109      	bne.n	6304 <__libc_init_array+0x24>
    62f0:	2600      	movs	r6, #0
    62f2:	f000 fd79 	bl	6de8 <_init>
    62f6:	4d0a      	ldr	r5, [pc, #40]	; (6320 <__libc_init_array+0x40>)
    62f8:	4c0a      	ldr	r4, [pc, #40]	; (6324 <__libc_init_array+0x44>)
    62fa:	1b64      	subs	r4, r4, r5
    62fc:	10a4      	asrs	r4, r4, #2
    62fe:	42a6      	cmp	r6, r4
    6300:	d105      	bne.n	630e <__libc_init_array+0x2e>
    6302:	bd70      	pop	{r4, r5, r6, pc}
    6304:	00b3      	lsls	r3, r6, #2
    6306:	58eb      	ldr	r3, [r5, r3]
    6308:	4798      	blx	r3
    630a:	3601      	adds	r6, #1
    630c:	e7ee      	b.n	62ec <__libc_init_array+0xc>
    630e:	00b3      	lsls	r3, r6, #2
    6310:	58eb      	ldr	r3, [r5, r3]
    6312:	4798      	blx	r3
    6314:	3601      	adds	r6, #1
    6316:	e7f2      	b.n	62fe <__libc_init_array+0x1e>
    6318:	00006df4 	.word	0x00006df4
    631c:	00006df4 	.word	0x00006df4
    6320:	00006df4 	.word	0x00006df4
    6324:	00006df8 	.word	0x00006df8

00006328 <memcpy>:
    6328:	2300      	movs	r3, #0
    632a:	b510      	push	{r4, lr}
    632c:	429a      	cmp	r2, r3
    632e:	d100      	bne.n	6332 <memcpy+0xa>
    6330:	bd10      	pop	{r4, pc}
    6332:	5ccc      	ldrb	r4, [r1, r3]
    6334:	54c4      	strb	r4, [r0, r3]
    6336:	3301      	adds	r3, #1
    6338:	e7f8      	b.n	632c <memcpy+0x4>

0000633a <memset>:
    633a:	0003      	movs	r3, r0
    633c:	1882      	adds	r2, r0, r2
    633e:	4293      	cmp	r3, r2
    6340:	d100      	bne.n	6344 <memset+0xa>
    6342:	4770      	bx	lr
    6344:	7019      	strb	r1, [r3, #0]
    6346:	3301      	adds	r3, #1
    6348:	e7f9      	b.n	633e <memset+0x4>

0000634a <setbuf>:
    634a:	424a      	negs	r2, r1
    634c:	414a      	adcs	r2, r1
    634e:	2380      	movs	r3, #128	; 0x80
    6350:	b510      	push	{r4, lr}
    6352:	0052      	lsls	r2, r2, #1
    6354:	00db      	lsls	r3, r3, #3
    6356:	f000 f801 	bl	635c <setvbuf>
    635a:	bd10      	pop	{r4, pc}

0000635c <setvbuf>:
    635c:	b5f0      	push	{r4, r5, r6, r7, lr}
    635e:	001d      	movs	r5, r3
    6360:	4b4f      	ldr	r3, [pc, #316]	; (64a0 <setvbuf+0x144>)
    6362:	b085      	sub	sp, #20
    6364:	681e      	ldr	r6, [r3, #0]
    6366:	0004      	movs	r4, r0
    6368:	000f      	movs	r7, r1
    636a:	9200      	str	r2, [sp, #0]
    636c:	2e00      	cmp	r6, #0
    636e:	d005      	beq.n	637c <setvbuf+0x20>
    6370:	69b3      	ldr	r3, [r6, #24]
    6372:	2b00      	cmp	r3, #0
    6374:	d102      	bne.n	637c <setvbuf+0x20>
    6376:	0030      	movs	r0, r6
    6378:	f000 f994 	bl	66a4 <__sinit>
    637c:	4b49      	ldr	r3, [pc, #292]	; (64a4 <setvbuf+0x148>)
    637e:	429c      	cmp	r4, r3
    6380:	d150      	bne.n	6424 <setvbuf+0xc8>
    6382:	6874      	ldr	r4, [r6, #4]
    6384:	9b00      	ldr	r3, [sp, #0]
    6386:	2b02      	cmp	r3, #2
    6388:	d005      	beq.n	6396 <setvbuf+0x3a>
    638a:	2b01      	cmp	r3, #1
    638c:	d900      	bls.n	6390 <setvbuf+0x34>
    638e:	e084      	b.n	649a <setvbuf+0x13e>
    6390:	2d00      	cmp	r5, #0
    6392:	da00      	bge.n	6396 <setvbuf+0x3a>
    6394:	e081      	b.n	649a <setvbuf+0x13e>
    6396:	0021      	movs	r1, r4
    6398:	0030      	movs	r0, r6
    639a:	f000 f915 	bl	65c8 <_fflush_r>
    639e:	6b61      	ldr	r1, [r4, #52]	; 0x34
    63a0:	2900      	cmp	r1, #0
    63a2:	d008      	beq.n	63b6 <setvbuf+0x5a>
    63a4:	0023      	movs	r3, r4
    63a6:	3344      	adds	r3, #68	; 0x44
    63a8:	4299      	cmp	r1, r3
    63aa:	d002      	beq.n	63b2 <setvbuf+0x56>
    63ac:	0030      	movs	r0, r6
    63ae:	f000 fa41 	bl	6834 <_free_r>
    63b2:	2300      	movs	r3, #0
    63b4:	6363      	str	r3, [r4, #52]	; 0x34
    63b6:	2300      	movs	r3, #0
    63b8:	61a3      	str	r3, [r4, #24]
    63ba:	6063      	str	r3, [r4, #4]
    63bc:	89a3      	ldrh	r3, [r4, #12]
    63be:	061b      	lsls	r3, r3, #24
    63c0:	d503      	bpl.n	63ca <setvbuf+0x6e>
    63c2:	6921      	ldr	r1, [r4, #16]
    63c4:	0030      	movs	r0, r6
    63c6:	f000 fa35 	bl	6834 <_free_r>
    63ca:	89a3      	ldrh	r3, [r4, #12]
    63cc:	4a36      	ldr	r2, [pc, #216]	; (64a8 <setvbuf+0x14c>)
    63ce:	4013      	ands	r3, r2
    63d0:	81a3      	strh	r3, [r4, #12]
    63d2:	9b00      	ldr	r3, [sp, #0]
    63d4:	2b02      	cmp	r3, #2
    63d6:	d05a      	beq.n	648e <setvbuf+0x132>
    63d8:	ab03      	add	r3, sp, #12
    63da:	aa02      	add	r2, sp, #8
    63dc:	0021      	movs	r1, r4
    63de:	0030      	movs	r0, r6
    63e0:	f000 f9f6 	bl	67d0 <__swhatbuf_r>
    63e4:	89a3      	ldrh	r3, [r4, #12]
    63e6:	4318      	orrs	r0, r3
    63e8:	81a0      	strh	r0, [r4, #12]
    63ea:	2d00      	cmp	r5, #0
    63ec:	d124      	bne.n	6438 <setvbuf+0xdc>
    63ee:	9d02      	ldr	r5, [sp, #8]
    63f0:	0028      	movs	r0, r5
    63f2:	f000 fa15 	bl	6820 <malloc>
    63f6:	9501      	str	r5, [sp, #4]
    63f8:	1e07      	subs	r7, r0, #0
    63fa:	d142      	bne.n	6482 <setvbuf+0x126>
    63fc:	9b02      	ldr	r3, [sp, #8]
    63fe:	9301      	str	r3, [sp, #4]
    6400:	42ab      	cmp	r3, r5
    6402:	d139      	bne.n	6478 <setvbuf+0x11c>
    6404:	2001      	movs	r0, #1
    6406:	4240      	negs	r0, r0
    6408:	2302      	movs	r3, #2
    640a:	89a2      	ldrh	r2, [r4, #12]
    640c:	4313      	orrs	r3, r2
    640e:	81a3      	strh	r3, [r4, #12]
    6410:	2300      	movs	r3, #0
    6412:	60a3      	str	r3, [r4, #8]
    6414:	0023      	movs	r3, r4
    6416:	3347      	adds	r3, #71	; 0x47
    6418:	6023      	str	r3, [r4, #0]
    641a:	6123      	str	r3, [r4, #16]
    641c:	2301      	movs	r3, #1
    641e:	6163      	str	r3, [r4, #20]
    6420:	b005      	add	sp, #20
    6422:	bdf0      	pop	{r4, r5, r6, r7, pc}
    6424:	4b21      	ldr	r3, [pc, #132]	; (64ac <setvbuf+0x150>)
    6426:	429c      	cmp	r4, r3
    6428:	d101      	bne.n	642e <setvbuf+0xd2>
    642a:	68b4      	ldr	r4, [r6, #8]
    642c:	e7aa      	b.n	6384 <setvbuf+0x28>
    642e:	4b20      	ldr	r3, [pc, #128]	; (64b0 <setvbuf+0x154>)
    6430:	429c      	cmp	r4, r3
    6432:	d1a7      	bne.n	6384 <setvbuf+0x28>
    6434:	68f4      	ldr	r4, [r6, #12]
    6436:	e7a5      	b.n	6384 <setvbuf+0x28>
    6438:	2f00      	cmp	r7, #0
    643a:	d0d9      	beq.n	63f0 <setvbuf+0x94>
    643c:	69b3      	ldr	r3, [r6, #24]
    643e:	2b00      	cmp	r3, #0
    6440:	d102      	bne.n	6448 <setvbuf+0xec>
    6442:	0030      	movs	r0, r6
    6444:	f000 f92e 	bl	66a4 <__sinit>
    6448:	9b00      	ldr	r3, [sp, #0]
    644a:	2b01      	cmp	r3, #1
    644c:	d103      	bne.n	6456 <setvbuf+0xfa>
    644e:	89a3      	ldrh	r3, [r4, #12]
    6450:	9a00      	ldr	r2, [sp, #0]
    6452:	431a      	orrs	r2, r3
    6454:	81a2      	strh	r2, [r4, #12]
    6456:	2008      	movs	r0, #8
    6458:	89a3      	ldrh	r3, [r4, #12]
    645a:	6027      	str	r7, [r4, #0]
    645c:	6127      	str	r7, [r4, #16]
    645e:	6165      	str	r5, [r4, #20]
    6460:	4018      	ands	r0, r3
    6462:	d018      	beq.n	6496 <setvbuf+0x13a>
    6464:	2001      	movs	r0, #1
    6466:	4018      	ands	r0, r3
    6468:	2300      	movs	r3, #0
    646a:	4298      	cmp	r0, r3
    646c:	d011      	beq.n	6492 <setvbuf+0x136>
    646e:	426d      	negs	r5, r5
    6470:	60a3      	str	r3, [r4, #8]
    6472:	61a5      	str	r5, [r4, #24]
    6474:	0018      	movs	r0, r3
    6476:	e7d3      	b.n	6420 <setvbuf+0xc4>
    6478:	9801      	ldr	r0, [sp, #4]
    647a:	f000 f9d1 	bl	6820 <malloc>
    647e:	1e07      	subs	r7, r0, #0
    6480:	d0c0      	beq.n	6404 <setvbuf+0xa8>
    6482:	2380      	movs	r3, #128	; 0x80
    6484:	89a2      	ldrh	r2, [r4, #12]
    6486:	9d01      	ldr	r5, [sp, #4]
    6488:	4313      	orrs	r3, r2
    648a:	81a3      	strh	r3, [r4, #12]
    648c:	e7d6      	b.n	643c <setvbuf+0xe0>
    648e:	2000      	movs	r0, #0
    6490:	e7ba      	b.n	6408 <setvbuf+0xac>
    6492:	60a5      	str	r5, [r4, #8]
    6494:	e7c4      	b.n	6420 <setvbuf+0xc4>
    6496:	60a0      	str	r0, [r4, #8]
    6498:	e7c2      	b.n	6420 <setvbuf+0xc4>
    649a:	2001      	movs	r0, #1
    649c:	4240      	negs	r0, r0
    649e:	e7bf      	b.n	6420 <setvbuf+0xc4>
    64a0:	20000050 	.word	0x20000050
    64a4:	00006da8 	.word	0x00006da8
    64a8:	fffff35c 	.word	0xfffff35c
    64ac:	00006dc8 	.word	0x00006dc8
    64b0:	00006d88 	.word	0x00006d88

000064b4 <__sflush_r>:
    64b4:	b5f7      	push	{r0, r1, r2, r4, r5, r6, r7, lr}
    64b6:	898a      	ldrh	r2, [r1, #12]
    64b8:	0005      	movs	r5, r0
    64ba:	000c      	movs	r4, r1
    64bc:	0713      	lsls	r3, r2, #28
    64be:	d460      	bmi.n	6582 <__sflush_r+0xce>
    64c0:	684b      	ldr	r3, [r1, #4]
    64c2:	2b00      	cmp	r3, #0
    64c4:	dc04      	bgt.n	64d0 <__sflush_r+0x1c>
    64c6:	6c0b      	ldr	r3, [r1, #64]	; 0x40
    64c8:	2b00      	cmp	r3, #0
    64ca:	dc01      	bgt.n	64d0 <__sflush_r+0x1c>
    64cc:	2000      	movs	r0, #0
    64ce:	bdfe      	pop	{r1, r2, r3, r4, r5, r6, r7, pc}
    64d0:	6ae7      	ldr	r7, [r4, #44]	; 0x2c
    64d2:	2f00      	cmp	r7, #0
    64d4:	d0fa      	beq.n	64cc <__sflush_r+0x18>
    64d6:	2300      	movs	r3, #0
    64d8:	682e      	ldr	r6, [r5, #0]
    64da:	602b      	str	r3, [r5, #0]
    64dc:	2380      	movs	r3, #128	; 0x80
    64de:	015b      	lsls	r3, r3, #5
    64e0:	401a      	ands	r2, r3
    64e2:	d034      	beq.n	654e <__sflush_r+0x9a>
    64e4:	6d60      	ldr	r0, [r4, #84]	; 0x54
    64e6:	89a3      	ldrh	r3, [r4, #12]
    64e8:	075b      	lsls	r3, r3, #29
    64ea:	d506      	bpl.n	64fa <__sflush_r+0x46>
    64ec:	6863      	ldr	r3, [r4, #4]
    64ee:	1ac0      	subs	r0, r0, r3
    64f0:	6b63      	ldr	r3, [r4, #52]	; 0x34
    64f2:	2b00      	cmp	r3, #0
    64f4:	d001      	beq.n	64fa <__sflush_r+0x46>
    64f6:	6c23      	ldr	r3, [r4, #64]	; 0x40
    64f8:	1ac0      	subs	r0, r0, r3
    64fa:	0002      	movs	r2, r0
    64fc:	6a21      	ldr	r1, [r4, #32]
    64fe:	2300      	movs	r3, #0
    6500:	0028      	movs	r0, r5
    6502:	6ae7      	ldr	r7, [r4, #44]	; 0x2c
    6504:	47b8      	blx	r7
    6506:	89a1      	ldrh	r1, [r4, #12]
    6508:	1c43      	adds	r3, r0, #1
    650a:	d106      	bne.n	651a <__sflush_r+0x66>
    650c:	682b      	ldr	r3, [r5, #0]
    650e:	2b1d      	cmp	r3, #29
    6510:	d831      	bhi.n	6576 <__sflush_r+0xc2>
    6512:	4a2c      	ldr	r2, [pc, #176]	; (65c4 <__sflush_r+0x110>)
    6514:	40da      	lsrs	r2, r3
    6516:	07d3      	lsls	r3, r2, #31
    6518:	d52d      	bpl.n	6576 <__sflush_r+0xc2>
    651a:	2300      	movs	r3, #0
    651c:	6063      	str	r3, [r4, #4]
    651e:	6923      	ldr	r3, [r4, #16]
    6520:	6023      	str	r3, [r4, #0]
    6522:	04cb      	lsls	r3, r1, #19
    6524:	d505      	bpl.n	6532 <__sflush_r+0x7e>
    6526:	1c43      	adds	r3, r0, #1
    6528:	d102      	bne.n	6530 <__sflush_r+0x7c>
    652a:	682b      	ldr	r3, [r5, #0]
    652c:	2b00      	cmp	r3, #0
    652e:	d100      	bne.n	6532 <__sflush_r+0x7e>
    6530:	6560      	str	r0, [r4, #84]	; 0x54
    6532:	6b61      	ldr	r1, [r4, #52]	; 0x34
    6534:	602e      	str	r6, [r5, #0]
    6536:	2900      	cmp	r1, #0
    6538:	d0c8      	beq.n	64cc <__sflush_r+0x18>
    653a:	0023      	movs	r3, r4
    653c:	3344      	adds	r3, #68	; 0x44
    653e:	4299      	cmp	r1, r3
    6540:	d002      	beq.n	6548 <__sflush_r+0x94>
    6542:	0028      	movs	r0, r5
    6544:	f000 f976 	bl	6834 <_free_r>
    6548:	2000      	movs	r0, #0
    654a:	6360      	str	r0, [r4, #52]	; 0x34
    654c:	e7bf      	b.n	64ce <__sflush_r+0x1a>
    654e:	2301      	movs	r3, #1
    6550:	6a21      	ldr	r1, [r4, #32]
    6552:	0028      	movs	r0, r5
    6554:	47b8      	blx	r7
    6556:	1c43      	adds	r3, r0, #1
    6558:	d1c5      	bne.n	64e6 <__sflush_r+0x32>
    655a:	682b      	ldr	r3, [r5, #0]
    655c:	2b00      	cmp	r3, #0
    655e:	d0c2      	beq.n	64e6 <__sflush_r+0x32>
    6560:	2b1d      	cmp	r3, #29
    6562:	d001      	beq.n	6568 <__sflush_r+0xb4>
    6564:	2b16      	cmp	r3, #22
    6566:	d101      	bne.n	656c <__sflush_r+0xb8>
    6568:	602e      	str	r6, [r5, #0]
    656a:	e7af      	b.n	64cc <__sflush_r+0x18>
    656c:	2340      	movs	r3, #64	; 0x40
    656e:	89a2      	ldrh	r2, [r4, #12]
    6570:	4313      	orrs	r3, r2
    6572:	81a3      	strh	r3, [r4, #12]
    6574:	e7ab      	b.n	64ce <__sflush_r+0x1a>
    6576:	2340      	movs	r3, #64	; 0x40
    6578:	430b      	orrs	r3, r1
    657a:	2001      	movs	r0, #1
    657c:	81a3      	strh	r3, [r4, #12]
    657e:	4240      	negs	r0, r0
    6580:	e7a5      	b.n	64ce <__sflush_r+0x1a>
    6582:	690f      	ldr	r7, [r1, #16]
    6584:	2f00      	cmp	r7, #0
    6586:	d0a1      	beq.n	64cc <__sflush_r+0x18>
    6588:	680b      	ldr	r3, [r1, #0]
    658a:	600f      	str	r7, [r1, #0]
    658c:	1bdb      	subs	r3, r3, r7
    658e:	9301      	str	r3, [sp, #4]
    6590:	2300      	movs	r3, #0
    6592:	0792      	lsls	r2, r2, #30
    6594:	d100      	bne.n	6598 <__sflush_r+0xe4>
    6596:	694b      	ldr	r3, [r1, #20]
    6598:	60a3      	str	r3, [r4, #8]
    659a:	9b01      	ldr	r3, [sp, #4]
    659c:	2b00      	cmp	r3, #0
    659e:	dc00      	bgt.n	65a2 <__sflush_r+0xee>
    65a0:	e794      	b.n	64cc <__sflush_r+0x18>
    65a2:	9b01      	ldr	r3, [sp, #4]
    65a4:	003a      	movs	r2, r7
    65a6:	6a21      	ldr	r1, [r4, #32]
    65a8:	0028      	movs	r0, r5
    65aa:	6aa6      	ldr	r6, [r4, #40]	; 0x28
    65ac:	47b0      	blx	r6
    65ae:	2800      	cmp	r0, #0
    65b0:	dc03      	bgt.n	65ba <__sflush_r+0x106>
    65b2:	2340      	movs	r3, #64	; 0x40
    65b4:	89a2      	ldrh	r2, [r4, #12]
    65b6:	4313      	orrs	r3, r2
    65b8:	e7df      	b.n	657a <__sflush_r+0xc6>
    65ba:	9b01      	ldr	r3, [sp, #4]
    65bc:	183f      	adds	r7, r7, r0
    65be:	1a1b      	subs	r3, r3, r0
    65c0:	9301      	str	r3, [sp, #4]
    65c2:	e7ea      	b.n	659a <__sflush_r+0xe6>
    65c4:	20400001 	.word	0x20400001

000065c8 <_fflush_r>:
    65c8:	690b      	ldr	r3, [r1, #16]
    65ca:	b570      	push	{r4, r5, r6, lr}
    65cc:	0005      	movs	r5, r0
    65ce:	000c      	movs	r4, r1
    65d0:	2b00      	cmp	r3, #0
    65d2:	d101      	bne.n	65d8 <_fflush_r+0x10>
    65d4:	2000      	movs	r0, #0
    65d6:	bd70      	pop	{r4, r5, r6, pc}
    65d8:	2800      	cmp	r0, #0
    65da:	d004      	beq.n	65e6 <_fflush_r+0x1e>
    65dc:	6983      	ldr	r3, [r0, #24]
    65de:	2b00      	cmp	r3, #0
    65e0:	d101      	bne.n	65e6 <_fflush_r+0x1e>
    65e2:	f000 f85f 	bl	66a4 <__sinit>
    65e6:	4b0b      	ldr	r3, [pc, #44]	; (6614 <_fflush_r+0x4c>)
    65e8:	429c      	cmp	r4, r3
    65ea:	d109      	bne.n	6600 <_fflush_r+0x38>
    65ec:	686c      	ldr	r4, [r5, #4]
    65ee:	220c      	movs	r2, #12
    65f0:	5ea3      	ldrsh	r3, [r4, r2]
    65f2:	2b00      	cmp	r3, #0
    65f4:	d0ee      	beq.n	65d4 <_fflush_r+0xc>
    65f6:	0021      	movs	r1, r4
    65f8:	0028      	movs	r0, r5
    65fa:	f7ff ff5b 	bl	64b4 <__sflush_r>
    65fe:	e7ea      	b.n	65d6 <_fflush_r+0xe>
    6600:	4b05      	ldr	r3, [pc, #20]	; (6618 <_fflush_r+0x50>)
    6602:	429c      	cmp	r4, r3
    6604:	d101      	bne.n	660a <_fflush_r+0x42>
    6606:	68ac      	ldr	r4, [r5, #8]
    6608:	e7f1      	b.n	65ee <_fflush_r+0x26>
    660a:	4b04      	ldr	r3, [pc, #16]	; (661c <_fflush_r+0x54>)
    660c:	429c      	cmp	r4, r3
    660e:	d1ee      	bne.n	65ee <_fflush_r+0x26>
    6610:	68ec      	ldr	r4, [r5, #12]
    6612:	e7ec      	b.n	65ee <_fflush_r+0x26>
    6614:	00006da8 	.word	0x00006da8
    6618:	00006dc8 	.word	0x00006dc8
    661c:	00006d88 	.word	0x00006d88

00006620 <_cleanup_r>:
    6620:	b510      	push	{r4, lr}
    6622:	4902      	ldr	r1, [pc, #8]	; (662c <_cleanup_r+0xc>)
    6624:	f000 f8b2 	bl	678c <_fwalk_reent>
    6628:	bd10      	pop	{r4, pc}
    662a:	46c0      	nop			; (mov r8, r8)
    662c:	000065c9 	.word	0x000065c9

00006630 <std.isra.0>:
    6630:	2300      	movs	r3, #0
    6632:	b510      	push	{r4, lr}
    6634:	0004      	movs	r4, r0
    6636:	6003      	str	r3, [r0, #0]
    6638:	6043      	str	r3, [r0, #4]
    663a:	6083      	str	r3, [r0, #8]
    663c:	8181      	strh	r1, [r0, #12]
    663e:	6643      	str	r3, [r0, #100]	; 0x64
    6640:	81c2      	strh	r2, [r0, #14]
    6642:	6103      	str	r3, [r0, #16]
    6644:	6143      	str	r3, [r0, #20]
    6646:	6183      	str	r3, [r0, #24]
    6648:	0019      	movs	r1, r3
    664a:	2208      	movs	r2, #8
    664c:	305c      	adds	r0, #92	; 0x5c
    664e:	f7ff fe74 	bl	633a <memset>
    6652:	4b05      	ldr	r3, [pc, #20]	; (6668 <std.isra.0+0x38>)
    6654:	6224      	str	r4, [r4, #32]
    6656:	6263      	str	r3, [r4, #36]	; 0x24
    6658:	4b04      	ldr	r3, [pc, #16]	; (666c <std.isra.0+0x3c>)
    665a:	62a3      	str	r3, [r4, #40]	; 0x28
    665c:	4b04      	ldr	r3, [pc, #16]	; (6670 <std.isra.0+0x40>)
    665e:	62e3      	str	r3, [r4, #44]	; 0x2c
    6660:	4b04      	ldr	r3, [pc, #16]	; (6674 <std.isra.0+0x44>)
    6662:	6323      	str	r3, [r4, #48]	; 0x30
    6664:	bd10      	pop	{r4, pc}
    6666:	46c0      	nop			; (mov r8, r8)
    6668:	000069a9 	.word	0x000069a9
    666c:	000069d1 	.word	0x000069d1
    6670:	00006a09 	.word	0x00006a09
    6674:	00006a35 	.word	0x00006a35

00006678 <__sfmoreglue>:
    6678:	b570      	push	{r4, r5, r6, lr}
    667a:	2568      	movs	r5, #104	; 0x68
    667c:	1e4a      	subs	r2, r1, #1
    667e:	4355      	muls	r5, r2
    6680:	000e      	movs	r6, r1
    6682:	0029      	movs	r1, r5
    6684:	3174      	adds	r1, #116	; 0x74
    6686:	f000 f91f 	bl	68c8 <_malloc_r>
    668a:	1e04      	subs	r4, r0, #0
    668c:	d008      	beq.n	66a0 <__sfmoreglue+0x28>
    668e:	2100      	movs	r1, #0
    6690:	002a      	movs	r2, r5
    6692:	6001      	str	r1, [r0, #0]
    6694:	6046      	str	r6, [r0, #4]
    6696:	300c      	adds	r0, #12
    6698:	60a0      	str	r0, [r4, #8]
    669a:	3268      	adds	r2, #104	; 0x68
    669c:	f7ff fe4d 	bl	633a <memset>
    66a0:	0020      	movs	r0, r4
    66a2:	bd70      	pop	{r4, r5, r6, pc}

000066a4 <__sinit>:
    66a4:	6983      	ldr	r3, [r0, #24]
    66a6:	b513      	push	{r0, r1, r4, lr}
    66a8:	0004      	movs	r4, r0
    66aa:	2b00      	cmp	r3, #0
    66ac:	d128      	bne.n	6700 <__sinit+0x5c>
    66ae:	6483      	str	r3, [r0, #72]	; 0x48
    66b0:	64c3      	str	r3, [r0, #76]	; 0x4c
    66b2:	6503      	str	r3, [r0, #80]	; 0x50
    66b4:	4b13      	ldr	r3, [pc, #76]	; (6704 <__sinit+0x60>)
    66b6:	4a14      	ldr	r2, [pc, #80]	; (6708 <__sinit+0x64>)
    66b8:	681b      	ldr	r3, [r3, #0]
    66ba:	6282      	str	r2, [r0, #40]	; 0x28
    66bc:	9301      	str	r3, [sp, #4]
    66be:	4298      	cmp	r0, r3
    66c0:	d101      	bne.n	66c6 <__sinit+0x22>
    66c2:	2301      	movs	r3, #1
    66c4:	6183      	str	r3, [r0, #24]
    66c6:	0020      	movs	r0, r4
    66c8:	f000 f820 	bl	670c <__sfp>
    66cc:	6060      	str	r0, [r4, #4]
    66ce:	0020      	movs	r0, r4
    66d0:	f000 f81c 	bl	670c <__sfp>
    66d4:	60a0      	str	r0, [r4, #8]
    66d6:	0020      	movs	r0, r4
    66d8:	f000 f818 	bl	670c <__sfp>
    66dc:	2200      	movs	r2, #0
    66de:	60e0      	str	r0, [r4, #12]
    66e0:	2104      	movs	r1, #4
    66e2:	6860      	ldr	r0, [r4, #4]
    66e4:	f7ff ffa4 	bl	6630 <std.isra.0>
    66e8:	2201      	movs	r2, #1
    66ea:	2109      	movs	r1, #9
    66ec:	68a0      	ldr	r0, [r4, #8]
    66ee:	f7ff ff9f 	bl	6630 <std.isra.0>
    66f2:	2202      	movs	r2, #2
    66f4:	2112      	movs	r1, #18
    66f6:	68e0      	ldr	r0, [r4, #12]
    66f8:	f7ff ff9a 	bl	6630 <std.isra.0>
    66fc:	2301      	movs	r3, #1
    66fe:	61a3      	str	r3, [r4, #24]
    6700:	bd13      	pop	{r0, r1, r4, pc}
    6702:	46c0      	nop			; (mov r8, r8)
    6704:	00006d84 	.word	0x00006d84
    6708:	00006621 	.word	0x00006621

0000670c <__sfp>:
    670c:	b5f8      	push	{r3, r4, r5, r6, r7, lr}
    670e:	4b1e      	ldr	r3, [pc, #120]	; (6788 <__sfp+0x7c>)
    6710:	0007      	movs	r7, r0
    6712:	681e      	ldr	r6, [r3, #0]
    6714:	69b3      	ldr	r3, [r6, #24]
    6716:	2b00      	cmp	r3, #0
    6718:	d102      	bne.n	6720 <__sfp+0x14>
    671a:	0030      	movs	r0, r6
    671c:	f7ff ffc2 	bl	66a4 <__sinit>
    6720:	3648      	adds	r6, #72	; 0x48
    6722:	68b4      	ldr	r4, [r6, #8]
    6724:	6873      	ldr	r3, [r6, #4]
    6726:	3b01      	subs	r3, #1
    6728:	d504      	bpl.n	6734 <__sfp+0x28>
    672a:	6833      	ldr	r3, [r6, #0]
    672c:	2b00      	cmp	r3, #0
    672e:	d007      	beq.n	6740 <__sfp+0x34>
    6730:	6836      	ldr	r6, [r6, #0]
    6732:	e7f6      	b.n	6722 <__sfp+0x16>
    6734:	220c      	movs	r2, #12
    6736:	5ea5      	ldrsh	r5, [r4, r2]
    6738:	2d00      	cmp	r5, #0
    673a:	d00d      	beq.n	6758 <__sfp+0x4c>
    673c:	3468      	adds	r4, #104	; 0x68
    673e:	e7f2      	b.n	6726 <__sfp+0x1a>
    6740:	2104      	movs	r1, #4
    6742:	0038      	movs	r0, r7
    6744:	f7ff ff98 	bl	6678 <__sfmoreglue>
    6748:	6030      	str	r0, [r6, #0]
    674a:	2800      	cmp	r0, #0
    674c:	d1f0      	bne.n	6730 <__sfp+0x24>
    674e:	230c      	movs	r3, #12
    6750:	0004      	movs	r4, r0
    6752:	603b      	str	r3, [r7, #0]
    6754:	0020      	movs	r0, r4
    6756:	bdf8      	pop	{r3, r4, r5, r6, r7, pc}
    6758:	2301      	movs	r3, #1
    675a:	0020      	movs	r0, r4
    675c:	425b      	negs	r3, r3
    675e:	81e3      	strh	r3, [r4, #14]
    6760:	3302      	adds	r3, #2
    6762:	81a3      	strh	r3, [r4, #12]
    6764:	6665      	str	r5, [r4, #100]	; 0x64
    6766:	6025      	str	r5, [r4, #0]
    6768:	60a5      	str	r5, [r4, #8]
    676a:	6065      	str	r5, [r4, #4]
    676c:	6125      	str	r5, [r4, #16]
    676e:	6165      	str	r5, [r4, #20]
    6770:	61a5      	str	r5, [r4, #24]
    6772:	2208      	movs	r2, #8
    6774:	0029      	movs	r1, r5
    6776:	305c      	adds	r0, #92	; 0x5c
    6778:	f7ff fddf 	bl	633a <memset>
    677c:	6365      	str	r5, [r4, #52]	; 0x34
    677e:	63a5      	str	r5, [r4, #56]	; 0x38
    6780:	64a5      	str	r5, [r4, #72]	; 0x48
    6782:	64e5      	str	r5, [r4, #76]	; 0x4c
    6784:	e7e6      	b.n	6754 <__sfp+0x48>
    6786:	46c0      	nop			; (mov r8, r8)
    6788:	00006d84 	.word	0x00006d84

0000678c <_fwalk_reent>:
    678c:	b5f7      	push	{r0, r1, r2, r4, r5, r6, r7, lr}
    678e:	0004      	movs	r4, r0
    6790:	0007      	movs	r7, r0
    6792:	2600      	movs	r6, #0
    6794:	9101      	str	r1, [sp, #4]
    6796:	3448      	adds	r4, #72	; 0x48
    6798:	2c00      	cmp	r4, #0
    679a:	d101      	bne.n	67a0 <_fwalk_reent+0x14>
    679c:	0030      	movs	r0, r6
    679e:	bdfe      	pop	{r1, r2, r3, r4, r5, r6, r7, pc}
    67a0:	6863      	ldr	r3, [r4, #4]
    67a2:	68a5      	ldr	r5, [r4, #8]
    67a4:	9300      	str	r3, [sp, #0]
    67a6:	9b00      	ldr	r3, [sp, #0]
    67a8:	3b01      	subs	r3, #1
    67aa:	9300      	str	r3, [sp, #0]
    67ac:	d501      	bpl.n	67b2 <_fwalk_reent+0x26>
    67ae:	6824      	ldr	r4, [r4, #0]
    67b0:	e7f2      	b.n	6798 <_fwalk_reent+0xc>
    67b2:	89ab      	ldrh	r3, [r5, #12]
    67b4:	2b01      	cmp	r3, #1
    67b6:	d908      	bls.n	67ca <_fwalk_reent+0x3e>
    67b8:	220e      	movs	r2, #14
    67ba:	5eab      	ldrsh	r3, [r5, r2]
    67bc:	3301      	adds	r3, #1
    67be:	d004      	beq.n	67ca <_fwalk_reent+0x3e>
    67c0:	0029      	movs	r1, r5
    67c2:	0038      	movs	r0, r7
    67c4:	9b01      	ldr	r3, [sp, #4]
    67c6:	4798      	blx	r3
    67c8:	4306      	orrs	r6, r0
    67ca:	3568      	adds	r5, #104	; 0x68
    67cc:	e7eb      	b.n	67a6 <_fwalk_reent+0x1a>
	...

000067d0 <__swhatbuf_r>:
    67d0:	b570      	push	{r4, r5, r6, lr}
    67d2:	000e      	movs	r6, r1
    67d4:	001d      	movs	r5, r3
    67d6:	230e      	movs	r3, #14
    67d8:	5ec9      	ldrsh	r1, [r1, r3]
    67da:	b090      	sub	sp, #64	; 0x40
    67dc:	0014      	movs	r4, r2
    67de:	2900      	cmp	r1, #0
    67e0:	da07      	bge.n	67f2 <__swhatbuf_r+0x22>
    67e2:	2300      	movs	r3, #0
    67e4:	602b      	str	r3, [r5, #0]
    67e6:	89b3      	ldrh	r3, [r6, #12]
    67e8:	061b      	lsls	r3, r3, #24
    67ea:	d411      	bmi.n	6810 <__swhatbuf_r+0x40>
    67ec:	2380      	movs	r3, #128	; 0x80
    67ee:	00db      	lsls	r3, r3, #3
    67f0:	e00f      	b.n	6812 <__swhatbuf_r+0x42>
    67f2:	aa01      	add	r2, sp, #4
    67f4:	f000 f94a 	bl	6a8c <_fstat_r>
    67f8:	2800      	cmp	r0, #0
    67fa:	dbf2      	blt.n	67e2 <__swhatbuf_r+0x12>
    67fc:	22f0      	movs	r2, #240	; 0xf0
    67fe:	9b02      	ldr	r3, [sp, #8]
    6800:	0212      	lsls	r2, r2, #8
    6802:	4013      	ands	r3, r2
    6804:	4a05      	ldr	r2, [pc, #20]	; (681c <__swhatbuf_r+0x4c>)
    6806:	189b      	adds	r3, r3, r2
    6808:	425a      	negs	r2, r3
    680a:	4153      	adcs	r3, r2
    680c:	602b      	str	r3, [r5, #0]
    680e:	e7ed      	b.n	67ec <__swhatbuf_r+0x1c>
    6810:	2340      	movs	r3, #64	; 0x40
    6812:	2000      	movs	r0, #0
    6814:	6023      	str	r3, [r4, #0]
    6816:	b010      	add	sp, #64	; 0x40
    6818:	bd70      	pop	{r4, r5, r6, pc}
    681a:	46c0      	nop			; (mov r8, r8)
    681c:	ffffe000 	.word	0xffffe000

00006820 <malloc>:
    6820:	b510      	push	{r4, lr}
    6822:	4b03      	ldr	r3, [pc, #12]	; (6830 <malloc+0x10>)
    6824:	0001      	movs	r1, r0
    6826:	6818      	ldr	r0, [r3, #0]
    6828:	f000 f84e 	bl	68c8 <_malloc_r>
    682c:	bd10      	pop	{r4, pc}
    682e:	46c0      	nop			; (mov r8, r8)
    6830:	20000050 	.word	0x20000050

00006834 <_free_r>:
    6834:	b570      	push	{r4, r5, r6, lr}
    6836:	0005      	movs	r5, r0
    6838:	2900      	cmp	r1, #0
    683a:	d010      	beq.n	685e <_free_r+0x2a>
    683c:	1f0c      	subs	r4, r1, #4
    683e:	6823      	ldr	r3, [r4, #0]
    6840:	2b00      	cmp	r3, #0
    6842:	da00      	bge.n	6846 <_free_r+0x12>
    6844:	18e4      	adds	r4, r4, r3
    6846:	0028      	movs	r0, r5
    6848:	f000 f946 	bl	6ad8 <__malloc_lock>
    684c:	4a1d      	ldr	r2, [pc, #116]	; (68c4 <_free_r+0x90>)
    684e:	6813      	ldr	r3, [r2, #0]
    6850:	2b00      	cmp	r3, #0
    6852:	d105      	bne.n	6860 <_free_r+0x2c>
    6854:	6063      	str	r3, [r4, #4]
    6856:	6014      	str	r4, [r2, #0]
    6858:	0028      	movs	r0, r5
    685a:	f000 f93e 	bl	6ada <__malloc_unlock>
    685e:	bd70      	pop	{r4, r5, r6, pc}
    6860:	42a3      	cmp	r3, r4
    6862:	d909      	bls.n	6878 <_free_r+0x44>
    6864:	6821      	ldr	r1, [r4, #0]
    6866:	1860      	adds	r0, r4, r1
    6868:	4283      	cmp	r3, r0
    686a:	d1f3      	bne.n	6854 <_free_r+0x20>
    686c:	6818      	ldr	r0, [r3, #0]
    686e:	685b      	ldr	r3, [r3, #4]
    6870:	1841      	adds	r1, r0, r1
    6872:	6021      	str	r1, [r4, #0]
    6874:	e7ee      	b.n	6854 <_free_r+0x20>
    6876:	0013      	movs	r3, r2
    6878:	685a      	ldr	r2, [r3, #4]
    687a:	2a00      	cmp	r2, #0
    687c:	d001      	beq.n	6882 <_free_r+0x4e>
    687e:	42a2      	cmp	r2, r4
    6880:	d9f9      	bls.n	6876 <_free_r+0x42>
    6882:	6819      	ldr	r1, [r3, #0]
    6884:	1858      	adds	r0, r3, r1
    6886:	42a0      	cmp	r0, r4
    6888:	d10b      	bne.n	68a2 <_free_r+0x6e>
    688a:	6820      	ldr	r0, [r4, #0]
    688c:	1809      	adds	r1, r1, r0
    688e:	1858      	adds	r0, r3, r1
    6890:	6019      	str	r1, [r3, #0]
    6892:	4282      	cmp	r2, r0
    6894:	d1e0      	bne.n	6858 <_free_r+0x24>
    6896:	6810      	ldr	r0, [r2, #0]
    6898:	6852      	ldr	r2, [r2, #4]
    689a:	1841      	adds	r1, r0, r1
    689c:	6019      	str	r1, [r3, #0]
    689e:	605a      	str	r2, [r3, #4]
    68a0:	e7da      	b.n	6858 <_free_r+0x24>
    68a2:	42a0      	cmp	r0, r4
    68a4:	d902      	bls.n	68ac <_free_r+0x78>
    68a6:	230c      	movs	r3, #12
    68a8:	602b      	str	r3, [r5, #0]
    68aa:	e7d5      	b.n	6858 <_free_r+0x24>
    68ac:	6821      	ldr	r1, [r4, #0]
    68ae:	1860      	adds	r0, r4, r1
    68b0:	4282      	cmp	r2, r0
    68b2:	d103      	bne.n	68bc <_free_r+0x88>
    68b4:	6810      	ldr	r0, [r2, #0]
    68b6:	6852      	ldr	r2, [r2, #4]
    68b8:	1841      	adds	r1, r0, r1
    68ba:	6021      	str	r1, [r4, #0]
    68bc:	6062      	str	r2, [r4, #4]
    68be:	605c      	str	r4, [r3, #4]
    68c0:	e7ca      	b.n	6858 <_free_r+0x24>
    68c2:	46c0      	nop			; (mov r8, r8)
    68c4:	20003d08 	.word	0x20003d08

000068c8 <_malloc_r>:
    68c8:	2303      	movs	r3, #3
    68ca:	b570      	push	{r4, r5, r6, lr}
    68cc:	1ccd      	adds	r5, r1, #3
    68ce:	439d      	bics	r5, r3
    68d0:	3508      	adds	r5, #8
    68d2:	0006      	movs	r6, r0
    68d4:	2d0c      	cmp	r5, #12
    68d6:	d21e      	bcs.n	6916 <_malloc_r+0x4e>
    68d8:	250c      	movs	r5, #12
    68da:	42a9      	cmp	r1, r5
    68dc:	d81d      	bhi.n	691a <_malloc_r+0x52>
    68de:	0030      	movs	r0, r6
    68e0:	f000 f8fa 	bl	6ad8 <__malloc_lock>
    68e4:	4a25      	ldr	r2, [pc, #148]	; (697c <_malloc_r+0xb4>)
    68e6:	6814      	ldr	r4, [r2, #0]
    68e8:	0021      	movs	r1, r4
    68ea:	2900      	cmp	r1, #0
    68ec:	d119      	bne.n	6922 <_malloc_r+0x5a>
    68ee:	4c24      	ldr	r4, [pc, #144]	; (6980 <_malloc_r+0xb8>)
    68f0:	6823      	ldr	r3, [r4, #0]
    68f2:	2b00      	cmp	r3, #0
    68f4:	d103      	bne.n	68fe <_malloc_r+0x36>
    68f6:	0030      	movs	r0, r6
    68f8:	f000 f844 	bl	6984 <_sbrk_r>
    68fc:	6020      	str	r0, [r4, #0]
    68fe:	0029      	movs	r1, r5
    6900:	0030      	movs	r0, r6
    6902:	f000 f83f 	bl	6984 <_sbrk_r>
    6906:	1c43      	adds	r3, r0, #1
    6908:	d12c      	bne.n	6964 <_malloc_r+0x9c>
    690a:	230c      	movs	r3, #12
    690c:	0030      	movs	r0, r6
    690e:	6033      	str	r3, [r6, #0]
    6910:	f000 f8e3 	bl	6ada <__malloc_unlock>
    6914:	e003      	b.n	691e <_malloc_r+0x56>
    6916:	2d00      	cmp	r5, #0
    6918:	dadf      	bge.n	68da <_malloc_r+0x12>
    691a:	230c      	movs	r3, #12
    691c:	6033      	str	r3, [r6, #0]
    691e:	2000      	movs	r0, #0
    6920:	bd70      	pop	{r4, r5, r6, pc}
    6922:	680b      	ldr	r3, [r1, #0]
    6924:	1b5b      	subs	r3, r3, r5
    6926:	d41a      	bmi.n	695e <_malloc_r+0x96>
    6928:	2b0b      	cmp	r3, #11
    692a:	d903      	bls.n	6934 <_malloc_r+0x6c>
    692c:	600b      	str	r3, [r1, #0]
    692e:	18cc      	adds	r4, r1, r3
    6930:	6025      	str	r5, [r4, #0]
    6932:	e003      	b.n	693c <_malloc_r+0x74>
    6934:	428c      	cmp	r4, r1
    6936:	d10e      	bne.n	6956 <_malloc_r+0x8e>
    6938:	6863      	ldr	r3, [r4, #4]
    693a:	6013      	str	r3, [r2, #0]
    693c:	0030      	movs	r0, r6
    693e:	f000 f8cc 	bl	6ada <__malloc_unlock>
    6942:	0020      	movs	r0, r4
    6944:	2207      	movs	r2, #7
    6946:	300b      	adds	r0, #11
    6948:	1d23      	adds	r3, r4, #4
    694a:	4390      	bics	r0, r2
    694c:	1ac3      	subs	r3, r0, r3
    694e:	d0e7      	beq.n	6920 <_malloc_r+0x58>
    6950:	425a      	negs	r2, r3
    6952:	50e2      	str	r2, [r4, r3]
    6954:	e7e4      	b.n	6920 <_malloc_r+0x58>
    6956:	684b      	ldr	r3, [r1, #4]
    6958:	6063      	str	r3, [r4, #4]
    695a:	000c      	movs	r4, r1
    695c:	e7ee      	b.n	693c <_malloc_r+0x74>
    695e:	000c      	movs	r4, r1
    6960:	6849      	ldr	r1, [r1, #4]
    6962:	e7c2      	b.n	68ea <_malloc_r+0x22>
    6964:	2303      	movs	r3, #3
    6966:	1cc4      	adds	r4, r0, #3
    6968:	439c      	bics	r4, r3
    696a:	42a0      	cmp	r0, r4
    696c:	d0e0      	beq.n	6930 <_malloc_r+0x68>
    696e:	1a21      	subs	r1, r4, r0
    6970:	0030      	movs	r0, r6
    6972:	f000 f807 	bl	6984 <_sbrk_r>
    6976:	1c43      	adds	r3, r0, #1
    6978:	d1da      	bne.n	6930 <_malloc_r+0x68>
    697a:	e7c6      	b.n	690a <_malloc_r+0x42>
    697c:	20003d08 	.word	0x20003d08
    6980:	20003d0c 	.word	0x20003d0c

00006984 <_sbrk_r>:
    6984:	2300      	movs	r3, #0
    6986:	b570      	push	{r4, r5, r6, lr}
    6988:	4c06      	ldr	r4, [pc, #24]	; (69a4 <_sbrk_r+0x20>)
    698a:	0005      	movs	r5, r0
    698c:	0008      	movs	r0, r1
    698e:	6023      	str	r3, [r4, #0]
    6990:	f7fd f87e 	bl	3a90 <_sbrk>
    6994:	1c43      	adds	r3, r0, #1
    6996:	d103      	bne.n	69a0 <_sbrk_r+0x1c>
    6998:	6823      	ldr	r3, [r4, #0]
    699a:	2b00      	cmp	r3, #0
    699c:	d000      	beq.n	69a0 <_sbrk_r+0x1c>
    699e:	602b      	str	r3, [r5, #0]
    69a0:	bd70      	pop	{r4, r5, r6, pc}
    69a2:	46c0      	nop			; (mov r8, r8)
    69a4:	20004068 	.word	0x20004068

000069a8 <__sread>:
    69a8:	b570      	push	{r4, r5, r6, lr}
    69aa:	000c      	movs	r4, r1
    69ac:	250e      	movs	r5, #14
    69ae:	5f49      	ldrsh	r1, [r1, r5]
    69b0:	f000 f894 	bl	6adc <_read_r>
    69b4:	2800      	cmp	r0, #0
    69b6:	db03      	blt.n	69c0 <__sread+0x18>
    69b8:	6d63      	ldr	r3, [r4, #84]	; 0x54
    69ba:	181b      	adds	r3, r3, r0
    69bc:	6563      	str	r3, [r4, #84]	; 0x54
    69be:	bd70      	pop	{r4, r5, r6, pc}
    69c0:	89a3      	ldrh	r3, [r4, #12]
    69c2:	4a02      	ldr	r2, [pc, #8]	; (69cc <__sread+0x24>)
    69c4:	4013      	ands	r3, r2
    69c6:	81a3      	strh	r3, [r4, #12]
    69c8:	e7f9      	b.n	69be <__sread+0x16>
    69ca:	46c0      	nop			; (mov r8, r8)
    69cc:	ffffefff 	.word	0xffffefff

000069d0 <__swrite>:
    69d0:	b5f8      	push	{r3, r4, r5, r6, r7, lr}
    69d2:	001f      	movs	r7, r3
    69d4:	898b      	ldrh	r3, [r1, #12]
    69d6:	0005      	movs	r5, r0
    69d8:	000c      	movs	r4, r1
    69da:	0016      	movs	r6, r2
    69dc:	05db      	lsls	r3, r3, #23
    69de:	d505      	bpl.n	69ec <__swrite+0x1c>
    69e0:	230e      	movs	r3, #14
    69e2:	5ec9      	ldrsh	r1, [r1, r3]
    69e4:	2200      	movs	r2, #0
    69e6:	2302      	movs	r3, #2
    69e8:	f000 f862 	bl	6ab0 <_lseek_r>
    69ec:	89a3      	ldrh	r3, [r4, #12]
    69ee:	4a05      	ldr	r2, [pc, #20]	; (6a04 <__swrite+0x34>)
    69f0:	0028      	movs	r0, r5
    69f2:	4013      	ands	r3, r2
    69f4:	81a3      	strh	r3, [r4, #12]
    69f6:	0032      	movs	r2, r6
    69f8:	230e      	movs	r3, #14
    69fa:	5ee1      	ldrsh	r1, [r4, r3]
    69fc:	003b      	movs	r3, r7
    69fe:	f000 f81f 	bl	6a40 <_write_r>
    6a02:	bdf8      	pop	{r3, r4, r5, r6, r7, pc}
    6a04:	ffffefff 	.word	0xffffefff

00006a08 <__sseek>:
    6a08:	b570      	push	{r4, r5, r6, lr}
    6a0a:	000c      	movs	r4, r1
    6a0c:	250e      	movs	r5, #14
    6a0e:	5f49      	ldrsh	r1, [r1, r5]
    6a10:	f000 f84e 	bl	6ab0 <_lseek_r>
    6a14:	89a3      	ldrh	r3, [r4, #12]
    6a16:	1c42      	adds	r2, r0, #1
    6a18:	d103      	bne.n	6a22 <__sseek+0x1a>
    6a1a:	4a05      	ldr	r2, [pc, #20]	; (6a30 <__sseek+0x28>)
    6a1c:	4013      	ands	r3, r2
    6a1e:	81a3      	strh	r3, [r4, #12]
    6a20:	bd70      	pop	{r4, r5, r6, pc}
    6a22:	2280      	movs	r2, #128	; 0x80
    6a24:	0152      	lsls	r2, r2, #5
    6a26:	4313      	orrs	r3, r2
    6a28:	81a3      	strh	r3, [r4, #12]
    6a2a:	6560      	str	r0, [r4, #84]	; 0x54
    6a2c:	e7f8      	b.n	6a20 <__sseek+0x18>
    6a2e:	46c0      	nop			; (mov r8, r8)
    6a30:	ffffefff 	.word	0xffffefff

00006a34 <__sclose>:
    6a34:	b510      	push	{r4, lr}
    6a36:	230e      	movs	r3, #14
    6a38:	5ec9      	ldrsh	r1, [r1, r3]
    6a3a:	f000 f815 	bl	6a68 <_close_r>
    6a3e:	bd10      	pop	{r4, pc}

00006a40 <_write_r>:
    6a40:	b570      	push	{r4, r5, r6, lr}
    6a42:	0005      	movs	r5, r0
    6a44:	0008      	movs	r0, r1
    6a46:	0011      	movs	r1, r2
    6a48:	2200      	movs	r2, #0
    6a4a:	4c06      	ldr	r4, [pc, #24]	; (6a64 <_write_r+0x24>)
    6a4c:	6022      	str	r2, [r4, #0]
    6a4e:	001a      	movs	r2, r3
    6a50:	f7fa fab2 	bl	fb8 <_write>
    6a54:	1c43      	adds	r3, r0, #1
    6a56:	d103      	bne.n	6a60 <_write_r+0x20>
    6a58:	6823      	ldr	r3, [r4, #0]
    6a5a:	2b00      	cmp	r3, #0
    6a5c:	d000      	beq.n	6a60 <_write_r+0x20>
    6a5e:	602b      	str	r3, [r5, #0]
    6a60:	bd70      	pop	{r4, r5, r6, pc}
    6a62:	46c0      	nop			; (mov r8, r8)
    6a64:	20004068 	.word	0x20004068

00006a68 <_close_r>:
    6a68:	2300      	movs	r3, #0
    6a6a:	b570      	push	{r4, r5, r6, lr}
    6a6c:	4c06      	ldr	r4, [pc, #24]	; (6a88 <_close_r+0x20>)
    6a6e:	0005      	movs	r5, r0
    6a70:	0008      	movs	r0, r1
    6a72:	6023      	str	r3, [r4, #0]
    6a74:	f7fd f81e 	bl	3ab4 <_close>
    6a78:	1c43      	adds	r3, r0, #1
    6a7a:	d103      	bne.n	6a84 <_close_r+0x1c>
    6a7c:	6823      	ldr	r3, [r4, #0]
    6a7e:	2b00      	cmp	r3, #0
    6a80:	d000      	beq.n	6a84 <_close_r+0x1c>
    6a82:	602b      	str	r3, [r5, #0]
    6a84:	bd70      	pop	{r4, r5, r6, pc}
    6a86:	46c0      	nop			; (mov r8, r8)
    6a88:	20004068 	.word	0x20004068

00006a8c <_fstat_r>:
    6a8c:	2300      	movs	r3, #0
    6a8e:	b570      	push	{r4, r5, r6, lr}
    6a90:	4c06      	ldr	r4, [pc, #24]	; (6aac <_fstat_r+0x20>)
    6a92:	0005      	movs	r5, r0
    6a94:	0008      	movs	r0, r1
    6a96:	0011      	movs	r1, r2
    6a98:	6023      	str	r3, [r4, #0]
    6a9a:	f7fd f80e 	bl	3aba <_fstat>
    6a9e:	1c43      	adds	r3, r0, #1
    6aa0:	d103      	bne.n	6aaa <_fstat_r+0x1e>
    6aa2:	6823      	ldr	r3, [r4, #0]
    6aa4:	2b00      	cmp	r3, #0
    6aa6:	d000      	beq.n	6aaa <_fstat_r+0x1e>
    6aa8:	602b      	str	r3, [r5, #0]
    6aaa:	bd70      	pop	{r4, r5, r6, pc}
    6aac:	20004068 	.word	0x20004068

00006ab0 <_lseek_r>:
    6ab0:	b570      	push	{r4, r5, r6, lr}
    6ab2:	0005      	movs	r5, r0
    6ab4:	0008      	movs	r0, r1
    6ab6:	0011      	movs	r1, r2
    6ab8:	2200      	movs	r2, #0
    6aba:	4c06      	ldr	r4, [pc, #24]	; (6ad4 <_lseek_r+0x24>)
    6abc:	6022      	str	r2, [r4, #0]
    6abe:	001a      	movs	r2, r3
    6ac0:	f7fd f800 	bl	3ac4 <_lseek>
    6ac4:	1c43      	adds	r3, r0, #1
    6ac6:	d103      	bne.n	6ad0 <_lseek_r+0x20>
    6ac8:	6823      	ldr	r3, [r4, #0]
    6aca:	2b00      	cmp	r3, #0
    6acc:	d000      	beq.n	6ad0 <_lseek_r+0x20>
    6ace:	602b      	str	r3, [r5, #0]
    6ad0:	bd70      	pop	{r4, r5, r6, pc}
    6ad2:	46c0      	nop			; (mov r8, r8)
    6ad4:	20004068 	.word	0x20004068

00006ad8 <__malloc_lock>:
    6ad8:	4770      	bx	lr

00006ada <__malloc_unlock>:
    6ada:	4770      	bx	lr

00006adc <_read_r>:
    6adc:	b570      	push	{r4, r5, r6, lr}
    6ade:	0005      	movs	r5, r0
    6ae0:	0008      	movs	r0, r1
    6ae2:	0011      	movs	r1, r2
    6ae4:	2200      	movs	r2, #0
    6ae6:	4c06      	ldr	r4, [pc, #24]	; (6b00 <_read_r+0x24>)
    6ae8:	6022      	str	r2, [r4, #0]
    6aea:	001a      	movs	r2, r3
    6aec:	f7fa fa42 	bl	f74 <_read>
    6af0:	1c43      	adds	r3, r0, #1
    6af2:	d103      	bne.n	6afc <_read_r+0x20>
    6af4:	6823      	ldr	r3, [r4, #0]
    6af6:	2b00      	cmp	r3, #0
    6af8:	d000      	beq.n	6afc <_read_r+0x20>
    6afa:	602b      	str	r3, [r5, #0]
    6afc:	bd70      	pop	{r4, r5, r6, pc}
    6afe:	46c0      	nop			; (mov r8, r8)
    6b00:	20004068 	.word	0x20004068
    6b04:	001e001c 	.word	0x001e001c
    6b08:	20000000 	.word	0x20000000
    6b0c:	00000000 	.word	0x00000000
    6b10:	0002001c 	.word	0x0002001c
    6b14:	20000020 	.word	0x20000020
    6b18:	00000000 	.word	0x00000000
    6b1c:	0040001c 	.word	0x0040001c
    6b20:	20003d10 	.word	0x20003d10
    6b24:	00000000 	.word	0x00000000
    6b28:	42000000 	.word	0x42000000
    6b2c:	42000400 	.word	0x42000400
    6b30:	42000800 	.word	0x42000800
    6b34:	42000c00 	.word	0x42000c00
    6b38:	42001000 	.word	0x42001000
    6b3c:	43000400 	.word	0x43000400
    6b40:	454c4449 	.word	0x454c4449
    6b44:	00000000 	.word	0x00000000
    6b48:	00002574 	.word	0x00002574
    6b4c:	00002574 	.word	0x00002574
    6b50:	00002574 	.word	0x00002574
    6b54:	000024f0 	.word	0x000024f0
    6b58:	000025b6 	.word	0x000025b6
    6b5c:	000025d0 	.word	0x000025d0
    6b60:	00002574 	.word	0x00002574
    6b64:	00002574 	.word	0x00002574
    6b68:	000024f0 	.word	0x000024f0
    6b6c:	000025b6 	.word	0x000025b6
    6b70:	20726d54 	.word	0x20726d54
    6b74:	00637653 	.word	0x00637653
    6b78:	00003044 	.word	0x00003044
    6b7c:	0000328e 	.word	0x0000328e
    6b80:	0000328e 	.word	0x0000328e
    6b84:	0000328e 	.word	0x0000328e
    6b88:	0000328e 	.word	0x0000328e
    6b8c:	0000328e 	.word	0x0000328e
    6b90:	0000328e 	.word	0x0000328e
    6b94:	0000328e 	.word	0x0000328e
    6b98:	0000328e 	.word	0x0000328e
    6b9c:	0000328e 	.word	0x0000328e
    6ba0:	0000328e 	.word	0x0000328e
    6ba4:	0000328e 	.word	0x0000328e
    6ba8:	0000328e 	.word	0x0000328e
    6bac:	0000328e 	.word	0x0000328e
    6bb0:	0000328e 	.word	0x0000328e
    6bb4:	0000328e 	.word	0x0000328e
    6bb8:	0000302c 	.word	0x0000302c
    6bbc:	0000328e 	.word	0x0000328e
    6bc0:	0000328e 	.word	0x0000328e
    6bc4:	0000328e 	.word	0x0000328e
    6bc8:	0000328e 	.word	0x0000328e
    6bcc:	0000328e 	.word	0x0000328e
    6bd0:	0000328e 	.word	0x0000328e
    6bd4:	0000328e 	.word	0x0000328e
    6bd8:	0000328e 	.word	0x0000328e
    6bdc:	0000328e 	.word	0x0000328e
    6be0:	0000328e 	.word	0x0000328e
    6be4:	0000328e 	.word	0x0000328e
    6be8:	0000328e 	.word	0x0000328e
    6bec:	0000328e 	.word	0x0000328e
    6bf0:	0000328e 	.word	0x0000328e
    6bf4:	0000328e 	.word	0x0000328e
    6bf8:	0000303c 	.word	0x0000303c
    6bfc:	0000328e 	.word	0x0000328e
    6c00:	0000328e 	.word	0x0000328e
    6c04:	0000328e 	.word	0x0000328e
    6c08:	0000328e 	.word	0x0000328e
    6c0c:	0000328e 	.word	0x0000328e
    6c10:	0000328e 	.word	0x0000328e
    6c14:	0000328e 	.word	0x0000328e
    6c18:	0000328e 	.word	0x0000328e
    6c1c:	0000328e 	.word	0x0000328e
    6c20:	0000328e 	.word	0x0000328e
    6c24:	0000328e 	.word	0x0000328e
    6c28:	0000328e 	.word	0x0000328e
    6c2c:	0000328e 	.word	0x0000328e
    6c30:	0000328e 	.word	0x0000328e
    6c34:	0000328e 	.word	0x0000328e
    6c38:	00003034 	.word	0x00003034
    6c3c:	0000304c 	.word	0x0000304c
    6c40:	00003014 	.word	0x00003014
    6c44:	00003024 	.word	0x00003024
    6c48:	0000301c 	.word	0x0000301c
    6c4c:	00000002 	.word	0x00000002
    6c50:	00000003 	.word	0x00000003
    6c54:	00000028 	.word	0x00000028
    6c58:	00000029 	.word	0x00000029
    6c5c:	00000004 	.word	0x00000004
    6c60:	00000005 	.word	0x00000005
    6c64:	00000006 	.word	0x00000006
    6c68:	00000007 	.word	0x00000007
    6c6c:	00000020 	.word	0x00000020
    6c70:	00000021 	.word	0x00000021
    6c74:	00000022 	.word	0x00000022
    6c78:	00000023 	.word	0x00000023
    6c7c:	00000024 	.word	0x00000024
    6c80:	00000025 	.word	0x00000025
    6c84:	00000026 	.word	0x00000026
    6c88:	00000027 	.word	0x00000027
    6c8c:	00000008 	.word	0x00000008
    6c90:	00000009 	.word	0x00000009
    6c94:	0000000a 	.word	0x0000000a
    6c98:	0000000b 	.word	0x0000000b
    6c9c:	0000ffff 	.word	0x0000ffff
    6ca0:	0000ffff 	.word	0x0000ffff
    6ca4:	0000ffff 	.word	0x0000ffff
    6ca8:	0000ffff 	.word	0x0000ffff
    6cac:	0000351a 	.word	0x0000351a
    6cb0:	00003516 	.word	0x00003516
    6cb4:	00003516 	.word	0x00003516
    6cb8:	0000357c 	.word	0x0000357c
    6cbc:	0000357c 	.word	0x0000357c
    6cc0:	00003530 	.word	0x00003530
    6cc4:	00003520 	.word	0x00003520
    6cc8:	00003536 	.word	0x00003536
    6ccc:	0000356a 	.word	0x0000356a
    6cd0:	00003e40 	.word	0x00003e40
    6cd4:	00003e40 	.word	0x00003e40
    6cd8:	00003dbe 	.word	0x00003dbe
    6cdc:	00003e1c 	.word	0x00003e1c
    6ce0:	00003e22 	.word	0x00003e22
    6ce4:	00003e28 	.word	0x00003e28
    6ce8:	00003e2e 	.word	0x00003e2e
    6cec:	00003e34 	.word	0x00003e34
    6cf0:	00003e3a 	.word	0x00003e3a
    6cf4:	6e69614d 	.word	0x6e69614d
    6cf8:	00000000 	.word	0x00000000
    6cfc:	54524155 	.word	0x54524155
    6d00:	00000000 	.word	0x00000000
    6d04:	00005230 	.word	0x00005230
    6d08:	00005212 	.word	0x00005212
    6d0c:	000051cc 	.word	0x000051cc
    6d10:	000050ea 	.word	0x000050ea
    6d14:	000051cc 	.word	0x000051cc
    6d18:	00005204 	.word	0x00005204
    6d1c:	000051cc 	.word	0x000051cc
    6d20:	000050ea 	.word	0x000050ea
    6d24:	00005212 	.word	0x00005212
    6d28:	00005212 	.word	0x00005212
    6d2c:	00005204 	.word	0x00005204
    6d30:	000050ea 	.word	0x000050ea
    6d34:	000050e2 	.word	0x000050e2
    6d38:	000050e2 	.word	0x000050e2
    6d3c:	000050e2 	.word	0x000050e2
    6d40:	00005448 	.word	0x00005448
    6d44:	00005890 	.word	0x00005890
    6d48:	00005750 	.word	0x00005750
    6d4c:	00005750 	.word	0x00005750
    6d50:	0000574c 	.word	0x0000574c
    6d54:	00005868 	.word	0x00005868
    6d58:	00005868 	.word	0x00005868
    6d5c:	0000585a 	.word	0x0000585a
    6d60:	0000574c 	.word	0x0000574c
    6d64:	00005868 	.word	0x00005868
    6d68:	0000585a 	.word	0x0000585a
    6d6c:	00005868 	.word	0x00005868
    6d70:	0000574c 	.word	0x0000574c
    6d74:	00005870 	.word	0x00005870
    6d78:	00005870 	.word	0x00005870
    6d7c:	00005870 	.word	0x00005870
    6d80:	00005a74 	.word	0x00005a74

00006d84 <_global_impure_ptr>:
    6d84:	20000054                                T.. 

00006d88 <__sf_fake_stderr>:
	...

00006da8 <__sf_fake_stdin>:
	...

00006dc8 <__sf_fake_stdout>:
	...

00006de8 <_init>:
    6de8:	b5f8      	push	{r3, r4, r5, r6, r7, lr}
    6dea:	46c0      	nop			; (mov r8, r8)
    6dec:	bcf8      	pop	{r3, r4, r5, r6, r7}
    6dee:	bc08      	pop	{r3}
    6df0:	469e      	mov	lr, r3
    6df2:	4770      	bx	lr

00006df4 <__init_array_start>:
    6df4:	000000dd 	.word	0x000000dd

00006df8 <_fini>:
    6df8:	b5f8      	push	{r3, r4, r5, r6, r7, lr}
    6dfa:	46c0      	nop			; (mov r8, r8)
    6dfc:	bcf8      	pop	{r3, r4, r5, r6, r7}
    6dfe:	bc08      	pop	{r3}
    6e00:	469e      	mov	lr, r3
    6e02:	4770      	bx	lr

00006e04 <__fini_array_start>:
    6e04:	000000b5 	.word	0x000000b5
