
cassetti.elf:     file format elf32-littlearm

Sections:
Idx Name          Size      VMA       LMA       File off  Algn
  0 .text         00006820  00000000  00000000  00010000  2**2
                  CONTENTS, ALLOC, LOAD, READONLY, CODE
  1 .relocate     0000008c  20000000  00006820  00020000  2**2
                  CONTENTS, ALLOC, LOAD, DATA
  2 .lpram        00000000  30000000  30000000  0002008c  2**0
                  CONTENTS
  3 .bss          00003ef8  2000008c  000068ac  0002008c  2**2
                  ALLOC
  4 .stack        00002004  20003f84  0000a7a4  0002008c  2**0
                  ALLOC
  5 .ARM.attributes 00000028  00000000  00000000  0002008c  2**0
                  CONTENTS, READONLY
  6 .comment      00000059  00000000  00000000  000200b4  2**0
                  CONTENTS, READONLY
  7 .debug_info   0002d1a8  00000000  00000000  0002010d  2**0
                  CONTENTS, READONLY, DEBUGGING
  8 .debug_abbrev 0000489d  00000000  00000000  0004d2b5  2**0
                  CONTENTS, READONLY, DEBUGGING
  9 .debug_loc    000095c7  00000000  00000000  00051b52  2**0
                  CONTENTS, READONLY, DEBUGGING
 10 .debug_aranges 00000a98  00000000  00000000  0005b119  2**0
                  CONTENTS, READONLY, DEBUGGING
 11 .debug_ranges 00000b28  00000000  00000000  0005bbb1  2**0
                  CONTENTS, READONLY, DEBUGGING
 12 .debug_macro  00020821  00000000  00000000  0005c6d9  2**0
                  CONTENTS, READONLY, DEBUGGING
 13 .debug_line   00012d59  00000000  00000000  0007cefa  2**0
                  CONTENTS, READONLY, DEBUGGING
 14 .debug_str    000a480c  00000000  00000000  0008fc53  2**0
                  CONTENTS, READONLY, DEBUGGING
 15 .debug_frame  00002160  00000000  00000000  00134460  2**2
                  CONTENTS, READONLY, DEBUGGING

Disassembly of section .text:

00000000 <_sfixed>:
       0:	20005f88 	.word	0x20005f88
       4:	000036ad 	.word	0x000036ad
       8:	000036a9 	.word	0x000036a9
       c:	000036a9 	.word	0x000036a9
	...
      2c:	00000d25 	.word	0x00000d25
	...
      38:	00000d8d 	.word	0x00000d8d
      3c:	00000dd1 	.word	0x00000dd1
      40:	000036a9 	.word	0x000036a9
      44:	000036a9 	.word	0x000036a9
      48:	000036a9 	.word	0x000036a9
      4c:	000036a9 	.word	0x000036a9
      50:	000036a9 	.word	0x000036a9
      54:	000036a9 	.word	0x000036a9
      58:	000036a9 	.word	0x000036a9
      5c:	000036a9 	.word	0x000036a9
      60:	000029a9 	.word	0x000029a9
      64:	000029b9 	.word	0x000029b9
      68:	000029c9 	.word	0x000029c9
      6c:	000029d9 	.word	0x000029d9
      70:	000029e9 	.word	0x000029e9
      74:	000029f9 	.word	0x000029f9
      78:	000036a9 	.word	0x000036a9
      7c:	000036a9 	.word	0x000036a9
      80:	000036a9 	.word	0x000036a9
      84:	000036a9 	.word	0x000036a9
      88:	000036a9 	.word	0x000036a9
      8c:	000036a9 	.word	0x000036a9
      90:	000036a9 	.word	0x000036a9
      94:	000036a9 	.word	0x000036a9
      98:	00002f55 	.word	0x00002f55
      9c:	000036a9 	.word	0x000036a9
      a0:	000036a9 	.word	0x000036a9
      a4:	000036a9 	.word	0x000036a9
      a8:	000036a9 	.word	0x000036a9
      ac:	000036a9 	.word	0x000036a9
      b0:	00000000 	.word	0x00000000

000000b4 <__do_global_dtors_aux>:
      b4:	b510      	push	{r4, lr}
      b6:	4c06      	ldr	r4, [pc, #24]	; (d0 <__do_global_dtors_aux+0x1c>)
      b8:	7823      	ldrb	r3, [r4, #0]
      ba:	2b00      	cmp	r3, #0
      bc:	d107      	bne.n	ce <__do_global_dtors_aux+0x1a>
      be:	4b05      	ldr	r3, [pc, #20]	; (d4 <__do_global_dtors_aux+0x20>)
      c0:	2b00      	cmp	r3, #0
      c2:	d002      	beq.n	ca <__do_global_dtors_aux+0x16>
      c4:	4804      	ldr	r0, [pc, #16]	; (d8 <__do_global_dtors_aux+0x24>)
      c6:	e000      	b.n	ca <__do_global_dtors_aux+0x16>
      c8:	bf00      	nop
      ca:	2301      	movs	r3, #1
      cc:	7023      	strb	r3, [r4, #0]
      ce:	bd10      	pop	{r4, pc}
      d0:	2000008c 	.word	0x2000008c
      d4:	00000000 	.word	0x00000000
      d8:	00006820 	.word	0x00006820

000000dc <frame_dummy>:
      dc:	4b08      	ldr	r3, [pc, #32]	; (100 <frame_dummy+0x24>)
      de:	b510      	push	{r4, lr}
      e0:	2b00      	cmp	r3, #0
      e2:	d003      	beq.n	ec <frame_dummy+0x10>
      e4:	4907      	ldr	r1, [pc, #28]	; (104 <frame_dummy+0x28>)
      e6:	4808      	ldr	r0, [pc, #32]	; (108 <frame_dummy+0x2c>)
      e8:	e000      	b.n	ec <frame_dummy+0x10>
      ea:	bf00      	nop
      ec:	4807      	ldr	r0, [pc, #28]	; (10c <frame_dummy+0x30>)
      ee:	6803      	ldr	r3, [r0, #0]
      f0:	2b00      	cmp	r3, #0
      f2:	d100      	bne.n	f6 <frame_dummy+0x1a>
      f4:	bd10      	pop	{r4, pc}
      f6:	4b06      	ldr	r3, [pc, #24]	; (110 <frame_dummy+0x34>)
      f8:	2b00      	cmp	r3, #0
      fa:	d0fb      	beq.n	f4 <frame_dummy+0x18>
      fc:	4798      	blx	r3
      fe:	e7f9      	b.n	f4 <frame_dummy+0x18>
     100:	00000000 	.word	0x00000000
     104:	20000090 	.word	0x20000090
     108:	00006820 	.word	0x00006820
     10c:	00006820 	.word	0x00006820
     110:	00000000 	.word	0x00000000

00000114 <_i2c_master_wait_for_sync>:
     114:	6801      	ldr	r1, [r0, #0]
     116:	2207      	movs	r2, #7
     118:	69cb      	ldr	r3, [r1, #28]
     11a:	421a      	tst	r2, r3
     11c:	d1fc      	bne.n	118 <_i2c_master_wait_for_sync+0x4>
     11e:	4770      	bx	lr

00000120 <i2c_master_init>:
     120:	b5f0      	push	{r4, r5, r6, r7, lr}
     122:	465f      	mov	r7, fp
     124:	4656      	mov	r6, sl
     126:	464d      	mov	r5, r9
     128:	4644      	mov	r4, r8
     12a:	b4f0      	push	{r4, r5, r6, r7}
     12c:	b08b      	sub	sp, #44	; 0x2c
     12e:	0007      	movs	r7, r0
     130:	000d      	movs	r5, r1
     132:	0016      	movs	r6, r2
     134:	6039      	str	r1, [r7, #0]
     136:	0008      	movs	r0, r1
     138:	4b9e      	ldr	r3, [pc, #632]	; (3b4 <i2c_master_init+0x294>)
     13a:	4798      	blx	r3
     13c:	2805      	cmp	r0, #5
     13e:	d100      	bne.n	142 <i2c_master_init+0x22>
     140:	e117      	b.n	372 <i2c_master_init+0x252>
     142:	0004      	movs	r4, r0
     144:	3412      	adds	r4, #18
     146:	499c      	ldr	r1, [pc, #624]	; (3b8 <i2c_master_init+0x298>)
     148:	69ca      	ldr	r2, [r1, #28]
     14a:	2301      	movs	r3, #1
     14c:	4083      	lsls	r3, r0
     14e:	4313      	orrs	r3, r2
     150:	61cb      	str	r3, [r1, #28]
     152:	a909      	add	r1, sp, #36	; 0x24
     154:	7b33      	ldrb	r3, [r6, #12]
     156:	700b      	strb	r3, [r1, #0]
     158:	b2e4      	uxtb	r4, r4
     15a:	0020      	movs	r0, r4
     15c:	4b97      	ldr	r3, [pc, #604]	; (3bc <i2c_master_init+0x29c>)
     15e:	4798      	blx	r3
     160:	0020      	movs	r0, r4
     162:	4b97      	ldr	r3, [pc, #604]	; (3c0 <i2c_master_init+0x2a0>)
     164:	4798      	blx	r3
     166:	7b30      	ldrb	r0, [r6, #12]
     168:	2100      	movs	r1, #0
     16a:	4b96      	ldr	r3, [pc, #600]	; (3c4 <i2c_master_init+0x2a4>)
     16c:	4798      	blx	r3
     16e:	682b      	ldr	r3, [r5, #0]
     170:	201c      	movs	r0, #28
     172:	079b      	lsls	r3, r3, #30
     174:	d500      	bpl.n	178 <i2c_master_init+0x58>
     176:	e116      	b.n	3a6 <i2c_master_init+0x286>
     178:	682b      	ldr	r3, [r5, #0]
     17a:	3817      	subs	r0, #23
     17c:	07db      	lsls	r3, r3, #31
     17e:	d500      	bpl.n	182 <i2c_master_init+0x62>
     180:	e111      	b.n	3a6 <i2c_master_init+0x286>
     182:	6838      	ldr	r0, [r7, #0]
     184:	4b8b      	ldr	r3, [pc, #556]	; (3b4 <i2c_master_init+0x294>)
     186:	4699      	mov	r9, r3
     188:	4798      	blx	r3
     18a:	0004      	movs	r4, r0
     18c:	498e      	ldr	r1, [pc, #568]	; (3c8 <i2c_master_init+0x2a8>)
     18e:	4b8f      	ldr	r3, [pc, #572]	; (3cc <i2c_master_init+0x2ac>)
     190:	4798      	blx	r3
     192:	00a4      	lsls	r4, r4, #2
     194:	4b8e      	ldr	r3, [pc, #568]	; (3d0 <i2c_master_init+0x2b0>)
     196:	50e7      	str	r7, [r4, r3]
     198:	2300      	movs	r3, #0
     19a:	763b      	strb	r3, [r7, #24]
     19c:	767b      	strb	r3, [r7, #25]
     19e:	2400      	movs	r4, #0
     1a0:	837b      	strh	r3, [r7, #26]
     1a2:	83bb      	strh	r3, [r7, #28]
     1a4:	2225      	movs	r2, #37	; 0x25
     1a6:	54bc      	strb	r4, [r7, r2]
     1a8:	623b      	str	r3, [r7, #32]
     1aa:	3314      	adds	r3, #20
     1ac:	602b      	str	r3, [r5, #0]
     1ae:	683b      	ldr	r3, [r7, #0]
     1b0:	4698      	mov	r8, r3
     1b2:	0018      	movs	r0, r3
     1b4:	47c8      	blx	r9
     1b6:	4681      	mov	r9, r0
     1b8:	2380      	movs	r3, #128	; 0x80
     1ba:	aa08      	add	r2, sp, #32
     1bc:	7013      	strb	r3, [r2, #0]
     1be:	7054      	strb	r4, [r2, #1]
     1c0:	2301      	movs	r3, #1
     1c2:	7093      	strb	r3, [r2, #2]
     1c4:	70d4      	strb	r4, [r2, #3]
     1c6:	69f0      	ldr	r0, [r6, #28]
     1c8:	6a35      	ldr	r5, [r6, #32]
     1ca:	2800      	cmp	r0, #0
     1cc:	d103      	bne.n	1d6 <i2c_master_init+0xb6>
     1ce:	2100      	movs	r1, #0
     1d0:	4640      	mov	r0, r8
     1d2:	4b80      	ldr	r3, [pc, #512]	; (3d4 <i2c_master_init+0x2b4>)
     1d4:	4798      	blx	r3
     1d6:	ab08      	add	r3, sp, #32
     1d8:	7018      	strb	r0, [r3, #0]
     1da:	2302      	movs	r3, #2
     1dc:	aa08      	add	r2, sp, #32
     1de:	7053      	strb	r3, [r2, #1]
     1e0:	0c00      	lsrs	r0, r0, #16
     1e2:	b2c0      	uxtb	r0, r0
     1e4:	0011      	movs	r1, r2
     1e6:	4b7c      	ldr	r3, [pc, #496]	; (3d8 <i2c_master_init+0x2b8>)
     1e8:	4798      	blx	r3
     1ea:	2d00      	cmp	r5, #0
     1ec:	d104      	bne.n	1f8 <i2c_master_init+0xd8>
     1ee:	2101      	movs	r1, #1
     1f0:	4640      	mov	r0, r8
     1f2:	4b78      	ldr	r3, [pc, #480]	; (3d4 <i2c_master_init+0x2b4>)
     1f4:	4798      	blx	r3
     1f6:	0005      	movs	r5, r0
     1f8:	ab08      	add	r3, sp, #32
     1fa:	701d      	strb	r5, [r3, #0]
     1fc:	2302      	movs	r3, #2
     1fe:	aa08      	add	r2, sp, #32
     200:	7053      	strb	r3, [r2, #1]
     202:	0c28      	lsrs	r0, r5, #16
     204:	b2c0      	uxtb	r0, r0
     206:	0011      	movs	r1, r2
     208:	4b73      	ldr	r3, [pc, #460]	; (3d8 <i2c_master_init+0x2b8>)
     20a:	4798      	blx	r3
     20c:	8ab3      	ldrh	r3, [r6, #20]
     20e:	80fb      	strh	r3, [r7, #6]
     210:	8af3      	ldrh	r3, [r6, #22]
     212:	813b      	strh	r3, [r7, #8]
     214:	7e32      	ldrb	r2, [r6, #24]
     216:	2380      	movs	r3, #128	; 0x80
     218:	2a00      	cmp	r2, #0
     21a:	d104      	bne.n	226 <i2c_master_init+0x106>
     21c:	4b6f      	ldr	r3, [pc, #444]	; (3dc <i2c_master_init+0x2bc>)
     21e:	789b      	ldrb	r3, [r3, #2]
     220:	079b      	lsls	r3, r3, #30
     222:	0fdb      	lsrs	r3, r3, #31
     224:	01db      	lsls	r3, r3, #7
     226:	68b1      	ldr	r1, [r6, #8]
     228:	6932      	ldr	r2, [r6, #16]
     22a:	430a      	orrs	r2, r1
     22c:	4313      	orrs	r3, r2
     22e:	2224      	movs	r2, #36	; 0x24
     230:	5cb2      	ldrb	r2, [r6, r2]
     232:	2a00      	cmp	r2, #0
     234:	d002      	beq.n	23c <i2c_master_init+0x11c>
     236:	2280      	movs	r2, #128	; 0x80
     238:	05d2      	lsls	r2, r2, #23
     23a:	4313      	orrs	r3, r2
     23c:	6ab2      	ldr	r2, [r6, #40]	; 0x28
     23e:	4313      	orrs	r3, r2
     240:	222c      	movs	r2, #44	; 0x2c
     242:	5cb2      	ldrb	r2, [r6, r2]
     244:	2a00      	cmp	r2, #0
     246:	d103      	bne.n	250 <i2c_master_init+0x130>
     248:	2280      	movs	r2, #128	; 0x80
     24a:	0492      	lsls	r2, r2, #18
     24c:	4291      	cmp	r1, r2
     24e:	d102      	bne.n	256 <i2c_master_init+0x136>
     250:	2280      	movs	r2, #128	; 0x80
     252:	0512      	lsls	r2, r2, #20
     254:	4313      	orrs	r3, r2
     256:	222d      	movs	r2, #45	; 0x2d
     258:	5cb2      	ldrb	r2, [r6, r2]
     25a:	2a00      	cmp	r2, #0
     25c:	d002      	beq.n	264 <i2c_master_init+0x144>
     25e:	2280      	movs	r2, #128	; 0x80
     260:	0412      	lsls	r2, r2, #16
     262:	4313      	orrs	r3, r2
     264:	222e      	movs	r2, #46	; 0x2e
     266:	5cb2      	ldrb	r2, [r6, r2]
     268:	2a00      	cmp	r2, #0
     26a:	d002      	beq.n	272 <i2c_master_init+0x152>
     26c:	2280      	movs	r2, #128	; 0x80
     26e:	03d2      	lsls	r2, r2, #15
     270:	4313      	orrs	r3, r2
     272:	4642      	mov	r2, r8
     274:	6812      	ldr	r2, [r2, #0]
     276:	4313      	orrs	r3, r2
     278:	4642      	mov	r2, r8
     27a:	6013      	str	r3, [r2, #0]
     27c:	2380      	movs	r3, #128	; 0x80
     27e:	005b      	lsls	r3, r3, #1
     280:	6053      	str	r3, [r2, #4]
     282:	464c      	mov	r4, r9
     284:	3412      	adds	r4, #18
     286:	b2e0      	uxtb	r0, r4
     288:	4b55      	ldr	r3, [pc, #340]	; (3e0 <i2c_master_init+0x2c0>)
     28a:	4798      	blx	r3
     28c:	0005      	movs	r5, r0
     28e:	9007      	str	r0, [sp, #28]
     290:	27fa      	movs	r7, #250	; 0xfa
     292:	00bf      	lsls	r7, r7, #2
     294:	6833      	ldr	r3, [r6, #0]
     296:	435f      	muls	r7, r3
     298:	6873      	ldr	r3, [r6, #4]
     29a:	469a      	mov	sl, r3
     29c:	4c51      	ldr	r4, [pc, #324]	; (3e4 <i2c_master_init+0x2c4>)
     29e:	47a0      	blx	r4
     2a0:	9002      	str	r0, [sp, #8]
     2a2:	9103      	str	r1, [sp, #12]
     2a4:	0078      	lsls	r0, r7, #1
     2a6:	47a0      	blx	r4
     2a8:	9000      	str	r0, [sp, #0]
     2aa:	9101      	str	r1, [sp, #4]
     2ac:	8e30      	ldrh	r0, [r6, #48]	; 0x30
     2ae:	4368      	muls	r0, r5
     2b0:	47a0      	blx	r4
     2b2:	4b4d      	ldr	r3, [pc, #308]	; (3e8 <i2c_master_init+0x2c8>)
     2b4:	469b      	mov	fp, r3
     2b6:	4a4d      	ldr	r2, [pc, #308]	; (3ec <i2c_master_init+0x2cc>)
     2b8:	4b4d      	ldr	r3, [pc, #308]	; (3f0 <i2c_master_init+0x2d0>)
     2ba:	47d8      	blx	fp
     2bc:	4d4d      	ldr	r5, [pc, #308]	; (3f4 <i2c_master_init+0x2d4>)
     2be:	2200      	movs	r2, #0
     2c0:	4b4d      	ldr	r3, [pc, #308]	; (3f8 <i2c_master_init+0x2d8>)
     2c2:	47a8      	blx	r5
     2c4:	9004      	str	r0, [sp, #16]
     2c6:	9105      	str	r1, [sp, #20]
     2c8:	0038      	movs	r0, r7
     2ca:	47a0      	blx	r4
     2cc:	0002      	movs	r2, r0
     2ce:	000b      	movs	r3, r1
     2d0:	9804      	ldr	r0, [sp, #16]
     2d2:	9905      	ldr	r1, [sp, #20]
     2d4:	47d8      	blx	fp
     2d6:	0002      	movs	r2, r0
     2d8:	000b      	movs	r3, r1
     2da:	4c48      	ldr	r4, [pc, #288]	; (3fc <i2c_master_init+0x2dc>)
     2dc:	9802      	ldr	r0, [sp, #8]
     2de:	9903      	ldr	r1, [sp, #12]
     2e0:	47a0      	blx	r4
     2e2:	9a00      	ldr	r2, [sp, #0]
     2e4:	9b01      	ldr	r3, [sp, #4]
     2e6:	47a8      	blx	r5
     2e8:	2200      	movs	r2, #0
     2ea:	4b45      	ldr	r3, [pc, #276]	; (400 <i2c_master_init+0x2e0>)
     2ec:	47a0      	blx	r4
     2ee:	9a00      	ldr	r2, [sp, #0]
     2f0:	9b01      	ldr	r3, [sp, #4]
     2f2:	4c44      	ldr	r4, [pc, #272]	; (404 <i2c_master_init+0x2e4>)
     2f4:	47a0      	blx	r4
     2f6:	4b44      	ldr	r3, [pc, #272]	; (408 <i2c_master_init+0x2e8>)
     2f8:	4798      	blx	r3
     2fa:	0004      	movs	r4, r0
     2fc:	68b2      	ldr	r2, [r6, #8]
     2fe:	2380      	movs	r3, #128	; 0x80
     300:	049b      	lsls	r3, r3, #18
     302:	429a      	cmp	r2, r3
     304:	d149      	bne.n	39a <i2c_master_init+0x27a>
     306:	21fa      	movs	r1, #250	; 0xfa
     308:	0089      	lsls	r1, r1, #2
     30a:	4657      	mov	r7, sl
     30c:	434f      	muls	r7, r1
     30e:	9802      	ldr	r0, [sp, #8]
     310:	9903      	ldr	r1, [sp, #12]
     312:	0002      	movs	r2, r0
     314:	000b      	movs	r3, r1
     316:	47a8      	blx	r5
     318:	9000      	str	r0, [sp, #0]
     31a:	9101      	str	r1, [sp, #4]
     31c:	0038      	movs	r0, r7
     31e:	4b31      	ldr	r3, [pc, #196]	; (3e4 <i2c_master_init+0x2c4>)
     320:	4798      	blx	r3
     322:	2200      	movs	r2, #0
     324:	4b39      	ldr	r3, [pc, #228]	; (40c <i2c_master_init+0x2ec>)
     326:	47d8      	blx	fp
     328:	0002      	movs	r2, r0
     32a:	000b      	movs	r3, r1
     32c:	9800      	ldr	r0, [sp, #0]
     32e:	9901      	ldr	r1, [sp, #4]
     330:	4e34      	ldr	r6, [pc, #208]	; (404 <i2c_master_init+0x2e4>)
     332:	47b0      	blx	r6
     334:	2200      	movs	r2, #0
     336:	4b32      	ldr	r3, [pc, #200]	; (400 <i2c_master_init+0x2e0>)
     338:	4e30      	ldr	r6, [pc, #192]	; (3fc <i2c_master_init+0x2dc>)
     33a:	47b0      	blx	r6
     33c:	4b32      	ldr	r3, [pc, #200]	; (408 <i2c_master_init+0x2e8>)
     33e:	4798      	blx	r3
     340:	1e06      	subs	r6, r0, #0
     342:	d006      	beq.n	352 <i2c_master_init+0x232>
     344:	0039      	movs	r1, r7
     346:	9807      	ldr	r0, [sp, #28]
     348:	4b31      	ldr	r3, [pc, #196]	; (410 <i2c_master_init+0x2f0>)
     34a:	4798      	blx	r3
     34c:	3802      	subs	r0, #2
     34e:	1b83      	subs	r3, r0, r6
     350:	e007      	b.n	362 <i2c_master_init+0x242>
     352:	0079      	lsls	r1, r7, #1
     354:	1e48      	subs	r0, r1, #1
     356:	9b07      	ldr	r3, [sp, #28]
     358:	469c      	mov	ip, r3
     35a:	4460      	add	r0, ip
     35c:	4b2c      	ldr	r3, [pc, #176]	; (410 <i2c_master_init+0x2f0>)
     35e:	4798      	blx	r3
     360:	1e43      	subs	r3, r0, #1
     362:	2cff      	cmp	r4, #255	; 0xff
     364:	d803      	bhi.n	36e <i2c_master_init+0x24e>
     366:	2bff      	cmp	r3, #255	; 0xff
     368:	d90a      	bls.n	380 <i2c_master_init+0x260>
     36a:	2040      	movs	r0, #64	; 0x40
     36c:	e01b      	b.n	3a6 <i2c_master_init+0x286>
     36e:	2040      	movs	r0, #64	; 0x40
     370:	e019      	b.n	3a6 <i2c_master_init+0x286>
     372:	4a11      	ldr	r2, [pc, #68]	; (3b8 <i2c_master_init+0x298>)
     374:	6a11      	ldr	r1, [r2, #32]
     376:	2302      	movs	r3, #2
     378:	430b      	orrs	r3, r1
     37a:	6213      	str	r3, [r2, #32]
     37c:	2418      	movs	r4, #24
     37e:	e6e8      	b.n	152 <i2c_master_init+0x32>
     380:	22ff      	movs	r2, #255	; 0xff
     382:	4014      	ands	r4, r2
     384:	0636      	lsls	r6, r6, #24
     386:	4334      	orrs	r4, r6
     388:	041b      	lsls	r3, r3, #16
     38a:	22ff      	movs	r2, #255	; 0xff
     38c:	0412      	lsls	r2, r2, #16
     38e:	4013      	ands	r3, r2
     390:	431c      	orrs	r4, r3
     392:	4643      	mov	r3, r8
     394:	60dc      	str	r4, [r3, #12]
     396:	2000      	movs	r0, #0
     398:	e005      	b.n	3a6 <i2c_master_init+0x286>
     39a:	2040      	movs	r0, #64	; 0x40
     39c:	2cff      	cmp	r4, #255	; 0xff
     39e:	d802      	bhi.n	3a6 <i2c_master_init+0x286>
     3a0:	2600      	movs	r6, #0
     3a2:	2300      	movs	r3, #0
     3a4:	e7ec      	b.n	380 <i2c_master_init+0x260>
     3a6:	b00b      	add	sp, #44	; 0x2c
     3a8:	bc3c      	pop	{r2, r3, r4, r5}
     3aa:	4690      	mov	r8, r2
     3ac:	4699      	mov	r9, r3
     3ae:	46a2      	mov	sl, r4
     3b0:	46ab      	mov	fp, r5
     3b2:	bdf0      	pop	{r4, r5, r6, r7, pc}
     3b4:	00000c05 	.word	0x00000c05
     3b8:	40000400 	.word	0x40000400
     3bc:	0000354d 	.word	0x0000354d
     3c0:	000034dd 	.word	0x000034dd
     3c4:	00000a35 	.word	0x00000a35
     3c8:	00000671 	.word	0x00000671
     3cc:	00002941 	.word	0x00002941
     3d0:	20003cf4 	.word	0x20003cf4
     3d4:	00000a81 	.word	0x00000a81
     3d8:	00003649 	.word	0x00003649
     3dc:	41002000 	.word	0x41002000
     3e0:	00003571 	.word	0x00003571
     3e4:	00005c85 	.word	0x00005c85
     3e8:	0000507d 	.word	0x0000507d
     3ec:	e826d695 	.word	0xe826d695
     3f0:	3e112e0b 	.word	0x3e112e0b
     3f4:	000043f9 	.word	0x000043f9
     3f8:	40240000 	.word	0x40240000
     3fc:	00005571 	.word	0x00005571
     400:	3ff00000 	.word	0x3ff00000
     404:	00004a51 	.word	0x00004a51
     408:	00005c19 	.word	0x00005c19
     40c:	40080000 	.word	0x40080000
     410:	000040b5 	.word	0x000040b5

00000414 <_i2c_master_address_response>:
     414:	6803      	ldr	r3, [r0, #0]
     416:	7e1a      	ldrb	r2, [r3, #24]
     418:	0792      	lsls	r2, r2, #30
     41a:	d507      	bpl.n	42c <_i2c_master_address_response+0x18>
     41c:	2202      	movs	r2, #2
     41e:	761a      	strb	r2, [r3, #24]
     420:	8b5b      	ldrh	r3, [r3, #26]
     422:	079b      	lsls	r3, r3, #30
     424:	2041      	movs	r0, #65	; 0x41
     426:	17db      	asrs	r3, r3, #31
     428:	4018      	ands	r0, r3
     42a:	e00a      	b.n	442 <_i2c_master_address_response+0x2e>
     42c:	8b5a      	ldrh	r2, [r3, #26]
     42e:	0752      	lsls	r2, r2, #29
     430:	d506      	bpl.n	440 <_i2c_master_address_response+0x2c>
     432:	685a      	ldr	r2, [r3, #4]
     434:	21c0      	movs	r1, #192	; 0xc0
     436:	0289      	lsls	r1, r1, #10
     438:	430a      	orrs	r2, r1
     43a:	605a      	str	r2, [r3, #4]
     43c:	2018      	movs	r0, #24
     43e:	e000      	b.n	442 <_i2c_master_address_response+0x2e>
     440:	2000      	movs	r0, #0
     442:	4770      	bx	lr

00000444 <_i2c_master_wait_for_bus>:
     444:	b530      	push	{r4, r5, lr}
     446:	6802      	ldr	r2, [r0, #0]
     448:	2300      	movs	r3, #0
     44a:	2401      	movs	r4, #1
     44c:	2502      	movs	r5, #2
     44e:	e004      	b.n	45a <_i2c_master_wait_for_bus+0x16>
     450:	3301      	adds	r3, #1
     452:	b29b      	uxth	r3, r3
     454:	8901      	ldrh	r1, [r0, #8]
     456:	4299      	cmp	r1, r3
     458:	d907      	bls.n	46a <_i2c_master_wait_for_bus+0x26>
     45a:	7e11      	ldrb	r1, [r2, #24]
     45c:	4221      	tst	r1, r4
     45e:	d106      	bne.n	46e <_i2c_master_wait_for_bus+0x2a>
     460:	7e11      	ldrb	r1, [r2, #24]
     462:	4229      	tst	r1, r5
     464:	d0f4      	beq.n	450 <_i2c_master_wait_for_bus+0xc>
     466:	2000      	movs	r0, #0
     468:	e002      	b.n	470 <_i2c_master_wait_for_bus+0x2c>
     46a:	2012      	movs	r0, #18
     46c:	e000      	b.n	470 <_i2c_master_wait_for_bus+0x2c>
     46e:	2000      	movs	r0, #0
     470:	bd30      	pop	{r4, r5, pc}
     472:	46c0      	nop			; (mov r8, r8)

00000474 <_i2c_master_send_hs_master_code>:
     474:	b510      	push	{r4, lr}
     476:	6804      	ldr	r4, [r0, #0]
     478:	6863      	ldr	r3, [r4, #4]
     47a:	2280      	movs	r2, #128	; 0x80
     47c:	02d2      	lsls	r2, r2, #11
     47e:	4313      	orrs	r3, r2
     480:	6063      	str	r3, [r4, #4]
     482:	6261      	str	r1, [r4, #36]	; 0x24
     484:	4b02      	ldr	r3, [pc, #8]	; (490 <_i2c_master_send_hs_master_code+0x1c>)
     486:	4798      	blx	r3
     488:	2301      	movs	r3, #1
     48a:	7623      	strb	r3, [r4, #24]
     48c:	bd10      	pop	{r4, pc}
     48e:	46c0      	nop			; (mov r8, r8)
     490:	00000445 	.word	0x00000445

00000494 <_i2c_master_write_packet>:
     494:	b5f0      	push	{r4, r5, r6, r7, lr}
     496:	465f      	mov	r7, fp
     498:	4656      	mov	r6, sl
     49a:	464d      	mov	r5, r9
     49c:	4644      	mov	r4, r8
     49e:	b4f0      	push	{r4, r5, r6, r7}
     4a0:	b083      	sub	sp, #12
     4a2:	0006      	movs	r6, r0
     4a4:	000f      	movs	r7, r1
     4a6:	6805      	ldr	r5, [r0, #0]
     4a8:	884c      	ldrh	r4, [r1, #2]
     4aa:	4b31      	ldr	r3, [pc, #196]	; (570 <_i2c_master_write_packet+0xdc>)
     4ac:	4798      	blx	r3
     4ae:	7a7b      	ldrb	r3, [r7, #9]
     4b0:	2b00      	cmp	r3, #0
     4b2:	d003      	beq.n	4bc <_i2c_master_write_packet+0x28>
     4b4:	7ab9      	ldrb	r1, [r7, #10]
     4b6:	0030      	movs	r0, r6
     4b8:	4b2e      	ldr	r3, [pc, #184]	; (574 <_i2c_master_write_packet+0xe0>)
     4ba:	4798      	blx	r3
     4bc:	686a      	ldr	r2, [r5, #4]
     4be:	4b2e      	ldr	r3, [pc, #184]	; (578 <_i2c_master_write_packet+0xe4>)
     4c0:	4013      	ands	r3, r2
     4c2:	606b      	str	r3, [r5, #4]
     4c4:	7a3b      	ldrb	r3, [r7, #8]
     4c6:	2b00      	cmp	r3, #0
     4c8:	d009      	beq.n	4de <_i2c_master_write_packet+0x4a>
     4ca:	883b      	ldrh	r3, [r7, #0]
     4cc:	005a      	lsls	r2, r3, #1
     4ce:	7a7b      	ldrb	r3, [r7, #9]
     4d0:	039b      	lsls	r3, r3, #14
     4d2:	4313      	orrs	r3, r2
     4d4:	2280      	movs	r2, #128	; 0x80
     4d6:	0212      	lsls	r2, r2, #8
     4d8:	4313      	orrs	r3, r2
     4da:	626b      	str	r3, [r5, #36]	; 0x24
     4dc:	e005      	b.n	4ea <_i2c_master_write_packet+0x56>
     4de:	883b      	ldrh	r3, [r7, #0]
     4e0:	005a      	lsls	r2, r3, #1
     4e2:	7a7b      	ldrb	r3, [r7, #9]
     4e4:	039b      	lsls	r3, r3, #14
     4e6:	4313      	orrs	r3, r2
     4e8:	626b      	str	r3, [r5, #36]	; 0x24
     4ea:	0030      	movs	r0, r6
     4ec:	4b23      	ldr	r3, [pc, #140]	; (57c <_i2c_master_write_packet+0xe8>)
     4ee:	4798      	blx	r3
     4f0:	2800      	cmp	r0, #0
     4f2:	d136      	bne.n	562 <_i2c_master_write_packet+0xce>
     4f4:	0030      	movs	r0, r6
     4f6:	4b22      	ldr	r3, [pc, #136]	; (580 <_i2c_master_write_packet+0xec>)
     4f8:	4798      	blx	r3
     4fa:	1e03      	subs	r3, r0, #0
     4fc:	9001      	str	r0, [sp, #4]
     4fe:	d130      	bne.n	562 <_i2c_master_write_packet+0xce>
     500:	46a0      	mov	r8, r4
     502:	2400      	movs	r4, #0
     504:	3320      	adds	r3, #32
     506:	4699      	mov	r9, r3
     508:	4b19      	ldr	r3, [pc, #100]	; (570 <_i2c_master_write_packet+0xdc>)
     50a:	469b      	mov	fp, r3
     50c:	4b1b      	ldr	r3, [pc, #108]	; (57c <_i2c_master_write_packet+0xe8>)
     50e:	469a      	mov	sl, r3
     510:	e011      	b.n	536 <_i2c_master_write_packet+0xa2>
     512:	8b6b      	ldrh	r3, [r5, #26]
     514:	464a      	mov	r2, r9
     516:	4213      	tst	r3, r2
     518:	d022      	beq.n	560 <_i2c_master_write_packet+0xcc>
     51a:	0030      	movs	r0, r6
     51c:	47d8      	blx	fp
     51e:	687b      	ldr	r3, [r7, #4]
     520:	5d1a      	ldrb	r2, [r3, r4]
     522:	2328      	movs	r3, #40	; 0x28
     524:	54ea      	strb	r2, [r5, r3]
     526:	0030      	movs	r0, r6
     528:	47d0      	blx	sl
     52a:	2800      	cmp	r0, #0
     52c:	d106      	bne.n	53c <_i2c_master_write_packet+0xa8>
     52e:	8b6b      	ldrh	r3, [r5, #26]
     530:	3401      	adds	r4, #1
     532:	075b      	lsls	r3, r3, #29
     534:	d404      	bmi.n	540 <_i2c_master_write_packet+0xac>
     536:	45a0      	cmp	r8, r4
     538:	d1eb      	bne.n	512 <_i2c_master_write_packet+0x7e>
     53a:	e003      	b.n	544 <_i2c_master_write_packet+0xb0>
     53c:	9001      	str	r0, [sp, #4]
     53e:	e001      	b.n	544 <_i2c_master_write_packet+0xb0>
     540:	231e      	movs	r3, #30
     542:	9301      	str	r3, [sp, #4]
     544:	7ab3      	ldrb	r3, [r6, #10]
     546:	9801      	ldr	r0, [sp, #4]
     548:	2b00      	cmp	r3, #0
     54a:	d00a      	beq.n	562 <_i2c_master_write_packet+0xce>
     54c:	0030      	movs	r0, r6
     54e:	4b08      	ldr	r3, [pc, #32]	; (570 <_i2c_master_write_packet+0xdc>)
     550:	4798      	blx	r3
     552:	686b      	ldr	r3, [r5, #4]
     554:	22c0      	movs	r2, #192	; 0xc0
     556:	0292      	lsls	r2, r2, #10
     558:	4313      	orrs	r3, r2
     55a:	606b      	str	r3, [r5, #4]
     55c:	9801      	ldr	r0, [sp, #4]
     55e:	e000      	b.n	562 <_i2c_master_write_packet+0xce>
     560:	2041      	movs	r0, #65	; 0x41
     562:	b003      	add	sp, #12
     564:	bc3c      	pop	{r2, r3, r4, r5}
     566:	4690      	mov	r8, r2
     568:	4699      	mov	r9, r3
     56a:	46a2      	mov	sl, r4
     56c:	46ab      	mov	fp, r5
     56e:	bdf0      	pop	{r4, r5, r6, r7, pc}
     570:	00000115 	.word	0x00000115
     574:	00000475 	.word	0x00000475
     578:	fffbffff 	.word	0xfffbffff
     57c:	00000445 	.word	0x00000445
     580:	00000415 	.word	0x00000415

00000584 <i2c_master_write_packet_wait>:
     584:	b510      	push	{r4, lr}
     586:	8b83      	ldrh	r3, [r0, #28]
     588:	b29b      	uxth	r3, r3
     58a:	2205      	movs	r2, #5
     58c:	2b00      	cmp	r3, #0
     58e:	d105      	bne.n	59c <i2c_master_write_packet_wait+0x18>
     590:	3301      	adds	r3, #1
     592:	7283      	strb	r3, [r0, #10]
     594:	72c3      	strb	r3, [r0, #11]
     596:	4b02      	ldr	r3, [pc, #8]	; (5a0 <i2c_master_write_packet_wait+0x1c>)
     598:	4798      	blx	r3
     59a:	0002      	movs	r2, r0
     59c:	0010      	movs	r0, r2
     59e:	bd10      	pop	{r4, pc}
     5a0:	00000495 	.word	0x00000495

000005a4 <_i2c_master_wait_for_sync>:
     5a4:	6801      	ldr	r1, [r0, #0]
     5a6:	2207      	movs	r2, #7
     5a8:	69cb      	ldr	r3, [r1, #28]
     5aa:	421a      	tst	r2, r3
     5ac:	d1fc      	bne.n	5a8 <_i2c_master_wait_for_sync+0x4>
     5ae:	4770      	bx	lr

000005b0 <_i2c_master_read>:
     5b0:	b570      	push	{r4, r5, r6, lr}
     5b2:	0004      	movs	r4, r0
     5b4:	6806      	ldr	r6, [r0, #0]
     5b6:	6832      	ldr	r2, [r6, #0]
     5b8:	8b43      	ldrh	r3, [r0, #26]
     5ba:	8b85      	ldrh	r5, [r0, #28]
     5bc:	1b5d      	subs	r5, r3, r5
     5be:	b2ad      	uxth	r5, r5
     5c0:	8b83      	ldrh	r3, [r0, #28]
     5c2:	3b01      	subs	r3, #1
     5c4:	b29b      	uxth	r3, r3
     5c6:	8383      	strh	r3, [r0, #28]
     5c8:	0113      	lsls	r3, r2, #4
     5ca:	d50c      	bpl.n	5e6 <_i2c_master_read+0x36>
     5cc:	7ac3      	ldrb	r3, [r0, #11]
     5ce:	2b00      	cmp	r3, #0
     5d0:	d015      	beq.n	5fe <_i2c_master_read+0x4e>
     5d2:	8b83      	ldrh	r3, [r0, #28]
     5d4:	b29b      	uxth	r3, r3
     5d6:	2b01      	cmp	r3, #1
     5d8:	d111      	bne.n	5fe <_i2c_master_read+0x4e>
     5da:	6873      	ldr	r3, [r6, #4]
     5dc:	2280      	movs	r2, #128	; 0x80
     5de:	02d2      	lsls	r2, r2, #11
     5e0:	4313      	orrs	r3, r2
     5e2:	6073      	str	r3, [r6, #4]
     5e4:	e00b      	b.n	5fe <_i2c_master_read+0x4e>
     5e6:	7ac3      	ldrb	r3, [r0, #11]
     5e8:	2b00      	cmp	r3, #0
     5ea:	d008      	beq.n	5fe <_i2c_master_read+0x4e>
     5ec:	8b83      	ldrh	r3, [r0, #28]
     5ee:	b29b      	uxth	r3, r3
     5f0:	2b00      	cmp	r3, #0
     5f2:	d104      	bne.n	5fe <_i2c_master_read+0x4e>
     5f4:	6873      	ldr	r3, [r6, #4]
     5f6:	2280      	movs	r2, #128	; 0x80
     5f8:	02d2      	lsls	r2, r2, #11
     5fa:	4313      	orrs	r3, r2
     5fc:	6073      	str	r3, [r6, #4]
     5fe:	8ba3      	ldrh	r3, [r4, #28]
     600:	b29b      	uxth	r3, r3
     602:	2b00      	cmp	r3, #0
     604:	d10a      	bne.n	61c <_i2c_master_read+0x6c>
     606:	7aa3      	ldrb	r3, [r4, #10]
     608:	2b00      	cmp	r3, #0
     60a:	d007      	beq.n	61c <_i2c_master_read+0x6c>
     60c:	0020      	movs	r0, r4
     60e:	4b08      	ldr	r3, [pc, #32]	; (630 <_i2c_master_read+0x80>)
     610:	4798      	blx	r3
     612:	6873      	ldr	r3, [r6, #4]
     614:	22c0      	movs	r2, #192	; 0xc0
     616:	0292      	lsls	r2, r2, #10
     618:	4313      	orrs	r3, r2
     61a:	6073      	str	r3, [r6, #4]
     61c:	0020      	movs	r0, r4
     61e:	4b04      	ldr	r3, [pc, #16]	; (630 <_i2c_master_read+0x80>)
     620:	4798      	blx	r3
     622:	6a23      	ldr	r3, [r4, #32]
     624:	195d      	adds	r5, r3, r5
     626:	2328      	movs	r3, #40	; 0x28
     628:	5cf3      	ldrb	r3, [r6, r3]
     62a:	b2db      	uxtb	r3, r3
     62c:	702b      	strb	r3, [r5, #0]
     62e:	bd70      	pop	{r4, r5, r6, pc}
     630:	000005a5 	.word	0x000005a5

00000634 <_i2c_master_write>:
     634:	b570      	push	{r4, r5, r6, lr}
     636:	0004      	movs	r4, r0
     638:	6806      	ldr	r6, [r0, #0]
     63a:	8b73      	ldrh	r3, [r6, #26]
     63c:	075b      	lsls	r3, r3, #29
     63e:	d503      	bpl.n	648 <_i2c_master_write+0x14>
     640:	221e      	movs	r2, #30
     642:	2325      	movs	r3, #37	; 0x25
     644:	54c2      	strb	r2, [r0, r3]
     646:	e00f      	b.n	668 <_i2c_master_write+0x34>
     648:	8b43      	ldrh	r3, [r0, #26]
     64a:	8b85      	ldrh	r5, [r0, #28]
     64c:	1b5d      	subs	r5, r3, r5
     64e:	b2ad      	uxth	r5, r5
     650:	8b83      	ldrh	r3, [r0, #28]
     652:	3b01      	subs	r3, #1
     654:	b29b      	uxth	r3, r3
     656:	8383      	strh	r3, [r0, #28]
     658:	4b04      	ldr	r3, [pc, #16]	; (66c <_i2c_master_write+0x38>)
     65a:	4798      	blx	r3
     65c:	6a23      	ldr	r3, [r4, #32]
     65e:	195d      	adds	r5, r3, r5
     660:	782b      	ldrb	r3, [r5, #0]
     662:	b2db      	uxtb	r3, r3
     664:	2228      	movs	r2, #40	; 0x28
     666:	54b3      	strb	r3, [r6, r2]
     668:	bd70      	pop	{r4, r5, r6, pc}
     66a:	46c0      	nop			; (mov r8, r8)
     66c:	000005a5 	.word	0x000005a5

00000670 <_i2c_master_interrupt_handler>:
     670:	b570      	push	{r4, r5, r6, lr}
     672:	0080      	lsls	r0, r0, #2
     674:	4b6f      	ldr	r3, [pc, #444]	; (834 <_i2c_master_interrupt_handler+0x1c4>)
     676:	58c4      	ldr	r4, [r0, r3]
     678:	6825      	ldr	r5, [r4, #0]
     67a:	682b      	ldr	r3, [r5, #0]
     67c:	011b      	lsls	r3, r3, #4
     67e:	0fda      	lsrs	r2, r3, #31
     680:	7e63      	ldrb	r3, [r4, #25]
     682:	7e26      	ldrb	r6, [r4, #24]
     684:	401e      	ands	r6, r3
     686:	8b63      	ldrh	r3, [r4, #26]
     688:	b29b      	uxth	r3, r3
     68a:	2b00      	cmp	r3, #0
     68c:	d135      	bne.n	6fa <_i2c_master_interrupt_handler+0x8a>
     68e:	8ba3      	ldrh	r3, [r4, #28]
     690:	b29b      	uxth	r3, r3
     692:	2b00      	cmp	r3, #0
     694:	d031      	beq.n	6fa <_i2c_master_interrupt_handler+0x8a>
     696:	7e2b      	ldrb	r3, [r5, #24]
     698:	07db      	lsls	r3, r3, #31
     69a:	d51b      	bpl.n	6d4 <_i2c_master_interrupt_handler+0x64>
     69c:	2301      	movs	r3, #1
     69e:	762b      	strb	r3, [r5, #24]
     6a0:	8b6b      	ldrh	r3, [r5, #26]
     6a2:	079b      	lsls	r3, r3, #30
     6a4:	d503      	bpl.n	6ae <_i2c_master_interrupt_handler+0x3e>
     6a6:	2241      	movs	r2, #65	; 0x41
     6a8:	2325      	movs	r3, #37	; 0x25
     6aa:	54e2      	strb	r2, [r4, r3]
     6ac:	e012      	b.n	6d4 <_i2c_master_interrupt_handler+0x64>
     6ae:	8b6b      	ldrh	r3, [r5, #26]
     6b0:	075b      	lsls	r3, r3, #29
     6b2:	d50f      	bpl.n	6d4 <_i2c_master_interrupt_handler+0x64>
     6b4:	2218      	movs	r2, #24
     6b6:	2325      	movs	r3, #37	; 0x25
     6b8:	54e2      	strb	r2, [r4, r3]
     6ba:	2300      	movs	r3, #0
     6bc:	83a3      	strh	r3, [r4, #28]
     6be:	7aa3      	ldrb	r3, [r4, #10]
     6c0:	2b00      	cmp	r3, #0
     6c2:	d007      	beq.n	6d4 <_i2c_master_interrupt_handler+0x64>
     6c4:	0020      	movs	r0, r4
     6c6:	4b5c      	ldr	r3, [pc, #368]	; (838 <_i2c_master_interrupt_handler+0x1c8>)
     6c8:	4798      	blx	r3
     6ca:	686b      	ldr	r3, [r5, #4]
     6cc:	22c0      	movs	r2, #192	; 0xc0
     6ce:	0292      	lsls	r2, r2, #10
     6d0:	4313      	orrs	r3, r2
     6d2:	606b      	str	r3, [r5, #4]
     6d4:	8ba3      	ldrh	r3, [r4, #28]
     6d6:	b29b      	uxth	r3, r3
     6d8:	8363      	strh	r3, [r4, #26]
     6da:	2325      	movs	r3, #37	; 0x25
     6dc:	5ce3      	ldrb	r3, [r4, r3]
     6de:	2b05      	cmp	r3, #5
     6e0:	d156      	bne.n	790 <_i2c_master_interrupt_handler+0x120>
     6e2:	331f      	adds	r3, #31
     6e4:	5ce3      	ldrb	r3, [r4, r3]
     6e6:	2b00      	cmp	r3, #0
     6e8:	d103      	bne.n	6f2 <_i2c_master_interrupt_handler+0x82>
     6ea:	0020      	movs	r0, r4
     6ec:	4b53      	ldr	r3, [pc, #332]	; (83c <_i2c_master_interrupt_handler+0x1cc>)
     6ee:	4798      	blx	r3
     6f0:	e04e      	b.n	790 <_i2c_master_interrupt_handler+0x120>
     6f2:	0020      	movs	r0, r4
     6f4:	4b52      	ldr	r3, [pc, #328]	; (840 <_i2c_master_interrupt_handler+0x1d0>)
     6f6:	4798      	blx	r3
     6f8:	e04a      	b.n	790 <_i2c_master_interrupt_handler+0x120>
     6fa:	8b63      	ldrh	r3, [r4, #26]
     6fc:	b29b      	uxth	r3, r3
     6fe:	2b00      	cmp	r3, #0
     700:	d026      	beq.n	750 <_i2c_master_interrupt_handler+0xe0>
     702:	8ba3      	ldrh	r3, [r4, #28]
     704:	b29b      	uxth	r3, r3
     706:	2b00      	cmp	r3, #0
     708:	d122      	bne.n	750 <_i2c_master_interrupt_handler+0xe0>
     70a:	3325      	adds	r3, #37	; 0x25
     70c:	5ce3      	ldrb	r3, [r4, r3]
     70e:	2b05      	cmp	r3, #5
     710:	d11e      	bne.n	750 <_i2c_master_interrupt_handler+0xe0>
     712:	331f      	adds	r3, #31
     714:	5ce3      	ldrb	r3, [r4, r3]
     716:	2b00      	cmp	r3, #0
     718:	d11a      	bne.n	750 <_i2c_master_interrupt_handler+0xe0>
     71a:	3303      	adds	r3, #3
     71c:	752b      	strb	r3, [r5, #20]
     71e:	2300      	movs	r3, #0
     720:	8363      	strh	r3, [r4, #26]
     722:	3325      	adds	r3, #37	; 0x25
     724:	2200      	movs	r2, #0
     726:	54e2      	strb	r2, [r4, r3]
     728:	7aa3      	ldrb	r3, [r4, #10]
     72a:	2b00      	cmp	r3, #0
     72c:	d008      	beq.n	740 <_i2c_master_interrupt_handler+0xd0>
     72e:	0020      	movs	r0, r4
     730:	4b41      	ldr	r3, [pc, #260]	; (838 <_i2c_master_interrupt_handler+0x1c8>)
     732:	4798      	blx	r3
     734:	686b      	ldr	r3, [r5, #4]
     736:	22c0      	movs	r2, #192	; 0xc0
     738:	0292      	lsls	r2, r2, #10
     73a:	4313      	orrs	r3, r2
     73c:	606b      	str	r3, [r5, #4]
     73e:	e001      	b.n	744 <_i2c_master_interrupt_handler+0xd4>
     740:	2301      	movs	r3, #1
     742:	762b      	strb	r3, [r5, #24]
     744:	07f3      	lsls	r3, r6, #31
     746:	d523      	bpl.n	790 <_i2c_master_interrupt_handler+0x120>
     748:	68e3      	ldr	r3, [r4, #12]
     74a:	0020      	movs	r0, r4
     74c:	4798      	blx	r3
     74e:	e01f      	b.n	790 <_i2c_master_interrupt_handler+0x120>
     750:	8b63      	ldrh	r3, [r4, #26]
     752:	b29b      	uxth	r3, r3
     754:	2b00      	cmp	r3, #0
     756:	d01b      	beq.n	790 <_i2c_master_interrupt_handler+0x120>
     758:	8ba3      	ldrh	r3, [r4, #28]
     75a:	b29b      	uxth	r3, r3
     75c:	2b00      	cmp	r3, #0
     75e:	d017      	beq.n	790 <_i2c_master_interrupt_handler+0x120>
     760:	8b6b      	ldrh	r3, [r5, #26]
     762:	069b      	lsls	r3, r3, #26
     764:	d409      	bmi.n	77a <_i2c_master_interrupt_handler+0x10a>
     766:	2a00      	cmp	r2, #0
     768:	d003      	beq.n	772 <_i2c_master_interrupt_handler+0x102>
     76a:	8ba3      	ldrh	r3, [r4, #28]
     76c:	b29b      	uxth	r3, r3
     76e:	2b01      	cmp	r3, #1
     770:	d003      	beq.n	77a <_i2c_master_interrupt_handler+0x10a>
     772:	2241      	movs	r2, #65	; 0x41
     774:	2325      	movs	r3, #37	; 0x25
     776:	54e2      	strb	r2, [r4, r3]
     778:	e00a      	b.n	790 <_i2c_master_interrupt_handler+0x120>
     77a:	2324      	movs	r3, #36	; 0x24
     77c:	5ce3      	ldrb	r3, [r4, r3]
     77e:	2b00      	cmp	r3, #0
     780:	d103      	bne.n	78a <_i2c_master_interrupt_handler+0x11a>
     782:	0020      	movs	r0, r4
     784:	4b2d      	ldr	r3, [pc, #180]	; (83c <_i2c_master_interrupt_handler+0x1cc>)
     786:	4798      	blx	r3
     788:	e002      	b.n	790 <_i2c_master_interrupt_handler+0x120>
     78a:	0020      	movs	r0, r4
     78c:	4b2c      	ldr	r3, [pc, #176]	; (840 <_i2c_master_interrupt_handler+0x1d0>)
     78e:	4798      	blx	r3
     790:	8b63      	ldrh	r3, [r4, #26]
     792:	b29b      	uxth	r3, r3
     794:	2b00      	cmp	r3, #0
     796:	d02a      	beq.n	7ee <_i2c_master_interrupt_handler+0x17e>
     798:	8ba3      	ldrh	r3, [r4, #28]
     79a:	b29b      	uxth	r3, r3
     79c:	2b00      	cmp	r3, #0
     79e:	d126      	bne.n	7ee <_i2c_master_interrupt_handler+0x17e>
     7a0:	3325      	adds	r3, #37	; 0x25
     7a2:	5ce3      	ldrb	r3, [r4, r3]
     7a4:	2b05      	cmp	r3, #5
     7a6:	d122      	bne.n	7ee <_i2c_master_interrupt_handler+0x17e>
     7a8:	331f      	adds	r3, #31
     7aa:	5ce3      	ldrb	r3, [r4, r3]
     7ac:	2b01      	cmp	r3, #1
     7ae:	d11e      	bne.n	7ee <_i2c_master_interrupt_handler+0x17e>
     7b0:	7e2b      	ldrb	r3, [r5, #24]
     7b2:	079b      	lsls	r3, r3, #30
     7b4:	d501      	bpl.n	7ba <_i2c_master_interrupt_handler+0x14a>
     7b6:	2302      	movs	r3, #2
     7b8:	762b      	strb	r3, [r5, #24]
     7ba:	2303      	movs	r3, #3
     7bc:	752b      	strb	r3, [r5, #20]
     7be:	2300      	movs	r3, #0
     7c0:	8363      	strh	r3, [r4, #26]
     7c2:	3325      	adds	r3, #37	; 0x25
     7c4:	2200      	movs	r2, #0
     7c6:	54e2      	strb	r2, [r4, r3]
     7c8:	07b3      	lsls	r3, r6, #30
     7ca:	d507      	bpl.n	7dc <_i2c_master_interrupt_handler+0x16c>
     7cc:	2324      	movs	r3, #36	; 0x24
     7ce:	5ce3      	ldrb	r3, [r4, r3]
     7d0:	2b01      	cmp	r3, #1
     7d2:	d103      	bne.n	7dc <_i2c_master_interrupt_handler+0x16c>
     7d4:	6923      	ldr	r3, [r4, #16]
     7d6:	0020      	movs	r0, r4
     7d8:	4798      	blx	r3
     7da:	e008      	b.n	7ee <_i2c_master_interrupt_handler+0x17e>
     7dc:	07f3      	lsls	r3, r6, #31
     7de:	d506      	bpl.n	7ee <_i2c_master_interrupt_handler+0x17e>
     7e0:	2324      	movs	r3, #36	; 0x24
     7e2:	5ce3      	ldrb	r3, [r4, r3]
     7e4:	2b00      	cmp	r3, #0
     7e6:	d102      	bne.n	7ee <_i2c_master_interrupt_handler+0x17e>
     7e8:	68e3      	ldr	r3, [r4, #12]
     7ea:	0020      	movs	r0, r4
     7ec:	4798      	blx	r3
     7ee:	2325      	movs	r3, #37	; 0x25
     7f0:	5ce3      	ldrb	r3, [r4, r3]
     7f2:	2b05      	cmp	r3, #5
     7f4:	d01c      	beq.n	830 <_i2c_master_interrupt_handler+0x1c0>
     7f6:	2325      	movs	r3, #37	; 0x25
     7f8:	5ce3      	ldrb	r3, [r4, r3]
     7fa:	2b00      	cmp	r3, #0
     7fc:	d018      	beq.n	830 <_i2c_master_interrupt_handler+0x1c0>
     7fe:	2303      	movs	r3, #3
     800:	752b      	strb	r3, [r5, #20]
     802:	2300      	movs	r3, #0
     804:	8363      	strh	r3, [r4, #26]
     806:	83a3      	strh	r3, [r4, #28]
     808:	3325      	adds	r3, #37	; 0x25
     80a:	5ce3      	ldrb	r3, [r4, r3]
     80c:	2b41      	cmp	r3, #65	; 0x41
     80e:	d00a      	beq.n	826 <_i2c_master_interrupt_handler+0x1b6>
     810:	7aa3      	ldrb	r3, [r4, #10]
     812:	2b00      	cmp	r3, #0
     814:	d007      	beq.n	826 <_i2c_master_interrupt_handler+0x1b6>
     816:	0020      	movs	r0, r4
     818:	4b07      	ldr	r3, [pc, #28]	; (838 <_i2c_master_interrupt_handler+0x1c8>)
     81a:	4798      	blx	r3
     81c:	686b      	ldr	r3, [r5, #4]
     81e:	22e0      	movs	r2, #224	; 0xe0
     820:	02d2      	lsls	r2, r2, #11
     822:	4313      	orrs	r3, r2
     824:	606b      	str	r3, [r5, #4]
     826:	0773      	lsls	r3, r6, #29
     828:	d502      	bpl.n	830 <_i2c_master_interrupt_handler+0x1c0>
     82a:	6963      	ldr	r3, [r4, #20]
     82c:	0020      	movs	r0, r4
     82e:	4798      	blx	r3
     830:	bd70      	pop	{r4, r5, r6, pc}
     832:	46c0      	nop			; (mov r8, r8)
     834:	20003cf4 	.word	0x20003cf4
     838:	000005a5 	.word	0x000005a5
     83c:	00000635 	.word	0x00000635
     840:	000005b1 	.word	0x000005b1

00000844 <_sercom_get_sync_baud_val>:
     844:	b510      	push	{r4, lr}
     846:	0849      	lsrs	r1, r1, #1
     848:	2340      	movs	r3, #64	; 0x40
     84a:	2400      	movs	r4, #0
     84c:	4281      	cmp	r1, r0
     84e:	d201      	bcs.n	854 <_sercom_get_sync_baud_val+0x10>
     850:	e00a      	b.n	868 <_sercom_get_sync_baud_val+0x24>
     852:	001c      	movs	r4, r3
     854:	1a09      	subs	r1, r1, r0
     856:	1c63      	adds	r3, r4, #1
     858:	b29b      	uxth	r3, r3
     85a:	4288      	cmp	r0, r1
     85c:	d9f9      	bls.n	852 <_sercom_get_sync_baud_val+0xe>
     85e:	2340      	movs	r3, #64	; 0x40
     860:	2cff      	cmp	r4, #255	; 0xff
     862:	d801      	bhi.n	868 <_sercom_get_sync_baud_val+0x24>
     864:	8014      	strh	r4, [r2, #0]
     866:	2300      	movs	r3, #0
     868:	0018      	movs	r0, r3
     86a:	bd10      	pop	{r4, pc}

0000086c <_sercom_get_async_baud_val>:
     86c:	b5f0      	push	{r4, r5, r6, r7, lr}
     86e:	465f      	mov	r7, fp
     870:	4656      	mov	r6, sl
     872:	464d      	mov	r5, r9
     874:	4644      	mov	r4, r8
     876:	b4f0      	push	{r4, r5, r6, r7}
     878:	b089      	sub	sp, #36	; 0x24
     87a:	000c      	movs	r4, r1
     87c:	9205      	str	r2, [sp, #20]
     87e:	aa12      	add	r2, sp, #72	; 0x48
     880:	7811      	ldrb	r1, [r2, #0]
     882:	0002      	movs	r2, r0
     884:	434a      	muls	r2, r1
     886:	2540      	movs	r5, #64	; 0x40
     888:	42a2      	cmp	r2, r4
     88a:	d900      	bls.n	88e <_sercom_get_async_baud_val+0x22>
     88c:	e0c6      	b.n	a1c <_sercom_get_async_baud_val+0x1b0>
     88e:	2b00      	cmp	r3, #0
     890:	d151      	bne.n	936 <_sercom_get_async_baud_val+0xca>
     892:	0002      	movs	r2, r0
     894:	0008      	movs	r0, r1
     896:	2100      	movs	r1, #0
     898:	4d64      	ldr	r5, [pc, #400]	; (a2c <_sercom_get_async_baud_val+0x1c0>)
     89a:	47a8      	blx	r5
     89c:	4683      	mov	fp, r0
     89e:	0026      	movs	r6, r4
     8a0:	2700      	movs	r7, #0
     8a2:	2300      	movs	r3, #0
     8a4:	2400      	movs	r4, #0
     8a6:	9300      	str	r3, [sp, #0]
     8a8:	9401      	str	r4, [sp, #4]
     8aa:	2200      	movs	r2, #0
     8ac:	2300      	movs	r3, #0
     8ae:	203f      	movs	r0, #63	; 0x3f
     8b0:	2120      	movs	r1, #32
     8b2:	468c      	mov	ip, r1
     8b4:	391f      	subs	r1, #31
     8b6:	9602      	str	r6, [sp, #8]
     8b8:	9703      	str	r7, [sp, #12]
     8ba:	2420      	movs	r4, #32
     8bc:	4264      	negs	r4, r4
     8be:	1904      	adds	r4, r0, r4
     8c0:	d403      	bmi.n	8ca <_sercom_get_async_baud_val+0x5e>
     8c2:	000d      	movs	r5, r1
     8c4:	40a5      	lsls	r5, r4
     8c6:	46a8      	mov	r8, r5
     8c8:	e004      	b.n	8d4 <_sercom_get_async_baud_val+0x68>
     8ca:	4664      	mov	r4, ip
     8cc:	1a24      	subs	r4, r4, r0
     8ce:	000d      	movs	r5, r1
     8d0:	40e5      	lsrs	r5, r4
     8d2:	46a8      	mov	r8, r5
     8d4:	000c      	movs	r4, r1
     8d6:	4084      	lsls	r4, r0
     8d8:	46a1      	mov	r9, r4
     8da:	0014      	movs	r4, r2
     8dc:	001d      	movs	r5, r3
     8de:	18a4      	adds	r4, r4, r2
     8e0:	415d      	adcs	r5, r3
     8e2:	0022      	movs	r2, r4
     8e4:	002b      	movs	r3, r5
     8e6:	4646      	mov	r6, r8
     8e8:	465f      	mov	r7, fp
     8ea:	423e      	tst	r6, r7
     8ec:	d003      	beq.n	8f6 <_sercom_get_async_baud_val+0x8a>
     8ee:	000e      	movs	r6, r1
     8f0:	4326      	orrs	r6, r4
     8f2:	0032      	movs	r2, r6
     8f4:	002b      	movs	r3, r5
     8f6:	9c02      	ldr	r4, [sp, #8]
     8f8:	9d03      	ldr	r5, [sp, #12]
     8fa:	429d      	cmp	r5, r3
     8fc:	d80f      	bhi.n	91e <_sercom_get_async_baud_val+0xb2>
     8fe:	d101      	bne.n	904 <_sercom_get_async_baud_val+0x98>
     900:	4294      	cmp	r4, r2
     902:	d80c      	bhi.n	91e <_sercom_get_async_baud_val+0xb2>
     904:	9c02      	ldr	r4, [sp, #8]
     906:	9d03      	ldr	r5, [sp, #12]
     908:	1b12      	subs	r2, r2, r4
     90a:	41ab      	sbcs	r3, r5
     90c:	464d      	mov	r5, r9
     90e:	9e00      	ldr	r6, [sp, #0]
     910:	9f01      	ldr	r7, [sp, #4]
     912:	4335      	orrs	r5, r6
     914:	003c      	movs	r4, r7
     916:	4646      	mov	r6, r8
     918:	4334      	orrs	r4, r6
     91a:	9500      	str	r5, [sp, #0]
     91c:	9401      	str	r4, [sp, #4]
     91e:	3801      	subs	r0, #1
     920:	d2cb      	bcs.n	8ba <_sercom_get_async_baud_val+0x4e>
     922:	2200      	movs	r2, #0
     924:	2301      	movs	r3, #1
     926:	9800      	ldr	r0, [sp, #0]
     928:	9901      	ldr	r1, [sp, #4]
     92a:	1a12      	subs	r2, r2, r0
     92c:	418b      	sbcs	r3, r1
     92e:	0c12      	lsrs	r2, r2, #16
     930:	041b      	lsls	r3, r3, #16
     932:	431a      	orrs	r2, r3
     934:	e06f      	b.n	a16 <_sercom_get_async_baud_val+0x1aa>
     936:	2200      	movs	r2, #0
     938:	2b01      	cmp	r3, #1
     93a:	d16c      	bne.n	a16 <_sercom_get_async_baud_val+0x1aa>
     93c:	0f63      	lsrs	r3, r4, #29
     93e:	9304      	str	r3, [sp, #16]
     940:	00e3      	lsls	r3, r4, #3
     942:	4698      	mov	r8, r3
     944:	000a      	movs	r2, r1
     946:	2300      	movs	r3, #0
     948:	2100      	movs	r1, #0
     94a:	4c38      	ldr	r4, [pc, #224]	; (a2c <_sercom_get_async_baud_val+0x1c0>)
     94c:	47a0      	blx	r4
     94e:	0004      	movs	r4, r0
     950:	000d      	movs	r5, r1
     952:	2300      	movs	r3, #0
     954:	469c      	mov	ip, r3
     956:	9306      	str	r3, [sp, #24]
     958:	3320      	adds	r3, #32
     95a:	469b      	mov	fp, r3
     95c:	2601      	movs	r6, #1
     95e:	4663      	mov	r3, ip
     960:	9307      	str	r3, [sp, #28]
     962:	2300      	movs	r3, #0
     964:	9302      	str	r3, [sp, #8]
     966:	2200      	movs	r2, #0
     968:	2300      	movs	r3, #0
     96a:	213f      	movs	r1, #63	; 0x3f
     96c:	9400      	str	r4, [sp, #0]
     96e:	9501      	str	r5, [sp, #4]
     970:	000f      	movs	r7, r1
     972:	2120      	movs	r1, #32
     974:	4249      	negs	r1, r1
     976:	1879      	adds	r1, r7, r1
     978:	d403      	bmi.n	982 <_sercom_get_async_baud_val+0x116>
     97a:	0030      	movs	r0, r6
     97c:	4088      	lsls	r0, r1
     97e:	4684      	mov	ip, r0
     980:	e004      	b.n	98c <_sercom_get_async_baud_val+0x120>
     982:	4659      	mov	r1, fp
     984:	1bc9      	subs	r1, r1, r7
     986:	0030      	movs	r0, r6
     988:	40c8      	lsrs	r0, r1
     98a:	4684      	mov	ip, r0
     98c:	0031      	movs	r1, r6
     98e:	40b9      	lsls	r1, r7
     990:	4689      	mov	r9, r1
     992:	0010      	movs	r0, r2
     994:	0019      	movs	r1, r3
     996:	1880      	adds	r0, r0, r2
     998:	4159      	adcs	r1, r3
     99a:	0002      	movs	r2, r0
     99c:	000b      	movs	r3, r1
     99e:	4644      	mov	r4, r8
     9a0:	464d      	mov	r5, r9
     9a2:	402c      	ands	r4, r5
     9a4:	46a2      	mov	sl, r4
     9a6:	4664      	mov	r4, ip
     9a8:	9d04      	ldr	r5, [sp, #16]
     9aa:	402c      	ands	r4, r5
     9ac:	46a4      	mov	ip, r4
     9ae:	4654      	mov	r4, sl
     9b0:	4665      	mov	r5, ip
     9b2:	432c      	orrs	r4, r5
     9b4:	d003      	beq.n	9be <_sercom_get_async_baud_val+0x152>
     9b6:	0034      	movs	r4, r6
     9b8:	4304      	orrs	r4, r0
     9ba:	0022      	movs	r2, r4
     9bc:	000b      	movs	r3, r1
     9be:	9800      	ldr	r0, [sp, #0]
     9c0:	9901      	ldr	r1, [sp, #4]
     9c2:	4299      	cmp	r1, r3
     9c4:	d80a      	bhi.n	9dc <_sercom_get_async_baud_val+0x170>
     9c6:	d101      	bne.n	9cc <_sercom_get_async_baud_val+0x160>
     9c8:	4290      	cmp	r0, r2
     9ca:	d807      	bhi.n	9dc <_sercom_get_async_baud_val+0x170>
     9cc:	9800      	ldr	r0, [sp, #0]
     9ce:	9901      	ldr	r1, [sp, #4]
     9d0:	1a12      	subs	r2, r2, r0
     9d2:	418b      	sbcs	r3, r1
     9d4:	9902      	ldr	r1, [sp, #8]
     9d6:	4648      	mov	r0, r9
     9d8:	4301      	orrs	r1, r0
     9da:	9102      	str	r1, [sp, #8]
     9dc:	3f01      	subs	r7, #1
     9de:	d2c8      	bcs.n	972 <_sercom_get_async_baud_val+0x106>
     9e0:	9c00      	ldr	r4, [sp, #0]
     9e2:	9d01      	ldr	r5, [sp, #4]
     9e4:	9902      	ldr	r1, [sp, #8]
     9e6:	9a07      	ldr	r2, [sp, #28]
     9e8:	1a8b      	subs	r3, r1, r2
     9ea:	08db      	lsrs	r3, r3, #3
     9ec:	4910      	ldr	r1, [pc, #64]	; (a30 <_sercom_get_async_baud_val+0x1c4>)
     9ee:	428b      	cmp	r3, r1
     9f0:	d90b      	bls.n	a0a <_sercom_get_async_baud_val+0x19e>
     9f2:	9b06      	ldr	r3, [sp, #24]
     9f4:	3301      	adds	r3, #1
     9f6:	b2db      	uxtb	r3, r3
     9f8:	0019      	movs	r1, r3
     9fa:	9306      	str	r3, [sp, #24]
     9fc:	0013      	movs	r3, r2
     9fe:	3301      	adds	r3, #1
     a00:	9307      	str	r3, [sp, #28]
     a02:	2908      	cmp	r1, #8
     a04:	d1ad      	bne.n	962 <_sercom_get_async_baud_val+0xf6>
     a06:	2540      	movs	r5, #64	; 0x40
     a08:	e008      	b.n	a1c <_sercom_get_async_baud_val+0x1b0>
     a0a:	2540      	movs	r5, #64	; 0x40
     a0c:	9a06      	ldr	r2, [sp, #24]
     a0e:	2a08      	cmp	r2, #8
     a10:	d004      	beq.n	a1c <_sercom_get_async_baud_val+0x1b0>
     a12:	0352      	lsls	r2, r2, #13
     a14:	431a      	orrs	r2, r3
     a16:	9b05      	ldr	r3, [sp, #20]
     a18:	801a      	strh	r2, [r3, #0]
     a1a:	2500      	movs	r5, #0
     a1c:	0028      	movs	r0, r5
     a1e:	b009      	add	sp, #36	; 0x24
     a20:	bc3c      	pop	{r2, r3, r4, r5}
     a22:	4690      	mov	r8, r2
     a24:	4699      	mov	r9, r3
     a26:	46a2      	mov	sl, r4
     a28:	46ab      	mov	fp, r5
     a2a:	bdf0      	pop	{r4, r5, r6, r7, pc}
     a2c:	000043a1 	.word	0x000043a1
     a30:	00001fff 	.word	0x00001fff

00000a34 <sercom_set_gclk_generator>:
     a34:	b510      	push	{r4, lr}
     a36:	b082      	sub	sp, #8
     a38:	0004      	movs	r4, r0
     a3a:	4b0e      	ldr	r3, [pc, #56]	; (a74 <sercom_set_gclk_generator+0x40>)
     a3c:	781b      	ldrb	r3, [r3, #0]
     a3e:	2b00      	cmp	r3, #0
     a40:	d001      	beq.n	a46 <sercom_set_gclk_generator+0x12>
     a42:	2900      	cmp	r1, #0
     a44:	d00d      	beq.n	a62 <sercom_set_gclk_generator+0x2e>
     a46:	a901      	add	r1, sp, #4
     a48:	700c      	strb	r4, [r1, #0]
     a4a:	2011      	movs	r0, #17
     a4c:	4b0a      	ldr	r3, [pc, #40]	; (a78 <sercom_set_gclk_generator+0x44>)
     a4e:	4798      	blx	r3
     a50:	2011      	movs	r0, #17
     a52:	4b0a      	ldr	r3, [pc, #40]	; (a7c <sercom_set_gclk_generator+0x48>)
     a54:	4798      	blx	r3
     a56:	4b07      	ldr	r3, [pc, #28]	; (a74 <sercom_set_gclk_generator+0x40>)
     a58:	705c      	strb	r4, [r3, #1]
     a5a:	2201      	movs	r2, #1
     a5c:	701a      	strb	r2, [r3, #0]
     a5e:	2000      	movs	r0, #0
     a60:	e006      	b.n	a70 <sercom_set_gclk_generator+0x3c>
     a62:	4b04      	ldr	r3, [pc, #16]	; (a74 <sercom_set_gclk_generator+0x40>)
     a64:	785b      	ldrb	r3, [r3, #1]
     a66:	4283      	cmp	r3, r0
     a68:	d001      	beq.n	a6e <sercom_set_gclk_generator+0x3a>
     a6a:	201d      	movs	r0, #29
     a6c:	e000      	b.n	a70 <sercom_set_gclk_generator+0x3c>
     a6e:	2000      	movs	r0, #0
     a70:	b002      	add	sp, #8
     a72:	bd10      	pop	{r4, pc}
     a74:	200000a8 	.word	0x200000a8
     a78:	0000354d 	.word	0x0000354d
     a7c:	000034dd 	.word	0x000034dd

00000a80 <_sercom_get_default_pad>:
     a80:	4b44      	ldr	r3, [pc, #272]	; (b94 <_sercom_get_default_pad+0x114>)
     a82:	4298      	cmp	r0, r3
     a84:	d034      	beq.n	af0 <_sercom_get_default_pad+0x70>
     a86:	d807      	bhi.n	a98 <_sercom_get_default_pad+0x18>
     a88:	2384      	movs	r3, #132	; 0x84
     a8a:	05db      	lsls	r3, r3, #23
     a8c:	4298      	cmp	r0, r3
     a8e:	d00d      	beq.n	aac <_sercom_get_default_pad+0x2c>
     a90:	4b41      	ldr	r3, [pc, #260]	; (b98 <_sercom_get_default_pad+0x118>)
     a92:	4298      	cmp	r0, r3
     a94:	d01b      	beq.n	ace <_sercom_get_default_pad+0x4e>
     a96:	e06f      	b.n	b78 <_sercom_get_default_pad+0xf8>
     a98:	4b40      	ldr	r3, [pc, #256]	; (b9c <_sercom_get_default_pad+0x11c>)
     a9a:	4298      	cmp	r0, r3
     a9c:	d04a      	beq.n	b34 <_sercom_get_default_pad+0xb4>
     a9e:	4b40      	ldr	r3, [pc, #256]	; (ba0 <_sercom_get_default_pad+0x120>)
     aa0:	4298      	cmp	r0, r3
     aa2:	d058      	beq.n	b56 <_sercom_get_default_pad+0xd6>
     aa4:	4b3f      	ldr	r3, [pc, #252]	; (ba4 <_sercom_get_default_pad+0x124>)
     aa6:	4298      	cmp	r0, r3
     aa8:	d166      	bne.n	b78 <_sercom_get_default_pad+0xf8>
     aaa:	e032      	b.n	b12 <_sercom_get_default_pad+0x92>
     aac:	2901      	cmp	r1, #1
     aae:	d006      	beq.n	abe <_sercom_get_default_pad+0x3e>
     ab0:	2900      	cmp	r1, #0
     ab2:	d063      	beq.n	b7c <_sercom_get_default_pad+0xfc>
     ab4:	2902      	cmp	r1, #2
     ab6:	d006      	beq.n	ac6 <_sercom_get_default_pad+0x46>
     ab8:	2903      	cmp	r1, #3
     aba:	d006      	beq.n	aca <_sercom_get_default_pad+0x4a>
     abc:	e001      	b.n	ac2 <_sercom_get_default_pad+0x42>
     abe:	483a      	ldr	r0, [pc, #232]	; (ba8 <_sercom_get_default_pad+0x128>)
     ac0:	e067      	b.n	b92 <_sercom_get_default_pad+0x112>
     ac2:	2000      	movs	r0, #0
     ac4:	e065      	b.n	b92 <_sercom_get_default_pad+0x112>
     ac6:	4839      	ldr	r0, [pc, #228]	; (bac <_sercom_get_default_pad+0x12c>)
     ac8:	e063      	b.n	b92 <_sercom_get_default_pad+0x112>
     aca:	4839      	ldr	r0, [pc, #228]	; (bb0 <_sercom_get_default_pad+0x130>)
     acc:	e061      	b.n	b92 <_sercom_get_default_pad+0x112>
     ace:	2901      	cmp	r1, #1
     ad0:	d006      	beq.n	ae0 <_sercom_get_default_pad+0x60>
     ad2:	2900      	cmp	r1, #0
     ad4:	d054      	beq.n	b80 <_sercom_get_default_pad+0x100>
     ad6:	2902      	cmp	r1, #2
     ad8:	d006      	beq.n	ae8 <_sercom_get_default_pad+0x68>
     ada:	2903      	cmp	r1, #3
     adc:	d006      	beq.n	aec <_sercom_get_default_pad+0x6c>
     ade:	e001      	b.n	ae4 <_sercom_get_default_pad+0x64>
     ae0:	4834      	ldr	r0, [pc, #208]	; (bb4 <_sercom_get_default_pad+0x134>)
     ae2:	e056      	b.n	b92 <_sercom_get_default_pad+0x112>
     ae4:	2000      	movs	r0, #0
     ae6:	e054      	b.n	b92 <_sercom_get_default_pad+0x112>
     ae8:	4833      	ldr	r0, [pc, #204]	; (bb8 <_sercom_get_default_pad+0x138>)
     aea:	e052      	b.n	b92 <_sercom_get_default_pad+0x112>
     aec:	4833      	ldr	r0, [pc, #204]	; (bbc <_sercom_get_default_pad+0x13c>)
     aee:	e050      	b.n	b92 <_sercom_get_default_pad+0x112>
     af0:	2901      	cmp	r1, #1
     af2:	d006      	beq.n	b02 <_sercom_get_default_pad+0x82>
     af4:	2900      	cmp	r1, #0
     af6:	d045      	beq.n	b84 <_sercom_get_default_pad+0x104>
     af8:	2902      	cmp	r1, #2
     afa:	d006      	beq.n	b0a <_sercom_get_default_pad+0x8a>
     afc:	2903      	cmp	r1, #3
     afe:	d006      	beq.n	b0e <_sercom_get_default_pad+0x8e>
     b00:	e001      	b.n	b06 <_sercom_get_default_pad+0x86>
     b02:	482f      	ldr	r0, [pc, #188]	; (bc0 <_sercom_get_default_pad+0x140>)
     b04:	e045      	b.n	b92 <_sercom_get_default_pad+0x112>
     b06:	2000      	movs	r0, #0
     b08:	e043      	b.n	b92 <_sercom_get_default_pad+0x112>
     b0a:	482e      	ldr	r0, [pc, #184]	; (bc4 <_sercom_get_default_pad+0x144>)
     b0c:	e041      	b.n	b92 <_sercom_get_default_pad+0x112>
     b0e:	482e      	ldr	r0, [pc, #184]	; (bc8 <_sercom_get_default_pad+0x148>)
     b10:	e03f      	b.n	b92 <_sercom_get_default_pad+0x112>
     b12:	2901      	cmp	r1, #1
     b14:	d006      	beq.n	b24 <_sercom_get_default_pad+0xa4>
     b16:	2900      	cmp	r1, #0
     b18:	d036      	beq.n	b88 <_sercom_get_default_pad+0x108>
     b1a:	2902      	cmp	r1, #2
     b1c:	d006      	beq.n	b2c <_sercom_get_default_pad+0xac>
     b1e:	2903      	cmp	r1, #3
     b20:	d006      	beq.n	b30 <_sercom_get_default_pad+0xb0>
     b22:	e001      	b.n	b28 <_sercom_get_default_pad+0xa8>
     b24:	4829      	ldr	r0, [pc, #164]	; (bcc <_sercom_get_default_pad+0x14c>)
     b26:	e034      	b.n	b92 <_sercom_get_default_pad+0x112>
     b28:	2000      	movs	r0, #0
     b2a:	e032      	b.n	b92 <_sercom_get_default_pad+0x112>
     b2c:	4828      	ldr	r0, [pc, #160]	; (bd0 <_sercom_get_default_pad+0x150>)
     b2e:	e030      	b.n	b92 <_sercom_get_default_pad+0x112>
     b30:	4828      	ldr	r0, [pc, #160]	; (bd4 <_sercom_get_default_pad+0x154>)
     b32:	e02e      	b.n	b92 <_sercom_get_default_pad+0x112>
     b34:	2901      	cmp	r1, #1
     b36:	d006      	beq.n	b46 <_sercom_get_default_pad+0xc6>
     b38:	2900      	cmp	r1, #0
     b3a:	d027      	beq.n	b8c <_sercom_get_default_pad+0x10c>
     b3c:	2902      	cmp	r1, #2
     b3e:	d006      	beq.n	b4e <_sercom_get_default_pad+0xce>
     b40:	2903      	cmp	r1, #3
     b42:	d006      	beq.n	b52 <_sercom_get_default_pad+0xd2>
     b44:	e001      	b.n	b4a <_sercom_get_default_pad+0xca>
     b46:	4824      	ldr	r0, [pc, #144]	; (bd8 <_sercom_get_default_pad+0x158>)
     b48:	e023      	b.n	b92 <_sercom_get_default_pad+0x112>
     b4a:	2000      	movs	r0, #0
     b4c:	e021      	b.n	b92 <_sercom_get_default_pad+0x112>
     b4e:	4823      	ldr	r0, [pc, #140]	; (bdc <_sercom_get_default_pad+0x15c>)
     b50:	e01f      	b.n	b92 <_sercom_get_default_pad+0x112>
     b52:	4823      	ldr	r0, [pc, #140]	; (be0 <_sercom_get_default_pad+0x160>)
     b54:	e01d      	b.n	b92 <_sercom_get_default_pad+0x112>
     b56:	2901      	cmp	r1, #1
     b58:	d006      	beq.n	b68 <_sercom_get_default_pad+0xe8>
     b5a:	2900      	cmp	r1, #0
     b5c:	d018      	beq.n	b90 <_sercom_get_default_pad+0x110>
     b5e:	2902      	cmp	r1, #2
     b60:	d006      	beq.n	b70 <_sercom_get_default_pad+0xf0>
     b62:	2903      	cmp	r1, #3
     b64:	d006      	beq.n	b74 <_sercom_get_default_pad+0xf4>
     b66:	e001      	b.n	b6c <_sercom_get_default_pad+0xec>
     b68:	481e      	ldr	r0, [pc, #120]	; (be4 <_sercom_get_default_pad+0x164>)
     b6a:	e012      	b.n	b92 <_sercom_get_default_pad+0x112>
     b6c:	2000      	movs	r0, #0
     b6e:	e010      	b.n	b92 <_sercom_get_default_pad+0x112>
     b70:	481d      	ldr	r0, [pc, #116]	; (be8 <_sercom_get_default_pad+0x168>)
     b72:	e00e      	b.n	b92 <_sercom_get_default_pad+0x112>
     b74:	481d      	ldr	r0, [pc, #116]	; (bec <_sercom_get_default_pad+0x16c>)
     b76:	e00c      	b.n	b92 <_sercom_get_default_pad+0x112>
     b78:	2000      	movs	r0, #0
     b7a:	e00a      	b.n	b92 <_sercom_get_default_pad+0x112>
     b7c:	481c      	ldr	r0, [pc, #112]	; (bf0 <_sercom_get_default_pad+0x170>)
     b7e:	e008      	b.n	b92 <_sercom_get_default_pad+0x112>
     b80:	2003      	movs	r0, #3
     b82:	e006      	b.n	b92 <_sercom_get_default_pad+0x112>
     b84:	481b      	ldr	r0, [pc, #108]	; (bf4 <_sercom_get_default_pad+0x174>)
     b86:	e004      	b.n	b92 <_sercom_get_default_pad+0x112>
     b88:	481b      	ldr	r0, [pc, #108]	; (bf8 <_sercom_get_default_pad+0x178>)
     b8a:	e002      	b.n	b92 <_sercom_get_default_pad+0x112>
     b8c:	481b      	ldr	r0, [pc, #108]	; (bfc <_sercom_get_default_pad+0x17c>)
     b8e:	e000      	b.n	b92 <_sercom_get_default_pad+0x112>
     b90:	481b      	ldr	r0, [pc, #108]	; (c00 <_sercom_get_default_pad+0x180>)
     b92:	4770      	bx	lr
     b94:	42000800 	.word	0x42000800
     b98:	42000400 	.word	0x42000400
     b9c:	42001000 	.word	0x42001000
     ba0:	43000400 	.word	0x43000400
     ba4:	42000c00 	.word	0x42000c00
     ba8:	00050003 	.word	0x00050003
     bac:	00060003 	.word	0x00060003
     bb0:	00070003 	.word	0x00070003
     bb4:	00010003 	.word	0x00010003
     bb8:	001e0003 	.word	0x001e0003
     bbc:	001f0003 	.word	0x001f0003
     bc0:	00090003 	.word	0x00090003
     bc4:	000a0003 	.word	0x000a0003
     bc8:	000b0003 	.word	0x000b0003
     bcc:	00110003 	.word	0x00110003
     bd0:	00120003 	.word	0x00120003
     bd4:	00130003 	.word	0x00130003
     bd8:	000d0003 	.word	0x000d0003
     bdc:	000e0003 	.word	0x000e0003
     be0:	000f0003 	.word	0x000f0003
     be4:	00170003 	.word	0x00170003
     be8:	00180003 	.word	0x00180003
     bec:	00190003 	.word	0x00190003
     bf0:	00040003 	.word	0x00040003
     bf4:	00080003 	.word	0x00080003
     bf8:	00100003 	.word	0x00100003
     bfc:	000c0003 	.word	0x000c0003
     c00:	00160003 	.word	0x00160003

00000c04 <_sercom_get_sercom_inst_index>:
     c04:	b530      	push	{r4, r5, lr}
     c06:	b087      	sub	sp, #28
     c08:	4b0c      	ldr	r3, [pc, #48]	; (c3c <_sercom_get_sercom_inst_index+0x38>)
     c0a:	466a      	mov	r2, sp
     c0c:	cb32      	ldmia	r3!, {r1, r4, r5}
     c0e:	c232      	stmia	r2!, {r1, r4, r5}
     c10:	cb32      	ldmia	r3!, {r1, r4, r5}
     c12:	c232      	stmia	r2!, {r1, r4, r5}
     c14:	9b00      	ldr	r3, [sp, #0]
     c16:	4283      	cmp	r3, r0
     c18:	d006      	beq.n	c28 <_sercom_get_sercom_inst_index+0x24>
     c1a:	2301      	movs	r3, #1
     c1c:	009a      	lsls	r2, r3, #2
     c1e:	4669      	mov	r1, sp
     c20:	5852      	ldr	r2, [r2, r1]
     c22:	4282      	cmp	r2, r0
     c24:	d103      	bne.n	c2e <_sercom_get_sercom_inst_index+0x2a>
     c26:	e000      	b.n	c2a <_sercom_get_sercom_inst_index+0x26>
     c28:	2300      	movs	r3, #0
     c2a:	b2d8      	uxtb	r0, r3
     c2c:	e003      	b.n	c36 <_sercom_get_sercom_inst_index+0x32>
     c2e:	3301      	adds	r3, #1
     c30:	2b06      	cmp	r3, #6
     c32:	d1f3      	bne.n	c1c <_sercom_get_sercom_inst_index+0x18>
     c34:	2000      	movs	r0, #0
     c36:	b007      	add	sp, #28
     c38:	bd30      	pop	{r4, r5, pc}
     c3a:	46c0      	nop			; (mov r8, r8)
     c3c:	00006534 	.word	0x00006534

00000c40 <_read>:
     c40:	b5f0      	push	{r4, r5, r6, r7, lr}
     c42:	4647      	mov	r7, r8
     c44:	b480      	push	{r7}
     c46:	000c      	movs	r4, r1
     c48:	4690      	mov	r8, r2
     c4a:	2800      	cmp	r0, #0
     c4c:	d10d      	bne.n	c6a <_read+0x2a>
     c4e:	2a00      	cmp	r2, #0
     c50:	dd0e      	ble.n	c70 <_read+0x30>
     c52:	188f      	adds	r7, r1, r2
     c54:	4e08      	ldr	r6, [pc, #32]	; (c78 <_read+0x38>)
     c56:	4d09      	ldr	r5, [pc, #36]	; (c7c <_read+0x3c>)
     c58:	6830      	ldr	r0, [r6, #0]
     c5a:	0021      	movs	r1, r4
     c5c:	682b      	ldr	r3, [r5, #0]
     c5e:	4798      	blx	r3
     c60:	3401      	adds	r4, #1
     c62:	42a7      	cmp	r7, r4
     c64:	d1f8      	bne.n	c58 <_read+0x18>
     c66:	4640      	mov	r0, r8
     c68:	e003      	b.n	c72 <_read+0x32>
     c6a:	2001      	movs	r0, #1
     c6c:	4240      	negs	r0, r0
     c6e:	e000      	b.n	c72 <_read+0x32>
     c70:	2000      	movs	r0, #0
     c72:	bc04      	pop	{r2}
     c74:	4690      	mov	r8, r2
     c76:	bdf0      	pop	{r4, r5, r6, r7, pc}
     c78:	20003cf0 	.word	0x20003cf0
     c7c:	20003ce8 	.word	0x20003ce8

00000c80 <_write>:
     c80:	b5f0      	push	{r4, r5, r6, r7, lr}
     c82:	4647      	mov	r7, r8
     c84:	b480      	push	{r7}
     c86:	000e      	movs	r6, r1
     c88:	0015      	movs	r5, r2
     c8a:	3801      	subs	r0, #1
     c8c:	2802      	cmp	r0, #2
     c8e:	d811      	bhi.n	cb4 <_write+0x34>
     c90:	2a00      	cmp	r2, #0
     c92:	d012      	beq.n	cba <_write+0x3a>
     c94:	2400      	movs	r4, #0
     c96:	4b0c      	ldr	r3, [pc, #48]	; (cc8 <_write+0x48>)
     c98:	4698      	mov	r8, r3
     c9a:	4f0c      	ldr	r7, [pc, #48]	; (ccc <_write+0x4c>)
     c9c:	4643      	mov	r3, r8
     c9e:	6818      	ldr	r0, [r3, #0]
     ca0:	5d31      	ldrb	r1, [r6, r4]
     ca2:	683b      	ldr	r3, [r7, #0]
     ca4:	4798      	blx	r3
     ca6:	2800      	cmp	r0, #0
     ca8:	db09      	blt.n	cbe <_write+0x3e>
     caa:	3401      	adds	r4, #1
     cac:	42a5      	cmp	r5, r4
     cae:	d1f5      	bne.n	c9c <_write+0x1c>
     cb0:	0020      	movs	r0, r4
     cb2:	e006      	b.n	cc2 <_write+0x42>
     cb4:	2001      	movs	r0, #1
     cb6:	4240      	negs	r0, r0
     cb8:	e003      	b.n	cc2 <_write+0x42>
     cba:	2000      	movs	r0, #0
     cbc:	e001      	b.n	cc2 <_write+0x42>
     cbe:	2001      	movs	r0, #1
     cc0:	4240      	negs	r0, r0
     cc2:	bc04      	pop	{r2}
     cc4:	4690      	mov	r8, r2
     cc6:	bdf0      	pop	{r4, r5, r6, r7, pc}
     cc8:	20003cf0 	.word	0x20003cf0
     ccc:	20003cec 	.word	0x20003cec

00000cd0 <prvTaskExitError>:
     cd0:	4b03      	ldr	r3, [pc, #12]	; (ce0 <prvTaskExitError+0x10>)
     cd2:	681b      	ldr	r3, [r3, #0]
     cd4:	3301      	adds	r3, #1
     cd6:	d001      	beq.n	cdc <prvTaskExitError+0xc>
     cd8:	b672      	cpsid	i
     cda:	e7fe      	b.n	cda <prvTaskExitError+0xa>
     cdc:	b672      	cpsid	i
     cde:	e7fe      	b.n	cde <prvTaskExitError+0xe>
     ce0:	20000000 	.word	0x20000000

00000ce4 <vPortStartFirstTask>:
     ce4:	4a06      	ldr	r2, [pc, #24]	; (d00 <pxCurrentTCBConst2>)
     ce6:	6813      	ldr	r3, [r2, #0]
     ce8:	6818      	ldr	r0, [r3, #0]
     cea:	3020      	adds	r0, #32
     cec:	f380 8809 	msr	PSP, r0
     cf0:	2002      	movs	r0, #2
     cf2:	f380 8814 	msr	CONTROL, r0
     cf6:	bc3f      	pop	{r0, r1, r2, r3, r4, r5}
     cf8:	46ae      	mov	lr, r5
     cfa:	b662      	cpsie	i
     cfc:	bd00      	pop	{pc}
     cfe:	46c0      	nop			; (mov r8, r8)

00000d00 <pxCurrentTCBConst2>:
     d00:	20003c00 	.word	0x20003c00

00000d04 <pxPortInitialiseStack>:
     d04:	b510      	push	{r4, lr}
     d06:	1f03      	subs	r3, r0, #4
     d08:	2480      	movs	r4, #128	; 0x80
     d0a:	0464      	lsls	r4, r4, #17
     d0c:	601c      	str	r4, [r3, #0]
     d0e:	3b04      	subs	r3, #4
     d10:	6019      	str	r1, [r3, #0]
     d12:	3b04      	subs	r3, #4
     d14:	4902      	ldr	r1, [pc, #8]	; (d20 <pxPortInitialiseStack+0x1c>)
     d16:	6019      	str	r1, [r3, #0]
     d18:	3b14      	subs	r3, #20
     d1a:	601a      	str	r2, [r3, #0]
     d1c:	3840      	subs	r0, #64	; 0x40
     d1e:	bd10      	pop	{r4, pc}
     d20:	00000cd1 	.word	0x00000cd1

00000d24 <SVC_Handler>:
     d24:	4770      	bx	lr
     d26:	46c0      	nop			; (mov r8, r8)

00000d28 <vPortYield>:
     d28:	2280      	movs	r2, #128	; 0x80
     d2a:	0552      	lsls	r2, r2, #21
     d2c:	4b03      	ldr	r3, [pc, #12]	; (d3c <vPortYield+0x14>)
     d2e:	601a      	str	r2, [r3, #0]
     d30:	f3bf 8f4f 	dsb	sy
     d34:	f3bf 8f6f 	isb	sy
     d38:	4770      	bx	lr
     d3a:	46c0      	nop			; (mov r8, r8)
     d3c:	e000ed04 	.word	0xe000ed04

00000d40 <vPortEnterCritical>:
     d40:	b672      	cpsid	i
     d42:	4a04      	ldr	r2, [pc, #16]	; (d54 <vPortEnterCritical+0x14>)
     d44:	6813      	ldr	r3, [r2, #0]
     d46:	3301      	adds	r3, #1
     d48:	6013      	str	r3, [r2, #0]
     d4a:	f3bf 8f4f 	dsb	sy
     d4e:	f3bf 8f6f 	isb	sy
     d52:	4770      	bx	lr
     d54:	20000000 	.word	0x20000000

00000d58 <vPortExitCritical>:
     d58:	4b06      	ldr	r3, [pc, #24]	; (d74 <vPortExitCritical+0x1c>)
     d5a:	681b      	ldr	r3, [r3, #0]
     d5c:	2b00      	cmp	r3, #0
     d5e:	d101      	bne.n	d64 <vPortExitCritical+0xc>
     d60:	b672      	cpsid	i
     d62:	e7fe      	b.n	d62 <vPortExitCritical+0xa>
     d64:	3b01      	subs	r3, #1
     d66:	4a03      	ldr	r2, [pc, #12]	; (d74 <vPortExitCritical+0x1c>)
     d68:	6013      	str	r3, [r2, #0]
     d6a:	2b00      	cmp	r3, #0
     d6c:	d100      	bne.n	d70 <vPortExitCritical+0x18>
     d6e:	b662      	cpsie	i
     d70:	4770      	bx	lr
     d72:	46c0      	nop			; (mov r8, r8)
     d74:	20000000 	.word	0x20000000

00000d78 <ulSetInterruptMaskFromISR>:
     d78:	f3ef 8010 	mrs	r0, PRIMASK
     d7c:	b672      	cpsid	i
     d7e:	4770      	bx	lr
     d80:	2000      	movs	r0, #0
     d82:	46c0      	nop			; (mov r8, r8)

00000d84 <vClearInterruptMaskFromISR>:
     d84:	f380 8810 	msr	PRIMASK, r0
     d88:	4770      	bx	lr
     d8a:	46c0      	nop			; (mov r8, r8)

00000d8c <PendSV_Handler>:
     d8c:	f3ef 8009 	mrs	r0, PSP
     d90:	4b0e      	ldr	r3, [pc, #56]	; (dcc <pxCurrentTCBConst>)
     d92:	681a      	ldr	r2, [r3, #0]
     d94:	3820      	subs	r0, #32
     d96:	6010      	str	r0, [r2, #0]
     d98:	c0f0      	stmia	r0!, {r4, r5, r6, r7}
     d9a:	4644      	mov	r4, r8
     d9c:	464d      	mov	r5, r9
     d9e:	4656      	mov	r6, sl
     da0:	465f      	mov	r7, fp
     da2:	c0f0      	stmia	r0!, {r4, r5, r6, r7}
     da4:	b508      	push	{r3, lr}
     da6:	b672      	cpsid	i
     da8:	f000 ff20 	bl	1bec <vTaskSwitchContext>
     dac:	b662      	cpsie	i
     dae:	bc0c      	pop	{r2, r3}
     db0:	6811      	ldr	r1, [r2, #0]
     db2:	6808      	ldr	r0, [r1, #0]
     db4:	3010      	adds	r0, #16
     db6:	c8f0      	ldmia	r0!, {r4, r5, r6, r7}
     db8:	46a0      	mov	r8, r4
     dba:	46a9      	mov	r9, r5
     dbc:	46b2      	mov	sl, r6
     dbe:	46bb      	mov	fp, r7
     dc0:	f380 8809 	msr	PSP, r0
     dc4:	3820      	subs	r0, #32
     dc6:	c8f0      	ldmia	r0!, {r4, r5, r6, r7}
     dc8:	4718      	bx	r3
     dca:	46c0      	nop			; (mov r8, r8)

00000dcc <pxCurrentTCBConst>:
     dcc:	20003c00 	.word	0x20003c00

00000dd0 <SysTick_Handler>:
     dd0:	b510      	push	{r4, lr}
     dd2:	4b07      	ldr	r3, [pc, #28]	; (df0 <SysTick_Handler+0x20>)
     dd4:	4798      	blx	r3
     dd6:	0004      	movs	r4, r0
     dd8:	4b06      	ldr	r3, [pc, #24]	; (df4 <SysTick_Handler+0x24>)
     dda:	4798      	blx	r3
     ddc:	2800      	cmp	r0, #0
     dde:	d003      	beq.n	de8 <SysTick_Handler+0x18>
     de0:	2280      	movs	r2, #128	; 0x80
     de2:	0552      	lsls	r2, r2, #21
     de4:	4b04      	ldr	r3, [pc, #16]	; (df8 <SysTick_Handler+0x28>)
     de6:	601a      	str	r2, [r3, #0]
     de8:	0020      	movs	r0, r4
     dea:	4b04      	ldr	r3, [pc, #16]	; (dfc <SysTick_Handler+0x2c>)
     dec:	4798      	blx	r3
     dee:	bd10      	pop	{r4, pc}
     df0:	00000d79 	.word	0x00000d79
     df4:	000018e9 	.word	0x000018e9
     df8:	e000ed04 	.word	0xe000ed04
     dfc:	00000d85 	.word	0x00000d85

00000e00 <vPortSetupTimerInterrupt>:
     e00:	2200      	movs	r2, #0
     e02:	4b04      	ldr	r3, [pc, #16]	; (e14 <vPortSetupTimerInterrupt+0x14>)
     e04:	601a      	str	r2, [r3, #0]
     e06:	4a04      	ldr	r2, [pc, #16]	; (e18 <vPortSetupTimerInterrupt+0x18>)
     e08:	4b04      	ldr	r3, [pc, #16]	; (e1c <vPortSetupTimerInterrupt+0x1c>)
     e0a:	601a      	str	r2, [r3, #0]
     e0c:	2207      	movs	r2, #7
     e0e:	4b04      	ldr	r3, [pc, #16]	; (e20 <vPortSetupTimerInterrupt+0x20>)
     e10:	601a      	str	r2, [r3, #0]
     e12:	4770      	bx	lr
     e14:	e000e018 	.word	0xe000e018
     e18:	00001f3f 	.word	0x00001f3f
     e1c:	e000e014 	.word	0xe000e014
     e20:	e000e010 	.word	0xe000e010

00000e24 <xPortStartScheduler>:
     e24:	b510      	push	{r4, lr}
     e26:	4b0a      	ldr	r3, [pc, #40]	; (e50 <xPortStartScheduler+0x2c>)
     e28:	681a      	ldr	r2, [r3, #0]
     e2a:	21ff      	movs	r1, #255	; 0xff
     e2c:	0409      	lsls	r1, r1, #16
     e2e:	430a      	orrs	r2, r1
     e30:	601a      	str	r2, [r3, #0]
     e32:	681a      	ldr	r2, [r3, #0]
     e34:	21ff      	movs	r1, #255	; 0xff
     e36:	0609      	lsls	r1, r1, #24
     e38:	430a      	orrs	r2, r1
     e3a:	601a      	str	r2, [r3, #0]
     e3c:	4b05      	ldr	r3, [pc, #20]	; (e54 <xPortStartScheduler+0x30>)
     e3e:	4798      	blx	r3
     e40:	2200      	movs	r2, #0
     e42:	4b05      	ldr	r3, [pc, #20]	; (e58 <xPortStartScheduler+0x34>)
     e44:	601a      	str	r2, [r3, #0]
     e46:	4b05      	ldr	r3, [pc, #20]	; (e5c <xPortStartScheduler+0x38>)
     e48:	4798      	blx	r3
     e4a:	4b05      	ldr	r3, [pc, #20]	; (e60 <xPortStartScheduler+0x3c>)
     e4c:	4798      	blx	r3
     e4e:	46c0      	nop			; (mov r8, r8)
     e50:	e000ed20 	.word	0xe000ed20
     e54:	00000e01 	.word	0x00000e01
     e58:	20000000 	.word	0x20000000
     e5c:	00000ce5 	.word	0x00000ce5
     e60:	00000cd1 	.word	0x00000cd1

00000e64 <pvPortMalloc>:
     e64:	b570      	push	{r4, r5, r6, lr}
     e66:	0004      	movs	r4, r0
     e68:	0743      	lsls	r3, r0, #29
     e6a:	d002      	beq.n	e72 <pvPortMalloc+0xe>
     e6c:	2307      	movs	r3, #7
     e6e:	439c      	bics	r4, r3
     e70:	3408      	adds	r4, #8
     e72:	4b10      	ldr	r3, [pc, #64]	; (eb4 <pvPortMalloc+0x50>)
     e74:	4798      	blx	r3
     e76:	4b10      	ldr	r3, [pc, #64]	; (eb8 <pvPortMalloc+0x54>)
     e78:	681b      	ldr	r3, [r3, #0]
     e7a:	2b00      	cmp	r3, #0
     e7c:	d105      	bne.n	e8a <pvPortMalloc+0x26>
     e7e:	2207      	movs	r2, #7
     e80:	4b0e      	ldr	r3, [pc, #56]	; (ebc <pvPortMalloc+0x58>)
     e82:	3308      	adds	r3, #8
     e84:	4393      	bics	r3, r2
     e86:	4a0c      	ldr	r2, [pc, #48]	; (eb8 <pvPortMalloc+0x54>)
     e88:	6013      	str	r3, [r2, #0]
     e8a:	4b0d      	ldr	r3, [pc, #52]	; (ec0 <pvPortMalloc+0x5c>)
     e8c:	681b      	ldr	r3, [r3, #0]
     e8e:	18e4      	adds	r4, r4, r3
     e90:	4a0c      	ldr	r2, [pc, #48]	; (ec4 <pvPortMalloc+0x60>)
     e92:	4294      	cmp	r4, r2
     e94:	d807      	bhi.n	ea6 <pvPortMalloc+0x42>
     e96:	42a3      	cmp	r3, r4
     e98:	d207      	bcs.n	eaa <pvPortMalloc+0x46>
     e9a:	4a07      	ldr	r2, [pc, #28]	; (eb8 <pvPortMalloc+0x54>)
     e9c:	6815      	ldr	r5, [r2, #0]
     e9e:	18ed      	adds	r5, r5, r3
     ea0:	4b07      	ldr	r3, [pc, #28]	; (ec0 <pvPortMalloc+0x5c>)
     ea2:	601c      	str	r4, [r3, #0]
     ea4:	e002      	b.n	eac <pvPortMalloc+0x48>
     ea6:	2500      	movs	r5, #0
     ea8:	e000      	b.n	eac <pvPortMalloc+0x48>
     eaa:	2500      	movs	r5, #0
     eac:	4b06      	ldr	r3, [pc, #24]	; (ec8 <pvPortMalloc+0x64>)
     eae:	4798      	blx	r3
     eb0:	0028      	movs	r0, r5
     eb2:	bd70      	pop	{r4, r5, r6, pc}
     eb4:	000018b9 	.word	0x000018b9
     eb8:	20003b48 	.word	0x20003b48
     ebc:	200000b0 	.word	0x200000b0
     ec0:	200000ac 	.word	0x200000ac
     ec4:	00003a8f 	.word	0x00003a8f
     ec8:	00001a0d 	.word	0x00001a0d

00000ecc <vPortFree>:
     ecc:	2800      	cmp	r0, #0
     ece:	d001      	beq.n	ed4 <vPortFree+0x8>
     ed0:	b672      	cpsid	i
     ed2:	e7fe      	b.n	ed2 <vPortFree+0x6>
     ed4:	4770      	bx	lr
     ed6:	46c0      	nop			; (mov r8, r8)

00000ed8 <vListInitialise>:
     ed8:	0003      	movs	r3, r0
     eda:	3308      	adds	r3, #8
     edc:	6043      	str	r3, [r0, #4]
     ede:	2201      	movs	r2, #1
     ee0:	4252      	negs	r2, r2
     ee2:	6082      	str	r2, [r0, #8]
     ee4:	60c3      	str	r3, [r0, #12]
     ee6:	6103      	str	r3, [r0, #16]
     ee8:	2300      	movs	r3, #0
     eea:	6003      	str	r3, [r0, #0]
     eec:	4770      	bx	lr
     eee:	46c0      	nop			; (mov r8, r8)

00000ef0 <vListInitialiseItem>:
     ef0:	2300      	movs	r3, #0
     ef2:	6103      	str	r3, [r0, #16]
     ef4:	4770      	bx	lr
     ef6:	46c0      	nop			; (mov r8, r8)

00000ef8 <vListInsertEnd>:
     ef8:	6843      	ldr	r3, [r0, #4]
     efa:	604b      	str	r3, [r1, #4]
     efc:	689a      	ldr	r2, [r3, #8]
     efe:	608a      	str	r2, [r1, #8]
     f00:	689a      	ldr	r2, [r3, #8]
     f02:	6051      	str	r1, [r2, #4]
     f04:	6099      	str	r1, [r3, #8]
     f06:	6108      	str	r0, [r1, #16]
     f08:	6803      	ldr	r3, [r0, #0]
     f0a:	3301      	adds	r3, #1
     f0c:	6003      	str	r3, [r0, #0]
     f0e:	4770      	bx	lr

00000f10 <vListInsert>:
     f10:	b530      	push	{r4, r5, lr}
     f12:	680c      	ldr	r4, [r1, #0]
     f14:	0002      	movs	r2, r0
     f16:	3208      	adds	r2, #8
     f18:	1c63      	adds	r3, r4, #1
     f1a:	d102      	bne.n	f22 <vListInsert+0x12>
     f1c:	6902      	ldr	r2, [r0, #16]
     f1e:	e004      	b.n	f2a <vListInsert+0x1a>
     f20:	001a      	movs	r2, r3
     f22:	6853      	ldr	r3, [r2, #4]
     f24:	681d      	ldr	r5, [r3, #0]
     f26:	42ac      	cmp	r4, r5
     f28:	d2fa      	bcs.n	f20 <vListInsert+0x10>
     f2a:	6853      	ldr	r3, [r2, #4]
     f2c:	604b      	str	r3, [r1, #4]
     f2e:	6099      	str	r1, [r3, #8]
     f30:	608a      	str	r2, [r1, #8]
     f32:	6051      	str	r1, [r2, #4]
     f34:	6108      	str	r0, [r1, #16]
     f36:	6803      	ldr	r3, [r0, #0]
     f38:	3301      	adds	r3, #1
     f3a:	6003      	str	r3, [r0, #0]
     f3c:	bd30      	pop	{r4, r5, pc}
     f3e:	46c0      	nop			; (mov r8, r8)

00000f40 <uxListRemove>:
     f40:	6903      	ldr	r3, [r0, #16]
     f42:	6842      	ldr	r2, [r0, #4]
     f44:	6881      	ldr	r1, [r0, #8]
     f46:	6091      	str	r1, [r2, #8]
     f48:	6882      	ldr	r2, [r0, #8]
     f4a:	6841      	ldr	r1, [r0, #4]
     f4c:	6051      	str	r1, [r2, #4]
     f4e:	685a      	ldr	r2, [r3, #4]
     f50:	4290      	cmp	r0, r2
     f52:	d101      	bne.n	f58 <uxListRemove+0x18>
     f54:	6882      	ldr	r2, [r0, #8]
     f56:	605a      	str	r2, [r3, #4]
     f58:	2200      	movs	r2, #0
     f5a:	6102      	str	r2, [r0, #16]
     f5c:	681a      	ldr	r2, [r3, #0]
     f5e:	1e50      	subs	r0, r2, #1
     f60:	6018      	str	r0, [r3, #0]
     f62:	4770      	bx	lr

00000f64 <prvCopyDataToQueue>:
     f64:	b570      	push	{r4, r5, r6, lr}
     f66:	0004      	movs	r4, r0
     f68:	0015      	movs	r5, r2
     f6a:	6c02      	ldr	r2, [r0, #64]	; 0x40
     f6c:	2a00      	cmp	r2, #0
     f6e:	d108      	bne.n	f82 <prvCopyDataToQueue+0x1e>
     f70:	6803      	ldr	r3, [r0, #0]
     f72:	2b00      	cmp	r3, #0
     f74:	d12c      	bne.n	fd0 <prvCopyDataToQueue+0x6c>
     f76:	6840      	ldr	r0, [r0, #4]
     f78:	4b17      	ldr	r3, [pc, #92]	; (fd8 <prvCopyDataToQueue+0x74>)
     f7a:	4798      	blx	r3
     f7c:	2300      	movs	r3, #0
     f7e:	6063      	str	r3, [r4, #4]
     f80:	e026      	b.n	fd0 <prvCopyDataToQueue+0x6c>
     f82:	2d00      	cmp	r5, #0
     f84:	d10d      	bne.n	fa2 <prvCopyDataToQueue+0x3e>
     f86:	6880      	ldr	r0, [r0, #8]
     f88:	4b14      	ldr	r3, [pc, #80]	; (fdc <prvCopyDataToQueue+0x78>)
     f8a:	4798      	blx	r3
     f8c:	68a3      	ldr	r3, [r4, #8]
     f8e:	6c22      	ldr	r2, [r4, #64]	; 0x40
     f90:	4694      	mov	ip, r2
     f92:	4463      	add	r3, ip
     f94:	60a3      	str	r3, [r4, #8]
     f96:	6862      	ldr	r2, [r4, #4]
     f98:	4293      	cmp	r3, r2
     f9a:	d319      	bcc.n	fd0 <prvCopyDataToQueue+0x6c>
     f9c:	6823      	ldr	r3, [r4, #0]
     f9e:	60a3      	str	r3, [r4, #8]
     fa0:	e016      	b.n	fd0 <prvCopyDataToQueue+0x6c>
     fa2:	68c0      	ldr	r0, [r0, #12]
     fa4:	4b0d      	ldr	r3, [pc, #52]	; (fdc <prvCopyDataToQueue+0x78>)
     fa6:	4798      	blx	r3
     fa8:	6c23      	ldr	r3, [r4, #64]	; 0x40
     faa:	425b      	negs	r3, r3
     fac:	68e2      	ldr	r2, [r4, #12]
     fae:	18d2      	adds	r2, r2, r3
     fb0:	60e2      	str	r2, [r4, #12]
     fb2:	6821      	ldr	r1, [r4, #0]
     fb4:	428a      	cmp	r2, r1
     fb6:	d203      	bcs.n	fc0 <prvCopyDataToQueue+0x5c>
     fb8:	6862      	ldr	r2, [r4, #4]
     fba:	4694      	mov	ip, r2
     fbc:	4463      	add	r3, ip
     fbe:	60e3      	str	r3, [r4, #12]
     fc0:	2d02      	cmp	r5, #2
     fc2:	d105      	bne.n	fd0 <prvCopyDataToQueue+0x6c>
     fc4:	6ba3      	ldr	r3, [r4, #56]	; 0x38
     fc6:	2b00      	cmp	r3, #0
     fc8:	d002      	beq.n	fd0 <prvCopyDataToQueue+0x6c>
     fca:	6ba3      	ldr	r3, [r4, #56]	; 0x38
     fcc:	3b01      	subs	r3, #1
     fce:	63a3      	str	r3, [r4, #56]	; 0x38
     fd0:	6ba3      	ldr	r3, [r4, #56]	; 0x38
     fd2:	3301      	adds	r3, #1
     fd4:	63a3      	str	r3, [r4, #56]	; 0x38
     fd6:	bd70      	pop	{r4, r5, r6, pc}
     fd8:	00001f01 	.word	0x00001f01
     fdc:	00005d7d 	.word	0x00005d7d

00000fe0 <prvNotifyQueueSetContainer>:
     fe0:	b510      	push	{r4, lr}
     fe2:	b082      	sub	sp, #8
     fe4:	9001      	str	r0, [sp, #4]
     fe6:	000a      	movs	r2, r1
     fe8:	6cc4      	ldr	r4, [r0, #76]	; 0x4c
     fea:	2c00      	cmp	r4, #0
     fec:	d101      	bne.n	ff2 <prvNotifyQueueSetContainer+0x12>
     fee:	b672      	cpsid	i
     ff0:	e7fe      	b.n	ff0 <prvNotifyQueueSetContainer+0x10>
     ff2:	6ba1      	ldr	r1, [r4, #56]	; 0x38
     ff4:	6be3      	ldr	r3, [r4, #60]	; 0x3c
     ff6:	4299      	cmp	r1, r3
     ff8:	d301      	bcc.n	ffe <prvNotifyQueueSetContainer+0x1e>
     ffa:	b672      	cpsid	i
     ffc:	e7fe      	b.n	ffc <prvNotifyQueueSetContainer+0x1c>
     ffe:	6ba1      	ldr	r1, [r4, #56]	; 0x38
    1000:	2000      	movs	r0, #0
    1002:	428b      	cmp	r3, r1
    1004:	d90d      	bls.n	1022 <prvNotifyQueueSetContainer+0x42>
    1006:	a901      	add	r1, sp, #4
    1008:	0020      	movs	r0, r4
    100a:	4b07      	ldr	r3, [pc, #28]	; (1028 <prvNotifyQueueSetContainer+0x48>)
    100c:	4798      	blx	r3
    100e:	2000      	movs	r0, #0
    1010:	6a63      	ldr	r3, [r4, #36]	; 0x24
    1012:	2b00      	cmp	r3, #0
    1014:	d005      	beq.n	1022 <prvNotifyQueueSetContainer+0x42>
    1016:	0020      	movs	r0, r4
    1018:	3024      	adds	r0, #36	; 0x24
    101a:	4b04      	ldr	r3, [pc, #16]	; (102c <prvNotifyQueueSetContainer+0x4c>)
    101c:	4798      	blx	r3
    101e:	1e43      	subs	r3, r0, #1
    1020:	4198      	sbcs	r0, r3
    1022:	b002      	add	sp, #8
    1024:	bd10      	pop	{r4, pc}
    1026:	46c0      	nop			; (mov r8, r8)
    1028:	00000f65 	.word	0x00000f65
    102c:	00001d31 	.word	0x00001d31

00001030 <prvCopyDataFromQueue>:
    1030:	b570      	push	{r4, r5, r6, lr}
    1032:	000c      	movs	r4, r1
    1034:	6801      	ldr	r1, [r0, #0]
    1036:	2900      	cmp	r1, #0
    1038:	d00b      	beq.n	1052 <prvCopyDataFromQueue+0x22>
    103a:	6c02      	ldr	r2, [r0, #64]	; 0x40
    103c:	68c3      	ldr	r3, [r0, #12]
    103e:	189b      	adds	r3, r3, r2
    1040:	60c3      	str	r3, [r0, #12]
    1042:	6845      	ldr	r5, [r0, #4]
    1044:	42ab      	cmp	r3, r5
    1046:	d300      	bcc.n	104a <prvCopyDataFromQueue+0x1a>
    1048:	60c1      	str	r1, [r0, #12]
    104a:	68c1      	ldr	r1, [r0, #12]
    104c:	0020      	movs	r0, r4
    104e:	4b01      	ldr	r3, [pc, #4]	; (1054 <prvCopyDataFromQueue+0x24>)
    1050:	4798      	blx	r3
    1052:	bd70      	pop	{r4, r5, r6, pc}
    1054:	00005d7d 	.word	0x00005d7d

00001058 <prvUnlockQueue>:
    1058:	b5f8      	push	{r3, r4, r5, r6, r7, lr}
    105a:	0004      	movs	r4, r0
    105c:	4b24      	ldr	r3, [pc, #144]	; (10f0 <prvUnlockQueue+0x98>)
    105e:	4798      	blx	r3
    1060:	6ca3      	ldr	r3, [r4, #72]	; 0x48
    1062:	2b00      	cmp	r3, #0
    1064:	dd1c      	ble.n	10a0 <prvUnlockQueue+0x48>
    1066:	4d23      	ldr	r5, [pc, #140]	; (10f4 <prvUnlockQueue+0x9c>)
    1068:	4e23      	ldr	r6, [pc, #140]	; (10f8 <prvUnlockQueue+0xa0>)
    106a:	6ce3      	ldr	r3, [r4, #76]	; 0x4c
    106c:	2b00      	cmp	r3, #0
    106e:	d007      	beq.n	1080 <prvUnlockQueue+0x28>
    1070:	2100      	movs	r1, #0
    1072:	0020      	movs	r0, r4
    1074:	47a8      	blx	r5
    1076:	2801      	cmp	r0, #1
    1078:	d10c      	bne.n	1094 <prvUnlockQueue+0x3c>
    107a:	4b20      	ldr	r3, [pc, #128]	; (10fc <prvUnlockQueue+0xa4>)
    107c:	4798      	blx	r3
    107e:	e009      	b.n	1094 <prvUnlockQueue+0x3c>
    1080:	6a63      	ldr	r3, [r4, #36]	; 0x24
    1082:	2b00      	cmp	r3, #0
    1084:	d00c      	beq.n	10a0 <prvUnlockQueue+0x48>
    1086:	0020      	movs	r0, r4
    1088:	3024      	adds	r0, #36	; 0x24
    108a:	47b0      	blx	r6
    108c:	2800      	cmp	r0, #0
    108e:	d001      	beq.n	1094 <prvUnlockQueue+0x3c>
    1090:	4b1a      	ldr	r3, [pc, #104]	; (10fc <prvUnlockQueue+0xa4>)
    1092:	4798      	blx	r3
    1094:	6ca3      	ldr	r3, [r4, #72]	; 0x48
    1096:	3b01      	subs	r3, #1
    1098:	64a3      	str	r3, [r4, #72]	; 0x48
    109a:	6ca3      	ldr	r3, [r4, #72]	; 0x48
    109c:	2b00      	cmp	r3, #0
    109e:	dce4      	bgt.n	106a <prvUnlockQueue+0x12>
    10a0:	2301      	movs	r3, #1
    10a2:	425b      	negs	r3, r3
    10a4:	64a3      	str	r3, [r4, #72]	; 0x48
    10a6:	4b16      	ldr	r3, [pc, #88]	; (1100 <prvUnlockQueue+0xa8>)
    10a8:	4798      	blx	r3
    10aa:	4b11      	ldr	r3, [pc, #68]	; (10f0 <prvUnlockQueue+0x98>)
    10ac:	4798      	blx	r3
    10ae:	6c63      	ldr	r3, [r4, #68]	; 0x44
    10b0:	2b00      	cmp	r3, #0
    10b2:	dd16      	ble.n	10e2 <prvUnlockQueue+0x8a>
    10b4:	6923      	ldr	r3, [r4, #16]
    10b6:	2b00      	cmp	r3, #0
    10b8:	d104      	bne.n	10c4 <prvUnlockQueue+0x6c>
    10ba:	e012      	b.n	10e2 <prvUnlockQueue+0x8a>
    10bc:	6923      	ldr	r3, [r4, #16]
    10be:	2b00      	cmp	r3, #0
    10c0:	d104      	bne.n	10cc <prvUnlockQueue+0x74>
    10c2:	e00e      	b.n	10e2 <prvUnlockQueue+0x8a>
    10c4:	0025      	movs	r5, r4
    10c6:	3510      	adds	r5, #16
    10c8:	4f0b      	ldr	r7, [pc, #44]	; (10f8 <prvUnlockQueue+0xa0>)
    10ca:	4e0c      	ldr	r6, [pc, #48]	; (10fc <prvUnlockQueue+0xa4>)
    10cc:	0028      	movs	r0, r5
    10ce:	47b8      	blx	r7
    10d0:	2800      	cmp	r0, #0
    10d2:	d000      	beq.n	10d6 <prvUnlockQueue+0x7e>
    10d4:	47b0      	blx	r6
    10d6:	6c63      	ldr	r3, [r4, #68]	; 0x44
    10d8:	3b01      	subs	r3, #1
    10da:	6463      	str	r3, [r4, #68]	; 0x44
    10dc:	6c63      	ldr	r3, [r4, #68]	; 0x44
    10de:	2b00      	cmp	r3, #0
    10e0:	dcec      	bgt.n	10bc <prvUnlockQueue+0x64>
    10e2:	2301      	movs	r3, #1
    10e4:	425b      	negs	r3, r3
    10e6:	6463      	str	r3, [r4, #68]	; 0x44
    10e8:	4b05      	ldr	r3, [pc, #20]	; (1100 <prvUnlockQueue+0xa8>)
    10ea:	4798      	blx	r3
    10ec:	bdf8      	pop	{r3, r4, r5, r6, r7, pc}
    10ee:	46c0      	nop			; (mov r8, r8)
    10f0:	00000d41 	.word	0x00000d41
    10f4:	00000fe1 	.word	0x00000fe1
    10f8:	00001d31 	.word	0x00001d31
    10fc:	00001e49 	.word	0x00001e49
    1100:	00000d59 	.word	0x00000d59

00001104 <xQueueGenericReset>:
    1104:	b570      	push	{r4, r5, r6, lr}
    1106:	0004      	movs	r4, r0
    1108:	000d      	movs	r5, r1
    110a:	2800      	cmp	r0, #0
    110c:	d101      	bne.n	1112 <xQueueGenericReset+0xe>
    110e:	b672      	cpsid	i
    1110:	e7fe      	b.n	1110 <xQueueGenericReset+0xc>
    1112:	4b15      	ldr	r3, [pc, #84]	; (1168 <xQueueGenericReset+0x64>)
    1114:	4798      	blx	r3
    1116:	6822      	ldr	r2, [r4, #0]
    1118:	6c21      	ldr	r1, [r4, #64]	; 0x40
    111a:	6be3      	ldr	r3, [r4, #60]	; 0x3c
    111c:	434b      	muls	r3, r1
    111e:	18d0      	adds	r0, r2, r3
    1120:	6060      	str	r0, [r4, #4]
    1122:	2000      	movs	r0, #0
    1124:	63a0      	str	r0, [r4, #56]	; 0x38
    1126:	60a2      	str	r2, [r4, #8]
    1128:	1a5b      	subs	r3, r3, r1
    112a:	18d3      	adds	r3, r2, r3
    112c:	60e3      	str	r3, [r4, #12]
    112e:	2301      	movs	r3, #1
    1130:	425b      	negs	r3, r3
    1132:	6463      	str	r3, [r4, #68]	; 0x44
    1134:	64a3      	str	r3, [r4, #72]	; 0x48
    1136:	2d00      	cmp	r5, #0
    1138:	d10b      	bne.n	1152 <xQueueGenericReset+0x4e>
    113a:	6923      	ldr	r3, [r4, #16]
    113c:	2b00      	cmp	r3, #0
    113e:	d00f      	beq.n	1160 <xQueueGenericReset+0x5c>
    1140:	0020      	movs	r0, r4
    1142:	3010      	adds	r0, #16
    1144:	4b09      	ldr	r3, [pc, #36]	; (116c <xQueueGenericReset+0x68>)
    1146:	4798      	blx	r3
    1148:	2801      	cmp	r0, #1
    114a:	d109      	bne.n	1160 <xQueueGenericReset+0x5c>
    114c:	4b08      	ldr	r3, [pc, #32]	; (1170 <xQueueGenericReset+0x6c>)
    114e:	4798      	blx	r3
    1150:	e006      	b.n	1160 <xQueueGenericReset+0x5c>
    1152:	0020      	movs	r0, r4
    1154:	3010      	adds	r0, #16
    1156:	4d07      	ldr	r5, [pc, #28]	; (1174 <xQueueGenericReset+0x70>)
    1158:	47a8      	blx	r5
    115a:	0020      	movs	r0, r4
    115c:	3024      	adds	r0, #36	; 0x24
    115e:	47a8      	blx	r5
    1160:	4b05      	ldr	r3, [pc, #20]	; (1178 <xQueueGenericReset+0x74>)
    1162:	4798      	blx	r3
    1164:	2001      	movs	r0, #1
    1166:	bd70      	pop	{r4, r5, r6, pc}
    1168:	00000d41 	.word	0x00000d41
    116c:	00001d31 	.word	0x00001d31
    1170:	00000d29 	.word	0x00000d29
    1174:	00000ed9 	.word	0x00000ed9
    1178:	00000d59 	.word	0x00000d59

0000117c <xQueueGenericCreate>:
    117c:	b570      	push	{r4, r5, r6, lr}
    117e:	0005      	movs	r5, r0
    1180:	000e      	movs	r6, r1
    1182:	2800      	cmp	r0, #0
    1184:	d011      	beq.n	11aa <xQueueGenericCreate+0x2e>
    1186:	2050      	movs	r0, #80	; 0x50
    1188:	4b0e      	ldr	r3, [pc, #56]	; (11c4 <xQueueGenericCreate+0x48>)
    118a:	4798      	blx	r3
    118c:	1e04      	subs	r4, r0, #0
    118e:	d00c      	beq.n	11aa <xQueueGenericCreate+0x2e>
    1190:	0030      	movs	r0, r6
    1192:	4368      	muls	r0, r5
    1194:	3001      	adds	r0, #1
    1196:	4b0b      	ldr	r3, [pc, #44]	; (11c4 <xQueueGenericCreate+0x48>)
    1198:	4798      	blx	r3
    119a:	6020      	str	r0, [r4, #0]
    119c:	2800      	cmp	r0, #0
    119e:	d106      	bne.n	11ae <xQueueGenericCreate+0x32>
    11a0:	0020      	movs	r0, r4
    11a2:	4b09      	ldr	r3, [pc, #36]	; (11c8 <xQueueGenericCreate+0x4c>)
    11a4:	4798      	blx	r3
    11a6:	e000      	b.n	11aa <xQueueGenericCreate+0x2e>
    11a8:	e7fe      	b.n	11a8 <xQueueGenericCreate+0x2c>
    11aa:	b672      	cpsid	i
    11ac:	e7fc      	b.n	11a8 <xQueueGenericCreate+0x2c>
    11ae:	63e5      	str	r5, [r4, #60]	; 0x3c
    11b0:	6426      	str	r6, [r4, #64]	; 0x40
    11b2:	2101      	movs	r1, #1
    11b4:	0020      	movs	r0, r4
    11b6:	4b05      	ldr	r3, [pc, #20]	; (11cc <xQueueGenericCreate+0x50>)
    11b8:	4798      	blx	r3
    11ba:	2300      	movs	r3, #0
    11bc:	64e3      	str	r3, [r4, #76]	; 0x4c
    11be:	0020      	movs	r0, r4
    11c0:	bd70      	pop	{r4, r5, r6, pc}
    11c2:	46c0      	nop			; (mov r8, r8)
    11c4:	00000e65 	.word	0x00000e65
    11c8:	00000ecd 	.word	0x00000ecd
    11cc:	00001105 	.word	0x00001105

000011d0 <xQueueGenericSend>:
    11d0:	b5f0      	push	{r4, r5, r6, r7, lr}
    11d2:	4657      	mov	r7, sl
    11d4:	464e      	mov	r6, r9
    11d6:	4645      	mov	r5, r8
    11d8:	b4e0      	push	{r5, r6, r7}
    11da:	b084      	sub	sp, #16
    11dc:	0004      	movs	r4, r0
    11de:	000f      	movs	r7, r1
    11e0:	9201      	str	r2, [sp, #4]
    11e2:	001d      	movs	r5, r3
    11e4:	2800      	cmp	r0, #0
    11e6:	d101      	bne.n	11ec <xQueueGenericSend+0x1c>
    11e8:	b672      	cpsid	i
    11ea:	e7fe      	b.n	11ea <xQueueGenericSend+0x1a>
    11ec:	2900      	cmp	r1, #0
    11ee:	d104      	bne.n	11fa <xQueueGenericSend+0x2a>
    11f0:	6c03      	ldr	r3, [r0, #64]	; 0x40
    11f2:	2b00      	cmp	r3, #0
    11f4:	d001      	beq.n	11fa <xQueueGenericSend+0x2a>
    11f6:	b672      	cpsid	i
    11f8:	e7fe      	b.n	11f8 <xQueueGenericSend+0x28>
    11fa:	2d02      	cmp	r5, #2
    11fc:	d104      	bne.n	1208 <xQueueGenericSend+0x38>
    11fe:	6be3      	ldr	r3, [r4, #60]	; 0x3c
    1200:	2b01      	cmp	r3, #1
    1202:	d001      	beq.n	1208 <xQueueGenericSend+0x38>
    1204:	b672      	cpsid	i
    1206:	e7fe      	b.n	1206 <xQueueGenericSend+0x36>
    1208:	4b42      	ldr	r3, [pc, #264]	; (1314 <xQueueGenericSend+0x144>)
    120a:	4798      	blx	r3
    120c:	2800      	cmp	r0, #0
    120e:	d104      	bne.n	121a <xQueueGenericSend+0x4a>
    1210:	9b01      	ldr	r3, [sp, #4]
    1212:	2b00      	cmp	r3, #0
    1214:	d003      	beq.n	121e <xQueueGenericSend+0x4e>
    1216:	b672      	cpsid	i
    1218:	e7fe      	b.n	1218 <xQueueGenericSend+0x48>
    121a:	2600      	movs	r6, #0
    121c:	e000      	b.n	1220 <xQueueGenericSend+0x50>
    121e:	2600      	movs	r6, #0
    1220:	4b3d      	ldr	r3, [pc, #244]	; (1318 <xQueueGenericSend+0x148>)
    1222:	4698      	mov	r8, r3
    1224:	47c0      	blx	r8
    1226:	6ba3      	ldr	r3, [r4, #56]	; 0x38
    1228:	6be2      	ldr	r2, [r4, #60]	; 0x3c
    122a:	4293      	cmp	r3, r2
    122c:	d301      	bcc.n	1232 <xQueueGenericSend+0x62>
    122e:	2d02      	cmp	r5, #2
    1230:	d11f      	bne.n	1272 <xQueueGenericSend+0xa2>
    1232:	002a      	movs	r2, r5
    1234:	0039      	movs	r1, r7
    1236:	0020      	movs	r0, r4
    1238:	4b38      	ldr	r3, [pc, #224]	; (131c <xQueueGenericSend+0x14c>)
    123a:	4798      	blx	r3
    123c:	6ce3      	ldr	r3, [r4, #76]	; 0x4c
    123e:	2b00      	cmp	r3, #0
    1240:	d008      	beq.n	1254 <xQueueGenericSend+0x84>
    1242:	0029      	movs	r1, r5
    1244:	0020      	movs	r0, r4
    1246:	4b36      	ldr	r3, [pc, #216]	; (1320 <xQueueGenericSend+0x150>)
    1248:	4798      	blx	r3
    124a:	2801      	cmp	r0, #1
    124c:	d10d      	bne.n	126a <xQueueGenericSend+0x9a>
    124e:	4b35      	ldr	r3, [pc, #212]	; (1324 <xQueueGenericSend+0x154>)
    1250:	4798      	blx	r3
    1252:	e00a      	b.n	126a <xQueueGenericSend+0x9a>
    1254:	6a63      	ldr	r3, [r4, #36]	; 0x24
    1256:	2b00      	cmp	r3, #0
    1258:	d007      	beq.n	126a <xQueueGenericSend+0x9a>
    125a:	0020      	movs	r0, r4
    125c:	3024      	adds	r0, #36	; 0x24
    125e:	4b32      	ldr	r3, [pc, #200]	; (1328 <xQueueGenericSend+0x158>)
    1260:	4798      	blx	r3
    1262:	2801      	cmp	r0, #1
    1264:	d101      	bne.n	126a <xQueueGenericSend+0x9a>
    1266:	4b2f      	ldr	r3, [pc, #188]	; (1324 <xQueueGenericSend+0x154>)
    1268:	4798      	blx	r3
    126a:	4b30      	ldr	r3, [pc, #192]	; (132c <xQueueGenericSend+0x15c>)
    126c:	4798      	blx	r3
    126e:	2001      	movs	r0, #1
    1270:	e049      	b.n	1306 <xQueueGenericSend+0x136>
    1272:	9b01      	ldr	r3, [sp, #4]
    1274:	2b00      	cmp	r3, #0
    1276:	d103      	bne.n	1280 <xQueueGenericSend+0xb0>
    1278:	4b2c      	ldr	r3, [pc, #176]	; (132c <xQueueGenericSend+0x15c>)
    127a:	4798      	blx	r3
    127c:	2000      	movs	r0, #0
    127e:	e042      	b.n	1306 <xQueueGenericSend+0x136>
    1280:	2e00      	cmp	r6, #0
    1282:	d103      	bne.n	128c <xQueueGenericSend+0xbc>
    1284:	a802      	add	r0, sp, #8
    1286:	4b2a      	ldr	r3, [pc, #168]	; (1330 <xQueueGenericSend+0x160>)
    1288:	4798      	blx	r3
    128a:	3601      	adds	r6, #1
    128c:	4b27      	ldr	r3, [pc, #156]	; (132c <xQueueGenericSend+0x15c>)
    128e:	4798      	blx	r3
    1290:	4b28      	ldr	r3, [pc, #160]	; (1334 <xQueueGenericSend+0x164>)
    1292:	4798      	blx	r3
    1294:	4b20      	ldr	r3, [pc, #128]	; (1318 <xQueueGenericSend+0x148>)
    1296:	4798      	blx	r3
    1298:	6c63      	ldr	r3, [r4, #68]	; 0x44
    129a:	3301      	adds	r3, #1
    129c:	d101      	bne.n	12a2 <xQueueGenericSend+0xd2>
    129e:	2300      	movs	r3, #0
    12a0:	6463      	str	r3, [r4, #68]	; 0x44
    12a2:	6ca3      	ldr	r3, [r4, #72]	; 0x48
    12a4:	3301      	adds	r3, #1
    12a6:	d101      	bne.n	12ac <xQueueGenericSend+0xdc>
    12a8:	2300      	movs	r3, #0
    12aa:	64a3      	str	r3, [r4, #72]	; 0x48
    12ac:	4b1f      	ldr	r3, [pc, #124]	; (132c <xQueueGenericSend+0x15c>)
    12ae:	4798      	blx	r3
    12b0:	a901      	add	r1, sp, #4
    12b2:	a802      	add	r0, sp, #8
    12b4:	4b20      	ldr	r3, [pc, #128]	; (1338 <xQueueGenericSend+0x168>)
    12b6:	4798      	blx	r3
    12b8:	2800      	cmp	r0, #0
    12ba:	d11e      	bne.n	12fa <xQueueGenericSend+0x12a>
    12bc:	4b16      	ldr	r3, [pc, #88]	; (1318 <xQueueGenericSend+0x148>)
    12be:	4798      	blx	r3
    12c0:	6ba3      	ldr	r3, [r4, #56]	; 0x38
    12c2:	469a      	mov	sl, r3
    12c4:	6be3      	ldr	r3, [r4, #60]	; 0x3c
    12c6:	4699      	mov	r9, r3
    12c8:	4b18      	ldr	r3, [pc, #96]	; (132c <xQueueGenericSend+0x15c>)
    12ca:	4798      	blx	r3
    12cc:	45ca      	cmp	sl, r9
    12ce:	d10e      	bne.n	12ee <xQueueGenericSend+0x11e>
    12d0:	0020      	movs	r0, r4
    12d2:	3010      	adds	r0, #16
    12d4:	9901      	ldr	r1, [sp, #4]
    12d6:	4b19      	ldr	r3, [pc, #100]	; (133c <xQueueGenericSend+0x16c>)
    12d8:	4798      	blx	r3
    12da:	0020      	movs	r0, r4
    12dc:	4b18      	ldr	r3, [pc, #96]	; (1340 <xQueueGenericSend+0x170>)
    12de:	4798      	blx	r3
    12e0:	4b18      	ldr	r3, [pc, #96]	; (1344 <xQueueGenericSend+0x174>)
    12e2:	4798      	blx	r3
    12e4:	2800      	cmp	r0, #0
    12e6:	d19d      	bne.n	1224 <xQueueGenericSend+0x54>
    12e8:	4b0e      	ldr	r3, [pc, #56]	; (1324 <xQueueGenericSend+0x154>)
    12ea:	4798      	blx	r3
    12ec:	e79a      	b.n	1224 <xQueueGenericSend+0x54>
    12ee:	0020      	movs	r0, r4
    12f0:	4b13      	ldr	r3, [pc, #76]	; (1340 <xQueueGenericSend+0x170>)
    12f2:	4798      	blx	r3
    12f4:	4b13      	ldr	r3, [pc, #76]	; (1344 <xQueueGenericSend+0x174>)
    12f6:	4798      	blx	r3
    12f8:	e794      	b.n	1224 <xQueueGenericSend+0x54>
    12fa:	0020      	movs	r0, r4
    12fc:	4b10      	ldr	r3, [pc, #64]	; (1340 <xQueueGenericSend+0x170>)
    12fe:	4798      	blx	r3
    1300:	4b10      	ldr	r3, [pc, #64]	; (1344 <xQueueGenericSend+0x174>)
    1302:	4798      	blx	r3
    1304:	2000      	movs	r0, #0
    1306:	b004      	add	sp, #16
    1308:	bc1c      	pop	{r2, r3, r4}
    130a:	4690      	mov	r8, r2
    130c:	4699      	mov	r9, r3
    130e:	46a2      	mov	sl, r4
    1310:	bdf0      	pop	{r4, r5, r6, r7, pc}
    1312:	46c0      	nop			; (mov r8, r8)
    1314:	00001e61 	.word	0x00001e61
    1318:	00000d41 	.word	0x00000d41
    131c:	00000f65 	.word	0x00000f65
    1320:	00000fe1 	.word	0x00000fe1
    1324:	00000d29 	.word	0x00000d29
    1328:	00001d31 	.word	0x00001d31
    132c:	00000d59 	.word	0x00000d59
    1330:	00001db9 	.word	0x00001db9
    1334:	000018b9 	.word	0x000018b9
    1338:	00001dd9 	.word	0x00001dd9
    133c:	00001c99 	.word	0x00001c99
    1340:	00001059 	.word	0x00001059
    1344:	00001a0d 	.word	0x00001a0d

00001348 <xQueueGenericSendFromISR>:
    1348:	b5f0      	push	{r4, r5, r6, r7, lr}
    134a:	b083      	sub	sp, #12
    134c:	0004      	movs	r4, r0
    134e:	000f      	movs	r7, r1
    1350:	0016      	movs	r6, r2
    1352:	001d      	movs	r5, r3
    1354:	2800      	cmp	r0, #0
    1356:	d101      	bne.n	135c <xQueueGenericSendFromISR+0x14>
    1358:	b672      	cpsid	i
    135a:	e7fe      	b.n	135a <xQueueGenericSendFromISR+0x12>
    135c:	2900      	cmp	r1, #0
    135e:	d104      	bne.n	136a <xQueueGenericSendFromISR+0x22>
    1360:	6c03      	ldr	r3, [r0, #64]	; 0x40
    1362:	2b00      	cmp	r3, #0
    1364:	d001      	beq.n	136a <xQueueGenericSendFromISR+0x22>
    1366:	b672      	cpsid	i
    1368:	e7fe      	b.n	1368 <xQueueGenericSendFromISR+0x20>
    136a:	2d02      	cmp	r5, #2
    136c:	d138      	bne.n	13e0 <xQueueGenericSendFromISR+0x98>
    136e:	6be3      	ldr	r3, [r4, #60]	; 0x3c
    1370:	2b01      	cmp	r3, #1
    1372:	d030      	beq.n	13d6 <xQueueGenericSendFromISR+0x8e>
    1374:	b672      	cpsid	i
    1376:	e7fe      	b.n	1376 <xQueueGenericSendFromISR+0x2e>
    1378:	002a      	movs	r2, r5
    137a:	0039      	movs	r1, r7
    137c:	0020      	movs	r0, r4
    137e:	4b1f      	ldr	r3, [pc, #124]	; (13fc <xQueueGenericSendFromISR+0xb4>)
    1380:	4798      	blx	r3
    1382:	6ca3      	ldr	r3, [r4, #72]	; 0x48
    1384:	3301      	adds	r3, #1
    1386:	d11d      	bne.n	13c4 <xQueueGenericSendFromISR+0x7c>
    1388:	6ce3      	ldr	r3, [r4, #76]	; 0x4c
    138a:	2b00      	cmp	r3, #0
    138c:	d00b      	beq.n	13a6 <xQueueGenericSendFromISR+0x5e>
    138e:	0029      	movs	r1, r5
    1390:	0020      	movs	r0, r4
    1392:	4b1b      	ldr	r3, [pc, #108]	; (1400 <xQueueGenericSendFromISR+0xb8>)
    1394:	4798      	blx	r3
    1396:	2501      	movs	r5, #1
    1398:	2801      	cmp	r0, #1
    139a:	d129      	bne.n	13f0 <xQueueGenericSendFromISR+0xa8>
    139c:	2e00      	cmp	r6, #0
    139e:	d016      	beq.n	13ce <xQueueGenericSendFromISR+0x86>
    13a0:	2301      	movs	r3, #1
    13a2:	6033      	str	r3, [r6, #0]
    13a4:	e024      	b.n	13f0 <xQueueGenericSendFromISR+0xa8>
    13a6:	2501      	movs	r5, #1
    13a8:	6a63      	ldr	r3, [r4, #36]	; 0x24
    13aa:	2b00      	cmp	r3, #0
    13ac:	d020      	beq.n	13f0 <xQueueGenericSendFromISR+0xa8>
    13ae:	0020      	movs	r0, r4
    13b0:	3024      	adds	r0, #36	; 0x24
    13b2:	4b14      	ldr	r3, [pc, #80]	; (1404 <xQueueGenericSendFromISR+0xbc>)
    13b4:	4798      	blx	r3
    13b6:	2800      	cmp	r0, #0
    13b8:	d01a      	beq.n	13f0 <xQueueGenericSendFromISR+0xa8>
    13ba:	2e00      	cmp	r6, #0
    13bc:	d009      	beq.n	13d2 <xQueueGenericSendFromISR+0x8a>
    13be:	2301      	movs	r3, #1
    13c0:	6033      	str	r3, [r6, #0]
    13c2:	e015      	b.n	13f0 <xQueueGenericSendFromISR+0xa8>
    13c4:	6ca3      	ldr	r3, [r4, #72]	; 0x48
    13c6:	3301      	adds	r3, #1
    13c8:	64a3      	str	r3, [r4, #72]	; 0x48
    13ca:	2501      	movs	r5, #1
    13cc:	e010      	b.n	13f0 <xQueueGenericSendFromISR+0xa8>
    13ce:	2501      	movs	r5, #1
    13d0:	e00e      	b.n	13f0 <xQueueGenericSendFromISR+0xa8>
    13d2:	2501      	movs	r5, #1
    13d4:	e00c      	b.n	13f0 <xQueueGenericSendFromISR+0xa8>
    13d6:	4b0c      	ldr	r3, [pc, #48]	; (1408 <xQueueGenericSendFromISR+0xc0>)
    13d8:	4798      	blx	r3
    13da:	9001      	str	r0, [sp, #4]
    13dc:	6ba3      	ldr	r3, [r4, #56]	; 0x38
    13de:	e7cb      	b.n	1378 <xQueueGenericSendFromISR+0x30>
    13e0:	4b09      	ldr	r3, [pc, #36]	; (1408 <xQueueGenericSendFromISR+0xc0>)
    13e2:	4798      	blx	r3
    13e4:	9001      	str	r0, [sp, #4]
    13e6:	6ba3      	ldr	r3, [r4, #56]	; 0x38
    13e8:	6be2      	ldr	r2, [r4, #60]	; 0x3c
    13ea:	429a      	cmp	r2, r3
    13ec:	d8c4      	bhi.n	1378 <xQueueGenericSendFromISR+0x30>
    13ee:	2500      	movs	r5, #0
    13f0:	9801      	ldr	r0, [sp, #4]
    13f2:	4b06      	ldr	r3, [pc, #24]	; (140c <xQueueGenericSendFromISR+0xc4>)
    13f4:	4798      	blx	r3
    13f6:	0028      	movs	r0, r5
    13f8:	b003      	add	sp, #12
    13fa:	bdf0      	pop	{r4, r5, r6, r7, pc}
    13fc:	00000f65 	.word	0x00000f65
    1400:	00000fe1 	.word	0x00000fe1
    1404:	00001d31 	.word	0x00001d31
    1408:	00000d79 	.word	0x00000d79
    140c:	00000d85 	.word	0x00000d85

00001410 <xQueueGenericReceive>:
    1410:	b5f0      	push	{r4, r5, r6, r7, lr}
    1412:	464f      	mov	r7, r9
    1414:	4646      	mov	r6, r8
    1416:	b4c0      	push	{r6, r7}
    1418:	b085      	sub	sp, #20
    141a:	0004      	movs	r4, r0
    141c:	000e      	movs	r6, r1
    141e:	9201      	str	r2, [sp, #4]
    1420:	001f      	movs	r7, r3
    1422:	2800      	cmp	r0, #0
    1424:	d101      	bne.n	142a <xQueueGenericReceive+0x1a>
    1426:	b672      	cpsid	i
    1428:	e7fe      	b.n	1428 <xQueueGenericReceive+0x18>
    142a:	2900      	cmp	r1, #0
    142c:	d104      	bne.n	1438 <xQueueGenericReceive+0x28>
    142e:	6c03      	ldr	r3, [r0, #64]	; 0x40
    1430:	2b00      	cmp	r3, #0
    1432:	d001      	beq.n	1438 <xQueueGenericReceive+0x28>
    1434:	b672      	cpsid	i
    1436:	e7fe      	b.n	1436 <xQueueGenericReceive+0x26>
    1438:	4b4a      	ldr	r3, [pc, #296]	; (1564 <xQueueGenericReceive+0x154>)
    143a:	4798      	blx	r3
    143c:	2800      	cmp	r0, #0
    143e:	d104      	bne.n	144a <xQueueGenericReceive+0x3a>
    1440:	9b01      	ldr	r3, [sp, #4]
    1442:	2b00      	cmp	r3, #0
    1444:	d003      	beq.n	144e <xQueueGenericReceive+0x3e>
    1446:	b672      	cpsid	i
    1448:	e7fe      	b.n	1448 <xQueueGenericReceive+0x38>
    144a:	2500      	movs	r5, #0
    144c:	e000      	b.n	1450 <xQueueGenericReceive+0x40>
    144e:	2500      	movs	r5, #0
    1450:	4b45      	ldr	r3, [pc, #276]	; (1568 <xQueueGenericReceive+0x158>)
    1452:	4698      	mov	r8, r3
    1454:	47c0      	blx	r8
    1456:	6ba3      	ldr	r3, [r4, #56]	; 0x38
    1458:	2b00      	cmp	r3, #0
    145a:	d02b      	beq.n	14b4 <xQueueGenericReceive+0xa4>
    145c:	68e5      	ldr	r5, [r4, #12]
    145e:	0031      	movs	r1, r6
    1460:	0020      	movs	r0, r4
    1462:	4b42      	ldr	r3, [pc, #264]	; (156c <xQueueGenericReceive+0x15c>)
    1464:	4798      	blx	r3
    1466:	2f00      	cmp	r7, #0
    1468:	d114      	bne.n	1494 <xQueueGenericReceive+0x84>
    146a:	6ba3      	ldr	r3, [r4, #56]	; 0x38
    146c:	3b01      	subs	r3, #1
    146e:	63a3      	str	r3, [r4, #56]	; 0x38
    1470:	6823      	ldr	r3, [r4, #0]
    1472:	2b00      	cmp	r3, #0
    1474:	d102      	bne.n	147c <xQueueGenericReceive+0x6c>
    1476:	4b3e      	ldr	r3, [pc, #248]	; (1570 <xQueueGenericReceive+0x160>)
    1478:	4798      	blx	r3
    147a:	6060      	str	r0, [r4, #4]
    147c:	6923      	ldr	r3, [r4, #16]
    147e:	2b00      	cmp	r3, #0
    1480:	d014      	beq.n	14ac <xQueueGenericReceive+0x9c>
    1482:	0020      	movs	r0, r4
    1484:	3010      	adds	r0, #16
    1486:	4b3b      	ldr	r3, [pc, #236]	; (1574 <xQueueGenericReceive+0x164>)
    1488:	4798      	blx	r3
    148a:	2801      	cmp	r0, #1
    148c:	d10e      	bne.n	14ac <xQueueGenericReceive+0x9c>
    148e:	4b3a      	ldr	r3, [pc, #232]	; (1578 <xQueueGenericReceive+0x168>)
    1490:	4798      	blx	r3
    1492:	e00b      	b.n	14ac <xQueueGenericReceive+0x9c>
    1494:	60e5      	str	r5, [r4, #12]
    1496:	6a63      	ldr	r3, [r4, #36]	; 0x24
    1498:	2b00      	cmp	r3, #0
    149a:	d007      	beq.n	14ac <xQueueGenericReceive+0x9c>
    149c:	0020      	movs	r0, r4
    149e:	3024      	adds	r0, #36	; 0x24
    14a0:	4b34      	ldr	r3, [pc, #208]	; (1574 <xQueueGenericReceive+0x164>)
    14a2:	4798      	blx	r3
    14a4:	2800      	cmp	r0, #0
    14a6:	d001      	beq.n	14ac <xQueueGenericReceive+0x9c>
    14a8:	4b33      	ldr	r3, [pc, #204]	; (1578 <xQueueGenericReceive+0x168>)
    14aa:	4798      	blx	r3
    14ac:	4b33      	ldr	r3, [pc, #204]	; (157c <xQueueGenericReceive+0x16c>)
    14ae:	4798      	blx	r3
    14b0:	2001      	movs	r0, #1
    14b2:	e052      	b.n	155a <xQueueGenericReceive+0x14a>
    14b4:	9b01      	ldr	r3, [sp, #4]
    14b6:	2b00      	cmp	r3, #0
    14b8:	d103      	bne.n	14c2 <xQueueGenericReceive+0xb2>
    14ba:	4b30      	ldr	r3, [pc, #192]	; (157c <xQueueGenericReceive+0x16c>)
    14bc:	4798      	blx	r3
    14be:	2000      	movs	r0, #0
    14c0:	e04b      	b.n	155a <xQueueGenericReceive+0x14a>
    14c2:	2d00      	cmp	r5, #0
    14c4:	d103      	bne.n	14ce <xQueueGenericReceive+0xbe>
    14c6:	a802      	add	r0, sp, #8
    14c8:	4b2d      	ldr	r3, [pc, #180]	; (1580 <xQueueGenericReceive+0x170>)
    14ca:	4798      	blx	r3
    14cc:	3501      	adds	r5, #1
    14ce:	4b2b      	ldr	r3, [pc, #172]	; (157c <xQueueGenericReceive+0x16c>)
    14d0:	4798      	blx	r3
    14d2:	4b2c      	ldr	r3, [pc, #176]	; (1584 <xQueueGenericReceive+0x174>)
    14d4:	4798      	blx	r3
    14d6:	4b24      	ldr	r3, [pc, #144]	; (1568 <xQueueGenericReceive+0x158>)
    14d8:	4798      	blx	r3
    14da:	6c63      	ldr	r3, [r4, #68]	; 0x44
    14dc:	3301      	adds	r3, #1
    14de:	d101      	bne.n	14e4 <xQueueGenericReceive+0xd4>
    14e0:	2300      	movs	r3, #0
    14e2:	6463      	str	r3, [r4, #68]	; 0x44
    14e4:	6ca3      	ldr	r3, [r4, #72]	; 0x48
    14e6:	3301      	adds	r3, #1
    14e8:	d101      	bne.n	14ee <xQueueGenericReceive+0xde>
    14ea:	2300      	movs	r3, #0
    14ec:	64a3      	str	r3, [r4, #72]	; 0x48
    14ee:	4b23      	ldr	r3, [pc, #140]	; (157c <xQueueGenericReceive+0x16c>)
    14f0:	4798      	blx	r3
    14f2:	a901      	add	r1, sp, #4
    14f4:	a802      	add	r0, sp, #8
    14f6:	4b24      	ldr	r3, [pc, #144]	; (1588 <xQueueGenericReceive+0x178>)
    14f8:	4798      	blx	r3
    14fa:	2800      	cmp	r0, #0
    14fc:	d127      	bne.n	154e <xQueueGenericReceive+0x13e>
    14fe:	4b1a      	ldr	r3, [pc, #104]	; (1568 <xQueueGenericReceive+0x158>)
    1500:	4798      	blx	r3
    1502:	6ba3      	ldr	r3, [r4, #56]	; 0x38
    1504:	4699      	mov	r9, r3
    1506:	4b1d      	ldr	r3, [pc, #116]	; (157c <xQueueGenericReceive+0x16c>)
    1508:	4798      	blx	r3
    150a:	464b      	mov	r3, r9
    150c:	2b00      	cmp	r3, #0
    150e:	d118      	bne.n	1542 <xQueueGenericReceive+0x132>
    1510:	6823      	ldr	r3, [r4, #0]
    1512:	2b00      	cmp	r3, #0
    1514:	d106      	bne.n	1524 <xQueueGenericReceive+0x114>
    1516:	4b14      	ldr	r3, [pc, #80]	; (1568 <xQueueGenericReceive+0x158>)
    1518:	4798      	blx	r3
    151a:	6860      	ldr	r0, [r4, #4]
    151c:	4b1b      	ldr	r3, [pc, #108]	; (158c <xQueueGenericReceive+0x17c>)
    151e:	4798      	blx	r3
    1520:	4b16      	ldr	r3, [pc, #88]	; (157c <xQueueGenericReceive+0x16c>)
    1522:	4798      	blx	r3
    1524:	0020      	movs	r0, r4
    1526:	3024      	adds	r0, #36	; 0x24
    1528:	9901      	ldr	r1, [sp, #4]
    152a:	4b19      	ldr	r3, [pc, #100]	; (1590 <xQueueGenericReceive+0x180>)
    152c:	4798      	blx	r3
    152e:	0020      	movs	r0, r4
    1530:	4b18      	ldr	r3, [pc, #96]	; (1594 <xQueueGenericReceive+0x184>)
    1532:	4798      	blx	r3
    1534:	4b18      	ldr	r3, [pc, #96]	; (1598 <xQueueGenericReceive+0x188>)
    1536:	4798      	blx	r3
    1538:	2800      	cmp	r0, #0
    153a:	d18b      	bne.n	1454 <xQueueGenericReceive+0x44>
    153c:	4b0e      	ldr	r3, [pc, #56]	; (1578 <xQueueGenericReceive+0x168>)
    153e:	4798      	blx	r3
    1540:	e788      	b.n	1454 <xQueueGenericReceive+0x44>
    1542:	0020      	movs	r0, r4
    1544:	4b13      	ldr	r3, [pc, #76]	; (1594 <xQueueGenericReceive+0x184>)
    1546:	4798      	blx	r3
    1548:	4b13      	ldr	r3, [pc, #76]	; (1598 <xQueueGenericReceive+0x188>)
    154a:	4798      	blx	r3
    154c:	e782      	b.n	1454 <xQueueGenericReceive+0x44>
    154e:	0020      	movs	r0, r4
    1550:	4b10      	ldr	r3, [pc, #64]	; (1594 <xQueueGenericReceive+0x184>)
    1552:	4798      	blx	r3
    1554:	4b10      	ldr	r3, [pc, #64]	; (1598 <xQueueGenericReceive+0x188>)
    1556:	4798      	blx	r3
    1558:	2000      	movs	r0, #0
    155a:	b005      	add	sp, #20
    155c:	bc0c      	pop	{r2, r3}
    155e:	4690      	mov	r8, r2
    1560:	4699      	mov	r9, r3
    1562:	bdf0      	pop	{r4, r5, r6, r7, pc}
    1564:	00001e61 	.word	0x00001e61
    1568:	00000d41 	.word	0x00000d41
    156c:	00001031 	.word	0x00001031
    1570:	00001e55 	.word	0x00001e55
    1574:	00001d31 	.word	0x00001d31
    1578:	00000d29 	.word	0x00000d29
    157c:	00000d59 	.word	0x00000d59
    1580:	00001db9 	.word	0x00001db9
    1584:	000018b9 	.word	0x000018b9
    1588:	00001dd9 	.word	0x00001dd9
    158c:	00001e81 	.word	0x00001e81
    1590:	00001c99 	.word	0x00001c99
    1594:	00001059 	.word	0x00001059
    1598:	00001a0d 	.word	0x00001a0d

0000159c <vQueueWaitForMessageRestricted>:
    159c:	b570      	push	{r4, r5, r6, lr}
    159e:	0004      	movs	r4, r0
    15a0:	000d      	movs	r5, r1
    15a2:	4b0d      	ldr	r3, [pc, #52]	; (15d8 <vQueueWaitForMessageRestricted+0x3c>)
    15a4:	4798      	blx	r3
    15a6:	6c63      	ldr	r3, [r4, #68]	; 0x44
    15a8:	3301      	adds	r3, #1
    15aa:	d101      	bne.n	15b0 <vQueueWaitForMessageRestricted+0x14>
    15ac:	2300      	movs	r3, #0
    15ae:	6463      	str	r3, [r4, #68]	; 0x44
    15b0:	6ca3      	ldr	r3, [r4, #72]	; 0x48
    15b2:	3301      	adds	r3, #1
    15b4:	d101      	bne.n	15ba <vQueueWaitForMessageRestricted+0x1e>
    15b6:	2300      	movs	r3, #0
    15b8:	64a3      	str	r3, [r4, #72]	; 0x48
    15ba:	4b08      	ldr	r3, [pc, #32]	; (15dc <vQueueWaitForMessageRestricted+0x40>)
    15bc:	4798      	blx	r3
    15be:	6ba3      	ldr	r3, [r4, #56]	; 0x38
    15c0:	2b00      	cmp	r3, #0
    15c2:	d104      	bne.n	15ce <vQueueWaitForMessageRestricted+0x32>
    15c4:	0020      	movs	r0, r4
    15c6:	3024      	adds	r0, #36	; 0x24
    15c8:	0029      	movs	r1, r5
    15ca:	4b05      	ldr	r3, [pc, #20]	; (15e0 <vQueueWaitForMessageRestricted+0x44>)
    15cc:	4798      	blx	r3
    15ce:	0020      	movs	r0, r4
    15d0:	4b04      	ldr	r3, [pc, #16]	; (15e4 <vQueueWaitForMessageRestricted+0x48>)
    15d2:	4798      	blx	r3
    15d4:	bd70      	pop	{r4, r5, r6, pc}
    15d6:	46c0      	nop			; (mov r8, r8)
    15d8:	00000d41 	.word	0x00000d41
    15dc:	00000d59 	.word	0x00000d59
    15e0:	00001cf1 	.word	0x00001cf1
    15e4:	00001059 	.word	0x00001059

000015e8 <prvResetNextTaskUnblockTime>:
    15e8:	4b08      	ldr	r3, [pc, #32]	; (160c <prvResetNextTaskUnblockTime+0x24>)
    15ea:	681b      	ldr	r3, [r3, #0]
    15ec:	681b      	ldr	r3, [r3, #0]
    15ee:	2b00      	cmp	r3, #0
    15f0:	d104      	bne.n	15fc <prvResetNextTaskUnblockTime+0x14>
    15f2:	2201      	movs	r2, #1
    15f4:	4252      	negs	r2, r2
    15f6:	4b06      	ldr	r3, [pc, #24]	; (1610 <prvResetNextTaskUnblockTime+0x28>)
    15f8:	601a      	str	r2, [r3, #0]
    15fa:	e006      	b.n	160a <prvResetNextTaskUnblockTime+0x22>
    15fc:	4b03      	ldr	r3, [pc, #12]	; (160c <prvResetNextTaskUnblockTime+0x24>)
    15fe:	681b      	ldr	r3, [r3, #0]
    1600:	68db      	ldr	r3, [r3, #12]
    1602:	68db      	ldr	r3, [r3, #12]
    1604:	685a      	ldr	r2, [r3, #4]
    1606:	4b02      	ldr	r3, [pc, #8]	; (1610 <prvResetNextTaskUnblockTime+0x28>)
    1608:	601a      	str	r2, [r3, #0]
    160a:	4770      	bx	lr
    160c:	20003b50 	.word	0x20003b50
    1610:	20000004 	.word	0x20000004

00001614 <prvAddCurrentTaskToDelayedList>:
    1614:	b510      	push	{r4, lr}
    1616:	1e04      	subs	r4, r0, #0
    1618:	4b0e      	ldr	r3, [pc, #56]	; (1654 <prvAddCurrentTaskToDelayedList+0x40>)
    161a:	681b      	ldr	r3, [r3, #0]
    161c:	6058      	str	r0, [r3, #4]
    161e:	4b0e      	ldr	r3, [pc, #56]	; (1658 <prvAddCurrentTaskToDelayedList+0x44>)
    1620:	681b      	ldr	r3, [r3, #0]
    1622:	429c      	cmp	r4, r3
    1624:	d207      	bcs.n	1636 <prvAddCurrentTaskToDelayedList+0x22>
    1626:	4b0d      	ldr	r3, [pc, #52]	; (165c <prvAddCurrentTaskToDelayedList+0x48>)
    1628:	6818      	ldr	r0, [r3, #0]
    162a:	4b0a      	ldr	r3, [pc, #40]	; (1654 <prvAddCurrentTaskToDelayedList+0x40>)
    162c:	6819      	ldr	r1, [r3, #0]
    162e:	3104      	adds	r1, #4
    1630:	4b0b      	ldr	r3, [pc, #44]	; (1660 <prvAddCurrentTaskToDelayedList+0x4c>)
    1632:	4798      	blx	r3
    1634:	e00c      	b.n	1650 <prvAddCurrentTaskToDelayedList+0x3c>
    1636:	4b0b      	ldr	r3, [pc, #44]	; (1664 <prvAddCurrentTaskToDelayedList+0x50>)
    1638:	6818      	ldr	r0, [r3, #0]
    163a:	4b06      	ldr	r3, [pc, #24]	; (1654 <prvAddCurrentTaskToDelayedList+0x40>)
    163c:	6819      	ldr	r1, [r3, #0]
    163e:	3104      	adds	r1, #4
    1640:	4b07      	ldr	r3, [pc, #28]	; (1660 <prvAddCurrentTaskToDelayedList+0x4c>)
    1642:	4798      	blx	r3
    1644:	4b08      	ldr	r3, [pc, #32]	; (1668 <prvAddCurrentTaskToDelayedList+0x54>)
    1646:	681b      	ldr	r3, [r3, #0]
    1648:	429c      	cmp	r4, r3
    164a:	d201      	bcs.n	1650 <prvAddCurrentTaskToDelayedList+0x3c>
    164c:	4b06      	ldr	r3, [pc, #24]	; (1668 <prvAddCurrentTaskToDelayedList+0x54>)
    164e:	601c      	str	r4, [r3, #0]
    1650:	bd10      	pop	{r4, pc}
    1652:	46c0      	nop			; (mov r8, r8)
    1654:	20003c00 	.word	0x20003c00
    1658:	20003c1c 	.word	0x20003c1c
    165c:	20003c20 	.word	0x20003c20
    1660:	00000f11 	.word	0x00000f11
    1664:	20003b50 	.word	0x20003b50
    1668:	20000004 	.word	0x20000004

0000166c <xTaskGenericCreate>:
    166c:	b5f0      	push	{r4, r5, r6, r7, lr}
    166e:	464f      	mov	r7, r9
    1670:	4646      	mov	r6, r8
    1672:	b4c0      	push	{r6, r7}
    1674:	b085      	sub	sp, #20
    1676:	9002      	str	r0, [sp, #8]
    1678:	000f      	movs	r7, r1
    167a:	0016      	movs	r6, r2
    167c:	9303      	str	r3, [sp, #12]
    167e:	9c0c      	ldr	r4, [sp, #48]	; 0x30
    1680:	2800      	cmp	r0, #0
    1682:	d101      	bne.n	1688 <xTaskGenericCreate+0x1c>
    1684:	b672      	cpsid	i
    1686:	e7fe      	b.n	1686 <xTaskGenericCreate+0x1a>
    1688:	2c04      	cmp	r4, #4
    168a:	d901      	bls.n	1690 <xTaskGenericCreate+0x24>
    168c:	b672      	cpsid	i
    168e:	e7fe      	b.n	168e <xTaskGenericCreate+0x22>
    1690:	2040      	movs	r0, #64	; 0x40
    1692:	4b5a      	ldr	r3, [pc, #360]	; (17fc <xTaskGenericCreate+0x190>)
    1694:	4798      	blx	r3
    1696:	1e05      	subs	r5, r0, #0
    1698:	d100      	bne.n	169c <xTaskGenericCreate+0x30>
    169a:	e0a8      	b.n	17ee <xTaskGenericCreate+0x182>
    169c:	9b0e      	ldr	r3, [sp, #56]	; 0x38
    169e:	2b00      	cmp	r3, #0
    16a0:	d000      	beq.n	16a4 <xTaskGenericCreate+0x38>
    16a2:	e0a1      	b.n	17e8 <xTaskGenericCreate+0x17c>
    16a4:	00b0      	lsls	r0, r6, #2
    16a6:	4b55      	ldr	r3, [pc, #340]	; (17fc <xTaskGenericCreate+0x190>)
    16a8:	4798      	blx	r3
    16aa:	6328      	str	r0, [r5, #48]	; 0x30
    16ac:	2800      	cmp	r0, #0
    16ae:	d103      	bne.n	16b8 <xTaskGenericCreate+0x4c>
    16b0:	0028      	movs	r0, r5
    16b2:	4b53      	ldr	r3, [pc, #332]	; (1800 <xTaskGenericCreate+0x194>)
    16b4:	4798      	blx	r3
    16b6:	e09a      	b.n	17ee <xTaskGenericCreate+0x182>
    16b8:	4b52      	ldr	r3, [pc, #328]	; (1804 <xTaskGenericCreate+0x198>)
    16ba:	18f3      	adds	r3, r6, r3
    16bc:	009b      	lsls	r3, r3, #2
    16be:	6b2a      	ldr	r2, [r5, #48]	; 0x30
    16c0:	4694      	mov	ip, r2
    16c2:	4463      	add	r3, ip
    16c4:	2207      	movs	r2, #7
    16c6:	4393      	bics	r3, r2
    16c8:	4698      	mov	r8, r3
    16ca:	783a      	ldrb	r2, [r7, #0]
    16cc:	2334      	movs	r3, #52	; 0x34
    16ce:	54ea      	strb	r2, [r5, r3]
    16d0:	783b      	ldrb	r3, [r7, #0]
    16d2:	2b00      	cmp	r3, #0
    16d4:	d00d      	beq.n	16f2 <xTaskGenericCreate+0x86>
    16d6:	1c7a      	adds	r2, r7, #1
    16d8:	002b      	movs	r3, r5
    16da:	3335      	adds	r3, #53	; 0x35
    16dc:	0029      	movs	r1, r5
    16de:	313c      	adds	r1, #60	; 0x3c
    16e0:	7810      	ldrb	r0, [r2, #0]
    16e2:	7018      	strb	r0, [r3, #0]
    16e4:	7810      	ldrb	r0, [r2, #0]
    16e6:	2800      	cmp	r0, #0
    16e8:	d003      	beq.n	16f2 <xTaskGenericCreate+0x86>
    16ea:	3201      	adds	r2, #1
    16ec:	3301      	adds	r3, #1
    16ee:	4299      	cmp	r1, r3
    16f0:	d1f6      	bne.n	16e0 <xTaskGenericCreate+0x74>
    16f2:	2200      	movs	r2, #0
    16f4:	233b      	movs	r3, #59	; 0x3b
    16f6:	54ea      	strb	r2, [r5, r3]
    16f8:	1e27      	subs	r7, r4, #0
    16fa:	2f04      	cmp	r7, #4
    16fc:	d900      	bls.n	1700 <xTaskGenericCreate+0x94>
    16fe:	2704      	movs	r7, #4
    1700:	62ef      	str	r7, [r5, #44]	; 0x2c
    1702:	63ef      	str	r7, [r5, #60]	; 0x3c
    1704:	1d2b      	adds	r3, r5, #4
    1706:	9301      	str	r3, [sp, #4]
    1708:	0018      	movs	r0, r3
    170a:	4e3f      	ldr	r6, [pc, #252]	; (1808 <xTaskGenericCreate+0x19c>)
    170c:	47b0      	blx	r6
    170e:	0028      	movs	r0, r5
    1710:	3018      	adds	r0, #24
    1712:	47b0      	blx	r6
    1714:	612d      	str	r5, [r5, #16]
    1716:	2305      	movs	r3, #5
    1718:	1bdb      	subs	r3, r3, r7
    171a:	61ab      	str	r3, [r5, #24]
    171c:	626d      	str	r5, [r5, #36]	; 0x24
    171e:	9a03      	ldr	r2, [sp, #12]
    1720:	9902      	ldr	r1, [sp, #8]
    1722:	4640      	mov	r0, r8
    1724:	4b39      	ldr	r3, [pc, #228]	; (180c <xTaskGenericCreate+0x1a0>)
    1726:	4798      	blx	r3
    1728:	6028      	str	r0, [r5, #0]
    172a:	9b0d      	ldr	r3, [sp, #52]	; 0x34
    172c:	2b00      	cmp	r3, #0
    172e:	d000      	beq.n	1732 <xTaskGenericCreate+0xc6>
    1730:	601d      	str	r5, [r3, #0]
    1732:	4b37      	ldr	r3, [pc, #220]	; (1810 <xTaskGenericCreate+0x1a4>)
    1734:	4798      	blx	r3
    1736:	4a37      	ldr	r2, [pc, #220]	; (1814 <xTaskGenericCreate+0x1a8>)
    1738:	6813      	ldr	r3, [r2, #0]
    173a:	3301      	adds	r3, #1
    173c:	6013      	str	r3, [r2, #0]
    173e:	4b36      	ldr	r3, [pc, #216]	; (1818 <xTaskGenericCreate+0x1ac>)
    1740:	681b      	ldr	r3, [r3, #0]
    1742:	2b00      	cmp	r3, #0
    1744:	d122      	bne.n	178c <xTaskGenericCreate+0x120>
    1746:	4b34      	ldr	r3, [pc, #208]	; (1818 <xTaskGenericCreate+0x1ac>)
    1748:	601d      	str	r5, [r3, #0]
    174a:	6813      	ldr	r3, [r2, #0]
    174c:	2b01      	cmp	r3, #1
    174e:	d128      	bne.n	17a2 <xTaskGenericCreate+0x136>
    1750:	4e32      	ldr	r6, [pc, #200]	; (181c <xTaskGenericCreate+0x1b0>)
    1752:	3363      	adds	r3, #99	; 0x63
    1754:	4699      	mov	r9, r3
    1756:	44b1      	add	r9, r6
    1758:	4f31      	ldr	r7, [pc, #196]	; (1820 <xTaskGenericCreate+0x1b4>)
    175a:	0030      	movs	r0, r6
    175c:	47b8      	blx	r7
    175e:	3614      	adds	r6, #20
    1760:	454e      	cmp	r6, r9
    1762:	d1fa      	bne.n	175a <xTaskGenericCreate+0xee>
    1764:	4b2f      	ldr	r3, [pc, #188]	; (1824 <xTaskGenericCreate+0x1b8>)
    1766:	4699      	mov	r9, r3
    1768:	0018      	movs	r0, r3
    176a:	4e2d      	ldr	r6, [pc, #180]	; (1820 <xTaskGenericCreate+0x1b4>)
    176c:	47b0      	blx	r6
    176e:	4f2e      	ldr	r7, [pc, #184]	; (1828 <xTaskGenericCreate+0x1bc>)
    1770:	0038      	movs	r0, r7
    1772:	47b0      	blx	r6
    1774:	482d      	ldr	r0, [pc, #180]	; (182c <xTaskGenericCreate+0x1c0>)
    1776:	47b0      	blx	r6
    1778:	482d      	ldr	r0, [pc, #180]	; (1830 <xTaskGenericCreate+0x1c4>)
    177a:	47b0      	blx	r6
    177c:	482d      	ldr	r0, [pc, #180]	; (1834 <xTaskGenericCreate+0x1c8>)
    177e:	47b0      	blx	r6
    1780:	4b2d      	ldr	r3, [pc, #180]	; (1838 <xTaskGenericCreate+0x1cc>)
    1782:	464a      	mov	r2, r9
    1784:	601a      	str	r2, [r3, #0]
    1786:	4b2d      	ldr	r3, [pc, #180]	; (183c <xTaskGenericCreate+0x1d0>)
    1788:	601f      	str	r7, [r3, #0]
    178a:	e00a      	b.n	17a2 <xTaskGenericCreate+0x136>
    178c:	4b2c      	ldr	r3, [pc, #176]	; (1840 <xTaskGenericCreate+0x1d4>)
    178e:	681b      	ldr	r3, [r3, #0]
    1790:	2b00      	cmp	r3, #0
    1792:	d106      	bne.n	17a2 <xTaskGenericCreate+0x136>
    1794:	4b20      	ldr	r3, [pc, #128]	; (1818 <xTaskGenericCreate+0x1ac>)
    1796:	681b      	ldr	r3, [r3, #0]
    1798:	6adb      	ldr	r3, [r3, #44]	; 0x2c
    179a:	429c      	cmp	r4, r3
    179c:	d301      	bcc.n	17a2 <xTaskGenericCreate+0x136>
    179e:	4b1e      	ldr	r3, [pc, #120]	; (1818 <xTaskGenericCreate+0x1ac>)
    17a0:	601d      	str	r5, [r3, #0]
    17a2:	4a28      	ldr	r2, [pc, #160]	; (1844 <xTaskGenericCreate+0x1d8>)
    17a4:	6813      	ldr	r3, [r2, #0]
    17a6:	3301      	adds	r3, #1
    17a8:	6013      	str	r3, [r2, #0]
    17aa:	6aeb      	ldr	r3, [r5, #44]	; 0x2c
    17ac:	4a26      	ldr	r2, [pc, #152]	; (1848 <xTaskGenericCreate+0x1dc>)
    17ae:	6812      	ldr	r2, [r2, #0]
    17b0:	4293      	cmp	r3, r2
    17b2:	d901      	bls.n	17b8 <xTaskGenericCreate+0x14c>
    17b4:	4a24      	ldr	r2, [pc, #144]	; (1848 <xTaskGenericCreate+0x1dc>)
    17b6:	6013      	str	r3, [r2, #0]
    17b8:	0098      	lsls	r0, r3, #2
    17ba:	18c3      	adds	r3, r0, r3
    17bc:	009b      	lsls	r3, r3, #2
    17be:	4817      	ldr	r0, [pc, #92]	; (181c <xTaskGenericCreate+0x1b0>)
    17c0:	18c0      	adds	r0, r0, r3
    17c2:	9901      	ldr	r1, [sp, #4]
    17c4:	4b21      	ldr	r3, [pc, #132]	; (184c <xTaskGenericCreate+0x1e0>)
    17c6:	4798      	blx	r3
    17c8:	4b21      	ldr	r3, [pc, #132]	; (1850 <xTaskGenericCreate+0x1e4>)
    17ca:	4798      	blx	r3
    17cc:	4b1c      	ldr	r3, [pc, #112]	; (1840 <xTaskGenericCreate+0x1d4>)
    17ce:	681b      	ldr	r3, [r3, #0]
    17d0:	2001      	movs	r0, #1
    17d2:	2b00      	cmp	r3, #0
    17d4:	d00d      	beq.n	17f2 <xTaskGenericCreate+0x186>
    17d6:	4b10      	ldr	r3, [pc, #64]	; (1818 <xTaskGenericCreate+0x1ac>)
    17d8:	681b      	ldr	r3, [r3, #0]
    17da:	6adb      	ldr	r3, [r3, #44]	; 0x2c
    17dc:	429c      	cmp	r4, r3
    17de:	d908      	bls.n	17f2 <xTaskGenericCreate+0x186>
    17e0:	4b1c      	ldr	r3, [pc, #112]	; (1854 <xTaskGenericCreate+0x1e8>)
    17e2:	4798      	blx	r3
    17e4:	2001      	movs	r0, #1
    17e6:	e004      	b.n	17f2 <xTaskGenericCreate+0x186>
    17e8:	9b0e      	ldr	r3, [sp, #56]	; 0x38
    17ea:	6303      	str	r3, [r0, #48]	; 0x30
    17ec:	e764      	b.n	16b8 <xTaskGenericCreate+0x4c>
    17ee:	2001      	movs	r0, #1
    17f0:	4240      	negs	r0, r0
    17f2:	b005      	add	sp, #20
    17f4:	bc0c      	pop	{r2, r3}
    17f6:	4690      	mov	r8, r2
    17f8:	4699      	mov	r9, r3
    17fa:	bdf0      	pop	{r4, r5, r6, r7, pc}
    17fc:	00000e65 	.word	0x00000e65
    1800:	00000ecd 	.word	0x00000ecd
    1804:	3fffffff 	.word	0x3fffffff
    1808:	00000ef1 	.word	0x00000ef1
    180c:	00000d05 	.word	0x00000d05
    1810:	00000d41 	.word	0x00000d41
    1814:	20003c28 	.word	0x20003c28
    1818:	20003c00 	.word	0x20003c00
    181c:	20003b88 	.word	0x20003b88
    1820:	00000ed9 	.word	0x00000ed9
    1824:	20003b5c 	.word	0x20003b5c
    1828:	20003b70 	.word	0x20003b70
    182c:	20003c04 	.word	0x20003c04
    1830:	20003bec 	.word	0x20003bec
    1834:	20003c2c 	.word	0x20003c2c
    1838:	20003b50 	.word	0x20003b50
    183c:	20003c20 	.word	0x20003c20
    1840:	20003b54 	.word	0x20003b54
    1844:	20003c24 	.word	0x20003c24
    1848:	20003c40 	.word	0x20003c40
    184c:	00000ef9 	.word	0x00000ef9
    1850:	00000d59 	.word	0x00000d59
    1854:	00000d29 	.word	0x00000d29

00001858 <vTaskStartScheduler>:
    1858:	b510      	push	{r4, lr}
    185a:	b084      	sub	sp, #16
    185c:	2300      	movs	r3, #0
    185e:	9303      	str	r3, [sp, #12]
    1860:	9302      	str	r3, [sp, #8]
    1862:	9301      	str	r3, [sp, #4]
    1864:	9300      	str	r3, [sp, #0]
    1866:	2264      	movs	r2, #100	; 0x64
    1868:	490c      	ldr	r1, [pc, #48]	; (189c <vTaskStartScheduler+0x44>)
    186a:	480d      	ldr	r0, [pc, #52]	; (18a0 <vTaskStartScheduler+0x48>)
    186c:	4c0d      	ldr	r4, [pc, #52]	; (18a4 <vTaskStartScheduler+0x4c>)
    186e:	47a0      	blx	r4
    1870:	2801      	cmp	r0, #1
    1872:	d10d      	bne.n	1890 <vTaskStartScheduler+0x38>
    1874:	4b0c      	ldr	r3, [pc, #48]	; (18a8 <vTaskStartScheduler+0x50>)
    1876:	4798      	blx	r3
    1878:	2801      	cmp	r0, #1
    187a:	d109      	bne.n	1890 <vTaskStartScheduler+0x38>
    187c:	b672      	cpsid	i
    187e:	2201      	movs	r2, #1
    1880:	4b0a      	ldr	r3, [pc, #40]	; (18ac <vTaskStartScheduler+0x54>)
    1882:	601a      	str	r2, [r3, #0]
    1884:	2200      	movs	r2, #0
    1886:	4b0a      	ldr	r3, [pc, #40]	; (18b0 <vTaskStartScheduler+0x58>)
    1888:	601a      	str	r2, [r3, #0]
    188a:	4b0a      	ldr	r3, [pc, #40]	; (18b4 <vTaskStartScheduler+0x5c>)
    188c:	4798      	blx	r3
    188e:	e003      	b.n	1898 <vTaskStartScheduler+0x40>
    1890:	2800      	cmp	r0, #0
    1892:	d101      	bne.n	1898 <vTaskStartScheduler+0x40>
    1894:	b672      	cpsid	i
    1896:	e7fe      	b.n	1896 <vTaskStartScheduler+0x3e>
    1898:	b004      	add	sp, #16
    189a:	bd10      	pop	{r4, pc}
    189c:	0000654c 	.word	0x0000654c
    18a0:	00001b61 	.word	0x00001b61
    18a4:	0000166d 	.word	0x0000166d
    18a8:	00002005 	.word	0x00002005
    18ac:	20003b54 	.word	0x20003b54
    18b0:	20003c1c 	.word	0x20003c1c
    18b4:	00000e25 	.word	0x00000e25

000018b8 <vTaskSuspendAll>:
    18b8:	4a02      	ldr	r2, [pc, #8]	; (18c4 <vTaskSuspendAll+0xc>)
    18ba:	6813      	ldr	r3, [r2, #0]
    18bc:	3301      	adds	r3, #1
    18be:	6013      	str	r3, [r2, #0]
    18c0:	4770      	bx	lr
    18c2:	46c0      	nop			; (mov r8, r8)
    18c4:	20003c18 	.word	0x20003c18

000018c8 <xTaskGetTickCount>:
    18c8:	b510      	push	{r4, lr}
    18ca:	4b04      	ldr	r3, [pc, #16]	; (18dc <xTaskGetTickCount+0x14>)
    18cc:	4798      	blx	r3
    18ce:	4b04      	ldr	r3, [pc, #16]	; (18e0 <xTaskGetTickCount+0x18>)
    18d0:	681c      	ldr	r4, [r3, #0]
    18d2:	4b04      	ldr	r3, [pc, #16]	; (18e4 <xTaskGetTickCount+0x1c>)
    18d4:	4798      	blx	r3
    18d6:	0020      	movs	r0, r4
    18d8:	bd10      	pop	{r4, pc}
    18da:	46c0      	nop			; (mov r8, r8)
    18dc:	00000d41 	.word	0x00000d41
    18e0:	20003c1c 	.word	0x20003c1c
    18e4:	00000d59 	.word	0x00000d59

000018e8 <xTaskIncrementTick>:
    18e8:	b5f0      	push	{r4, r5, r6, r7, lr}
    18ea:	b083      	sub	sp, #12
    18ec:	4b39      	ldr	r3, [pc, #228]	; (19d4 <xTaskIncrementTick+0xec>)
    18ee:	681b      	ldr	r3, [r3, #0]
    18f0:	2b00      	cmp	r3, #0
    18f2:	d162      	bne.n	19ba <xTaskIncrementTick+0xd2>
    18f4:	4b38      	ldr	r3, [pc, #224]	; (19d8 <xTaskIncrementTick+0xf0>)
    18f6:	681a      	ldr	r2, [r3, #0]
    18f8:	3201      	adds	r2, #1
    18fa:	601a      	str	r2, [r3, #0]
    18fc:	681c      	ldr	r4, [r3, #0]
    18fe:	2c00      	cmp	r4, #0
    1900:	d112      	bne.n	1928 <xTaskIncrementTick+0x40>
    1902:	4b36      	ldr	r3, [pc, #216]	; (19dc <xTaskIncrementTick+0xf4>)
    1904:	681b      	ldr	r3, [r3, #0]
    1906:	681b      	ldr	r3, [r3, #0]
    1908:	2b00      	cmp	r3, #0
    190a:	d001      	beq.n	1910 <xTaskIncrementTick+0x28>
    190c:	b672      	cpsid	i
    190e:	e7fe      	b.n	190e <xTaskIncrementTick+0x26>
    1910:	4a32      	ldr	r2, [pc, #200]	; (19dc <xTaskIncrementTick+0xf4>)
    1912:	6811      	ldr	r1, [r2, #0]
    1914:	4b32      	ldr	r3, [pc, #200]	; (19e0 <xTaskIncrementTick+0xf8>)
    1916:	6818      	ldr	r0, [r3, #0]
    1918:	6010      	str	r0, [r2, #0]
    191a:	6019      	str	r1, [r3, #0]
    191c:	4a31      	ldr	r2, [pc, #196]	; (19e4 <xTaskIncrementTick+0xfc>)
    191e:	6813      	ldr	r3, [r2, #0]
    1920:	3301      	adds	r3, #1
    1922:	6013      	str	r3, [r2, #0]
    1924:	4b30      	ldr	r3, [pc, #192]	; (19e8 <xTaskIncrementTick+0x100>)
    1926:	4798      	blx	r3
    1928:	4b30      	ldr	r3, [pc, #192]	; (19ec <xTaskIncrementTick+0x104>)
    192a:	681b      	ldr	r3, [r3, #0]
    192c:	2600      	movs	r6, #0
    192e:	429c      	cmp	r4, r3
    1930:	d337      	bcc.n	19a2 <xTaskIncrementTick+0xba>
    1932:	2600      	movs	r6, #0
    1934:	4d29      	ldr	r5, [pc, #164]	; (19dc <xTaskIncrementTick+0xf4>)
    1936:	682b      	ldr	r3, [r5, #0]
    1938:	681b      	ldr	r3, [r3, #0]
    193a:	2b00      	cmp	r3, #0
    193c:	d104      	bne.n	1948 <xTaskIncrementTick+0x60>
    193e:	2201      	movs	r2, #1
    1940:	4252      	negs	r2, r2
    1942:	4b2a      	ldr	r3, [pc, #168]	; (19ec <xTaskIncrementTick+0x104>)
    1944:	601a      	str	r2, [r3, #0]
    1946:	e02c      	b.n	19a2 <xTaskIncrementTick+0xba>
    1948:	4b24      	ldr	r3, [pc, #144]	; (19dc <xTaskIncrementTick+0xf4>)
    194a:	681b      	ldr	r3, [r3, #0]
    194c:	68db      	ldr	r3, [r3, #12]
    194e:	68df      	ldr	r7, [r3, #12]
    1950:	687b      	ldr	r3, [r7, #4]
    1952:	429c      	cmp	r4, r3
    1954:	d202      	bcs.n	195c <xTaskIncrementTick+0x74>
    1956:	4a25      	ldr	r2, [pc, #148]	; (19ec <xTaskIncrementTick+0x104>)
    1958:	6013      	str	r3, [r2, #0]
    195a:	e022      	b.n	19a2 <xTaskIncrementTick+0xba>
    195c:	1d3b      	adds	r3, r7, #4
    195e:	9301      	str	r3, [sp, #4]
    1960:	0018      	movs	r0, r3
    1962:	4b23      	ldr	r3, [pc, #140]	; (19f0 <xTaskIncrementTick+0x108>)
    1964:	4798      	blx	r3
    1966:	6abb      	ldr	r3, [r7, #40]	; 0x28
    1968:	2b00      	cmp	r3, #0
    196a:	d003      	beq.n	1974 <xTaskIncrementTick+0x8c>
    196c:	0038      	movs	r0, r7
    196e:	3018      	adds	r0, #24
    1970:	4b1f      	ldr	r3, [pc, #124]	; (19f0 <xTaskIncrementTick+0x108>)
    1972:	4798      	blx	r3
    1974:	6afb      	ldr	r3, [r7, #44]	; 0x2c
    1976:	4a1f      	ldr	r2, [pc, #124]	; (19f4 <xTaskIncrementTick+0x10c>)
    1978:	6812      	ldr	r2, [r2, #0]
    197a:	4293      	cmp	r3, r2
    197c:	d901      	bls.n	1982 <xTaskIncrementTick+0x9a>
    197e:	4a1d      	ldr	r2, [pc, #116]	; (19f4 <xTaskIncrementTick+0x10c>)
    1980:	6013      	str	r3, [r2, #0]
    1982:	0098      	lsls	r0, r3, #2
    1984:	18c3      	adds	r3, r0, r3
    1986:	009b      	lsls	r3, r3, #2
    1988:	481b      	ldr	r0, [pc, #108]	; (19f8 <xTaskIncrementTick+0x110>)
    198a:	18c0      	adds	r0, r0, r3
    198c:	9901      	ldr	r1, [sp, #4]
    198e:	4b1b      	ldr	r3, [pc, #108]	; (19fc <xTaskIncrementTick+0x114>)
    1990:	4798      	blx	r3
    1992:	4b1b      	ldr	r3, [pc, #108]	; (1a00 <xTaskIncrementTick+0x118>)
    1994:	681b      	ldr	r3, [r3, #0]
    1996:	6afa      	ldr	r2, [r7, #44]	; 0x2c
    1998:	6adb      	ldr	r3, [r3, #44]	; 0x2c
    199a:	429a      	cmp	r2, r3
    199c:	d3cb      	bcc.n	1936 <xTaskIncrementTick+0x4e>
    199e:	2601      	movs	r6, #1
    19a0:	e7c9      	b.n	1936 <xTaskIncrementTick+0x4e>
    19a2:	4b17      	ldr	r3, [pc, #92]	; (1a00 <xTaskIncrementTick+0x118>)
    19a4:	681b      	ldr	r3, [r3, #0]
    19a6:	6adb      	ldr	r3, [r3, #44]	; 0x2c
    19a8:	009a      	lsls	r2, r3, #2
    19aa:	18d3      	adds	r3, r2, r3
    19ac:	009b      	lsls	r3, r3, #2
    19ae:	4a12      	ldr	r2, [pc, #72]	; (19f8 <xTaskIncrementTick+0x110>)
    19b0:	589b      	ldr	r3, [r3, r2]
    19b2:	2b01      	cmp	r3, #1
    19b4:	d906      	bls.n	19c4 <xTaskIncrementTick+0xdc>
    19b6:	2601      	movs	r6, #1
    19b8:	e004      	b.n	19c4 <xTaskIncrementTick+0xdc>
    19ba:	4a12      	ldr	r2, [pc, #72]	; (1a04 <xTaskIncrementTick+0x11c>)
    19bc:	6813      	ldr	r3, [r2, #0]
    19be:	3301      	adds	r3, #1
    19c0:	6013      	str	r3, [r2, #0]
    19c2:	2600      	movs	r6, #0
    19c4:	4b10      	ldr	r3, [pc, #64]	; (1a08 <xTaskIncrementTick+0x120>)
    19c6:	681b      	ldr	r3, [r3, #0]
    19c8:	2b00      	cmp	r3, #0
    19ca:	d000      	beq.n	19ce <xTaskIncrementTick+0xe6>
    19cc:	2601      	movs	r6, #1
    19ce:	0030      	movs	r0, r6
    19d0:	b003      	add	sp, #12
    19d2:	bdf0      	pop	{r4, r5, r6, r7, pc}
    19d4:	20003c18 	.word	0x20003c18
    19d8:	20003c1c 	.word	0x20003c1c
    19dc:	20003b50 	.word	0x20003b50
    19e0:	20003c20 	.word	0x20003c20
    19e4:	20003b4c 	.word	0x20003b4c
    19e8:	000015e9 	.word	0x000015e9
    19ec:	20000004 	.word	0x20000004
    19f0:	00000f41 	.word	0x00000f41
    19f4:	20003c40 	.word	0x20003c40
    19f8:	20003b88 	.word	0x20003b88
    19fc:	00000ef9 	.word	0x00000ef9
    1a00:	20003c00 	.word	0x20003c00
    1a04:	20003b84 	.word	0x20003b84
    1a08:	20003c44 	.word	0x20003c44

00001a0c <xTaskResumeAll>:
    1a0c:	b5f8      	push	{r3, r4, r5, r6, r7, lr}
    1a0e:	4b2f      	ldr	r3, [pc, #188]	; (1acc <xTaskResumeAll+0xc0>)
    1a10:	681b      	ldr	r3, [r3, #0]
    1a12:	2b00      	cmp	r3, #0
    1a14:	d101      	bne.n	1a1a <xTaskResumeAll+0xe>
    1a16:	b672      	cpsid	i
    1a18:	e7fe      	b.n	1a18 <xTaskResumeAll+0xc>
    1a1a:	4b2d      	ldr	r3, [pc, #180]	; (1ad0 <xTaskResumeAll+0xc4>)
    1a1c:	4798      	blx	r3
    1a1e:	4b2b      	ldr	r3, [pc, #172]	; (1acc <xTaskResumeAll+0xc0>)
    1a20:	681a      	ldr	r2, [r3, #0]
    1a22:	3a01      	subs	r2, #1
    1a24:	601a      	str	r2, [r3, #0]
    1a26:	681b      	ldr	r3, [r3, #0]
    1a28:	2400      	movs	r4, #0
    1a2a:	2b00      	cmp	r3, #0
    1a2c:	d14a      	bne.n	1ac4 <xTaskResumeAll+0xb8>
    1a2e:	4b29      	ldr	r3, [pc, #164]	; (1ad4 <xTaskResumeAll+0xc8>)
    1a30:	681b      	ldr	r3, [r3, #0]
    1a32:	2b00      	cmp	r3, #0
    1a34:	d123      	bne.n	1a7e <xTaskResumeAll+0x72>
    1a36:	e045      	b.n	1ac4 <xTaskResumeAll+0xb8>
    1a38:	68fb      	ldr	r3, [r7, #12]
    1a3a:	68de      	ldr	r6, [r3, #12]
    1a3c:	0030      	movs	r0, r6
    1a3e:	3018      	adds	r0, #24
    1a40:	4b25      	ldr	r3, [pc, #148]	; (1ad8 <xTaskResumeAll+0xcc>)
    1a42:	4798      	blx	r3
    1a44:	1d35      	adds	r5, r6, #4
    1a46:	0028      	movs	r0, r5
    1a48:	4b23      	ldr	r3, [pc, #140]	; (1ad8 <xTaskResumeAll+0xcc>)
    1a4a:	4798      	blx	r3
    1a4c:	6af3      	ldr	r3, [r6, #44]	; 0x2c
    1a4e:	4a23      	ldr	r2, [pc, #140]	; (1adc <xTaskResumeAll+0xd0>)
    1a50:	6812      	ldr	r2, [r2, #0]
    1a52:	4293      	cmp	r3, r2
    1a54:	d901      	bls.n	1a5a <xTaskResumeAll+0x4e>
    1a56:	4a21      	ldr	r2, [pc, #132]	; (1adc <xTaskResumeAll+0xd0>)
    1a58:	6013      	str	r3, [r2, #0]
    1a5a:	0098      	lsls	r0, r3, #2
    1a5c:	18c3      	adds	r3, r0, r3
    1a5e:	009b      	lsls	r3, r3, #2
    1a60:	481f      	ldr	r0, [pc, #124]	; (1ae0 <xTaskResumeAll+0xd4>)
    1a62:	18c0      	adds	r0, r0, r3
    1a64:	0029      	movs	r1, r5
    1a66:	4b1f      	ldr	r3, [pc, #124]	; (1ae4 <xTaskResumeAll+0xd8>)
    1a68:	4798      	blx	r3
    1a6a:	4b1f      	ldr	r3, [pc, #124]	; (1ae8 <xTaskResumeAll+0xdc>)
    1a6c:	681b      	ldr	r3, [r3, #0]
    1a6e:	6af2      	ldr	r2, [r6, #44]	; 0x2c
    1a70:	6adb      	ldr	r3, [r3, #44]	; 0x2c
    1a72:	429a      	cmp	r2, r3
    1a74:	d305      	bcc.n	1a82 <xTaskResumeAll+0x76>
    1a76:	2201      	movs	r2, #1
    1a78:	4b1c      	ldr	r3, [pc, #112]	; (1aec <xTaskResumeAll+0xe0>)
    1a7a:	601a      	str	r2, [r3, #0]
    1a7c:	e001      	b.n	1a82 <xTaskResumeAll+0x76>
    1a7e:	4c1c      	ldr	r4, [pc, #112]	; (1af0 <xTaskResumeAll+0xe4>)
    1a80:	0027      	movs	r7, r4
    1a82:	6823      	ldr	r3, [r4, #0]
    1a84:	2b00      	cmp	r3, #0
    1a86:	d1d7      	bne.n	1a38 <xTaskResumeAll+0x2c>
    1a88:	4b1a      	ldr	r3, [pc, #104]	; (1af4 <xTaskResumeAll+0xe8>)
    1a8a:	681b      	ldr	r3, [r3, #0]
    1a8c:	2b00      	cmp	r3, #0
    1a8e:	d011      	beq.n	1ab4 <xTaskResumeAll+0xa8>
    1a90:	4b18      	ldr	r3, [pc, #96]	; (1af4 <xTaskResumeAll+0xe8>)
    1a92:	681b      	ldr	r3, [r3, #0]
    1a94:	2b00      	cmp	r3, #0
    1a96:	d00d      	beq.n	1ab4 <xTaskResumeAll+0xa8>
    1a98:	4e17      	ldr	r6, [pc, #92]	; (1af8 <xTaskResumeAll+0xec>)
    1a9a:	4d14      	ldr	r5, [pc, #80]	; (1aec <xTaskResumeAll+0xe0>)
    1a9c:	4c15      	ldr	r4, [pc, #84]	; (1af4 <xTaskResumeAll+0xe8>)
    1a9e:	47b0      	blx	r6
    1aa0:	2800      	cmp	r0, #0
    1aa2:	d001      	beq.n	1aa8 <xTaskResumeAll+0x9c>
    1aa4:	2301      	movs	r3, #1
    1aa6:	602b      	str	r3, [r5, #0]
    1aa8:	6823      	ldr	r3, [r4, #0]
    1aaa:	3b01      	subs	r3, #1
    1aac:	6023      	str	r3, [r4, #0]
    1aae:	6823      	ldr	r3, [r4, #0]
    1ab0:	2b00      	cmp	r3, #0
    1ab2:	d1f4      	bne.n	1a9e <xTaskResumeAll+0x92>
    1ab4:	4b0d      	ldr	r3, [pc, #52]	; (1aec <xTaskResumeAll+0xe0>)
    1ab6:	681b      	ldr	r3, [r3, #0]
    1ab8:	2400      	movs	r4, #0
    1aba:	2b01      	cmp	r3, #1
    1abc:	d102      	bne.n	1ac4 <xTaskResumeAll+0xb8>
    1abe:	4b0f      	ldr	r3, [pc, #60]	; (1afc <xTaskResumeAll+0xf0>)
    1ac0:	4798      	blx	r3
    1ac2:	3401      	adds	r4, #1
    1ac4:	4b0e      	ldr	r3, [pc, #56]	; (1b00 <xTaskResumeAll+0xf4>)
    1ac6:	4798      	blx	r3
    1ac8:	0020      	movs	r0, r4
    1aca:	bdf8      	pop	{r3, r4, r5, r6, r7, pc}
    1acc:	20003c18 	.word	0x20003c18
    1ad0:	00000d41 	.word	0x00000d41
    1ad4:	20003c28 	.word	0x20003c28
    1ad8:	00000f41 	.word	0x00000f41
    1adc:	20003c40 	.word	0x20003c40
    1ae0:	20003b88 	.word	0x20003b88
    1ae4:	00000ef9 	.word	0x00000ef9
    1ae8:	20003c00 	.word	0x20003c00
    1aec:	20003c44 	.word	0x20003c44
    1af0:	20003c04 	.word	0x20003c04
    1af4:	20003b84 	.word	0x20003b84
    1af8:	000018e9 	.word	0x000018e9
    1afc:	00000d29 	.word	0x00000d29
    1b00:	00000d59 	.word	0x00000d59

00001b04 <vTaskDelay>:
    1b04:	b510      	push	{r4, lr}
    1b06:	1e04      	subs	r4, r0, #0
    1b08:	d016      	beq.n	1b38 <vTaskDelay+0x34>
    1b0a:	4b0d      	ldr	r3, [pc, #52]	; (1b40 <vTaskDelay+0x3c>)
    1b0c:	681b      	ldr	r3, [r3, #0]
    1b0e:	2b00      	cmp	r3, #0
    1b10:	d001      	beq.n	1b16 <vTaskDelay+0x12>
    1b12:	b672      	cpsid	i
    1b14:	e7fe      	b.n	1b14 <vTaskDelay+0x10>
    1b16:	4b0b      	ldr	r3, [pc, #44]	; (1b44 <vTaskDelay+0x40>)
    1b18:	4798      	blx	r3
    1b1a:	4b0b      	ldr	r3, [pc, #44]	; (1b48 <vTaskDelay+0x44>)
    1b1c:	681b      	ldr	r3, [r3, #0]
    1b1e:	18e4      	adds	r4, r4, r3
    1b20:	4b0a      	ldr	r3, [pc, #40]	; (1b4c <vTaskDelay+0x48>)
    1b22:	6818      	ldr	r0, [r3, #0]
    1b24:	3004      	adds	r0, #4
    1b26:	4b0a      	ldr	r3, [pc, #40]	; (1b50 <vTaskDelay+0x4c>)
    1b28:	4798      	blx	r3
    1b2a:	0020      	movs	r0, r4
    1b2c:	4b09      	ldr	r3, [pc, #36]	; (1b54 <vTaskDelay+0x50>)
    1b2e:	4798      	blx	r3
    1b30:	4b09      	ldr	r3, [pc, #36]	; (1b58 <vTaskDelay+0x54>)
    1b32:	4798      	blx	r3
    1b34:	2800      	cmp	r0, #0
    1b36:	d101      	bne.n	1b3c <vTaskDelay+0x38>
    1b38:	4b08      	ldr	r3, [pc, #32]	; (1b5c <vTaskDelay+0x58>)
    1b3a:	4798      	blx	r3
    1b3c:	bd10      	pop	{r4, pc}
    1b3e:	46c0      	nop			; (mov r8, r8)
    1b40:	20003c18 	.word	0x20003c18
    1b44:	000018b9 	.word	0x000018b9
    1b48:	20003c1c 	.word	0x20003c1c
    1b4c:	20003c00 	.word	0x20003c00
    1b50:	00000f41 	.word	0x00000f41
    1b54:	00001615 	.word	0x00001615
    1b58:	00001a0d 	.word	0x00001a0d
    1b5c:	00000d29 	.word	0x00000d29

00001b60 <prvIdleTask>:
    1b60:	b5f0      	push	{r4, r5, r6, r7, lr}
    1b62:	4647      	mov	r7, r8
    1b64:	b480      	push	{r7}
    1b66:	4d16      	ldr	r5, [pc, #88]	; (1bc0 <prvIdleTask+0x60>)
    1b68:	4f16      	ldr	r7, [pc, #88]	; (1bc4 <prvIdleTask+0x64>)
    1b6a:	4e17      	ldr	r6, [pc, #92]	; (1bc8 <prvIdleTask+0x68>)
    1b6c:	e01d      	b.n	1baa <prvIdleTask+0x4a>
    1b6e:	47b8      	blx	r7
    1b70:	6834      	ldr	r4, [r6, #0]
    1b72:	4b16      	ldr	r3, [pc, #88]	; (1bcc <prvIdleTask+0x6c>)
    1b74:	4798      	blx	r3
    1b76:	2c00      	cmp	r4, #0
    1b78:	d017      	beq.n	1baa <prvIdleTask+0x4a>
    1b7a:	4b15      	ldr	r3, [pc, #84]	; (1bd0 <prvIdleTask+0x70>)
    1b7c:	4798      	blx	r3
    1b7e:	4b12      	ldr	r3, [pc, #72]	; (1bc8 <prvIdleTask+0x68>)
    1b80:	68db      	ldr	r3, [r3, #12]
    1b82:	68dc      	ldr	r4, [r3, #12]
    1b84:	1d20      	adds	r0, r4, #4
    1b86:	4b13      	ldr	r3, [pc, #76]	; (1bd4 <prvIdleTask+0x74>)
    1b88:	4798      	blx	r3
    1b8a:	4a13      	ldr	r2, [pc, #76]	; (1bd8 <prvIdleTask+0x78>)
    1b8c:	6813      	ldr	r3, [r2, #0]
    1b8e:	3b01      	subs	r3, #1
    1b90:	6013      	str	r3, [r2, #0]
    1b92:	4a0b      	ldr	r2, [pc, #44]	; (1bc0 <prvIdleTask+0x60>)
    1b94:	6813      	ldr	r3, [r2, #0]
    1b96:	3b01      	subs	r3, #1
    1b98:	6013      	str	r3, [r2, #0]
    1b9a:	4b10      	ldr	r3, [pc, #64]	; (1bdc <prvIdleTask+0x7c>)
    1b9c:	4798      	blx	r3
    1b9e:	6b20      	ldr	r0, [r4, #48]	; 0x30
    1ba0:	4b0f      	ldr	r3, [pc, #60]	; (1be0 <prvIdleTask+0x80>)
    1ba2:	4698      	mov	r8, r3
    1ba4:	4798      	blx	r3
    1ba6:	0020      	movs	r0, r4
    1ba8:	47c0      	blx	r8
    1baa:	682b      	ldr	r3, [r5, #0]
    1bac:	2b00      	cmp	r3, #0
    1bae:	d1de      	bne.n	1b6e <prvIdleTask+0xe>
    1bb0:	4b0c      	ldr	r3, [pc, #48]	; (1be4 <prvIdleTask+0x84>)
    1bb2:	681b      	ldr	r3, [r3, #0]
    1bb4:	2b01      	cmp	r3, #1
    1bb6:	d9f8      	bls.n	1baa <prvIdleTask+0x4a>
    1bb8:	4b0b      	ldr	r3, [pc, #44]	; (1be8 <prvIdleTask+0x88>)
    1bba:	4798      	blx	r3
    1bbc:	e7f5      	b.n	1baa <prvIdleTask+0x4a>
    1bbe:	46c0      	nop			; (mov r8, r8)
    1bc0:	20003b58 	.word	0x20003b58
    1bc4:	000018b9 	.word	0x000018b9
    1bc8:	20003bec 	.word	0x20003bec
    1bcc:	00001a0d 	.word	0x00001a0d
    1bd0:	00000d41 	.word	0x00000d41
    1bd4:	00000f41 	.word	0x00000f41
    1bd8:	20003c28 	.word	0x20003c28
    1bdc:	00000d59 	.word	0x00000d59
    1be0:	00000ecd 	.word	0x00000ecd
    1be4:	20003b88 	.word	0x20003b88
    1be8:	00000d29 	.word	0x00000d29

00001bec <vTaskSwitchContext>:
    1bec:	b510      	push	{r4, lr}
    1bee:	4b25      	ldr	r3, [pc, #148]	; (1c84 <vTaskSwitchContext+0x98>)
    1bf0:	681b      	ldr	r3, [r3, #0]
    1bf2:	2b00      	cmp	r3, #0
    1bf4:	d003      	beq.n	1bfe <vTaskSwitchContext+0x12>
    1bf6:	2201      	movs	r2, #1
    1bf8:	4b23      	ldr	r3, [pc, #140]	; (1c88 <vTaskSwitchContext+0x9c>)
    1bfa:	601a      	str	r2, [r3, #0]
    1bfc:	e041      	b.n	1c82 <vTaskSwitchContext+0x96>
    1bfe:	2200      	movs	r2, #0
    1c00:	4b21      	ldr	r3, [pc, #132]	; (1c88 <vTaskSwitchContext+0x9c>)
    1c02:	601a      	str	r2, [r3, #0]
    1c04:	4b21      	ldr	r3, [pc, #132]	; (1c8c <vTaskSwitchContext+0xa0>)
    1c06:	681b      	ldr	r3, [r3, #0]
    1c08:	009a      	lsls	r2, r3, #2
    1c0a:	18d3      	adds	r3, r2, r3
    1c0c:	009b      	lsls	r3, r3, #2
    1c0e:	4a20      	ldr	r2, [pc, #128]	; (1c90 <vTaskSwitchContext+0xa4>)
    1c10:	589b      	ldr	r3, [r3, r2]
    1c12:	2b00      	cmp	r3, #0
    1c14:	d116      	bne.n	1c44 <vTaskSwitchContext+0x58>
    1c16:	4b1d      	ldr	r3, [pc, #116]	; (1c8c <vTaskSwitchContext+0xa0>)
    1c18:	681b      	ldr	r3, [r3, #0]
    1c1a:	2b00      	cmp	r3, #0
    1c1c:	d006      	beq.n	1c2c <vTaskSwitchContext+0x40>
    1c1e:	4a1b      	ldr	r2, [pc, #108]	; (1c8c <vTaskSwitchContext+0xa0>)
    1c20:	4c1b      	ldr	r4, [pc, #108]	; (1c90 <vTaskSwitchContext+0xa4>)
    1c22:	0010      	movs	r0, r2
    1c24:	e004      	b.n	1c30 <vTaskSwitchContext+0x44>
    1c26:	6803      	ldr	r3, [r0, #0]
    1c28:	2b00      	cmp	r3, #0
    1c2a:	d101      	bne.n	1c30 <vTaskSwitchContext+0x44>
    1c2c:	b672      	cpsid	i
    1c2e:	e7fe      	b.n	1c2e <vTaskSwitchContext+0x42>
    1c30:	6813      	ldr	r3, [r2, #0]
    1c32:	3b01      	subs	r3, #1
    1c34:	6013      	str	r3, [r2, #0]
    1c36:	6813      	ldr	r3, [r2, #0]
    1c38:	0099      	lsls	r1, r3, #2
    1c3a:	18cb      	adds	r3, r1, r3
    1c3c:	009b      	lsls	r3, r3, #2
    1c3e:	591b      	ldr	r3, [r3, r4]
    1c40:	2b00      	cmp	r3, #0
    1c42:	d0f0      	beq.n	1c26 <vTaskSwitchContext+0x3a>
    1c44:	4b11      	ldr	r3, [pc, #68]	; (1c8c <vTaskSwitchContext+0xa0>)
    1c46:	681b      	ldr	r3, [r3, #0]
    1c48:	4c11      	ldr	r4, [pc, #68]	; (1c90 <vTaskSwitchContext+0xa4>)
    1c4a:	009a      	lsls	r2, r3, #2
    1c4c:	18d1      	adds	r1, r2, r3
    1c4e:	0089      	lsls	r1, r1, #2
    1c50:	1861      	adds	r1, r4, r1
    1c52:	6848      	ldr	r0, [r1, #4]
    1c54:	6840      	ldr	r0, [r0, #4]
    1c56:	6048      	str	r0, [r1, #4]
    1c58:	18d2      	adds	r2, r2, r3
    1c5a:	0092      	lsls	r2, r2, #2
    1c5c:	3208      	adds	r2, #8
    1c5e:	18a2      	adds	r2, r4, r2
    1c60:	4290      	cmp	r0, r2
    1c62:	d105      	bne.n	1c70 <vTaskSwitchContext+0x84>
    1c64:	6841      	ldr	r1, [r0, #4]
    1c66:	009a      	lsls	r2, r3, #2
    1c68:	18d2      	adds	r2, r2, r3
    1c6a:	0092      	lsls	r2, r2, #2
    1c6c:	18a2      	adds	r2, r4, r2
    1c6e:	6051      	str	r1, [r2, #4]
    1c70:	009a      	lsls	r2, r3, #2
    1c72:	18d3      	adds	r3, r2, r3
    1c74:	009b      	lsls	r3, r3, #2
    1c76:	4a06      	ldr	r2, [pc, #24]	; (1c90 <vTaskSwitchContext+0xa4>)
    1c78:	18d3      	adds	r3, r2, r3
    1c7a:	685b      	ldr	r3, [r3, #4]
    1c7c:	68da      	ldr	r2, [r3, #12]
    1c7e:	4b05      	ldr	r3, [pc, #20]	; (1c94 <vTaskSwitchContext+0xa8>)
    1c80:	601a      	str	r2, [r3, #0]
    1c82:	bd10      	pop	{r4, pc}
    1c84:	20003c18 	.word	0x20003c18
    1c88:	20003c44 	.word	0x20003c44
    1c8c:	20003c40 	.word	0x20003c40
    1c90:	20003b88 	.word	0x20003b88
    1c94:	20003c00 	.word	0x20003c00

00001c98 <vTaskPlaceOnEventList>:
    1c98:	b570      	push	{r4, r5, r6, lr}
    1c9a:	000c      	movs	r4, r1
    1c9c:	2800      	cmp	r0, #0
    1c9e:	d101      	bne.n	1ca4 <vTaskPlaceOnEventList+0xc>
    1ca0:	b672      	cpsid	i
    1ca2:	e7fe      	b.n	1ca2 <vTaskPlaceOnEventList+0xa>
    1ca4:	4d0b      	ldr	r5, [pc, #44]	; (1cd4 <vTaskPlaceOnEventList+0x3c>)
    1ca6:	6829      	ldr	r1, [r5, #0]
    1ca8:	3118      	adds	r1, #24
    1caa:	4b0b      	ldr	r3, [pc, #44]	; (1cd8 <vTaskPlaceOnEventList+0x40>)
    1cac:	4798      	blx	r3
    1cae:	6828      	ldr	r0, [r5, #0]
    1cb0:	3004      	adds	r0, #4
    1cb2:	4b0a      	ldr	r3, [pc, #40]	; (1cdc <vTaskPlaceOnEventList+0x44>)
    1cb4:	4798      	blx	r3
    1cb6:	1c63      	adds	r3, r4, #1
    1cb8:	d106      	bne.n	1cc8 <vTaskPlaceOnEventList+0x30>
    1cba:	4b06      	ldr	r3, [pc, #24]	; (1cd4 <vTaskPlaceOnEventList+0x3c>)
    1cbc:	6819      	ldr	r1, [r3, #0]
    1cbe:	3104      	adds	r1, #4
    1cc0:	4807      	ldr	r0, [pc, #28]	; (1ce0 <vTaskPlaceOnEventList+0x48>)
    1cc2:	4b08      	ldr	r3, [pc, #32]	; (1ce4 <vTaskPlaceOnEventList+0x4c>)
    1cc4:	4798      	blx	r3
    1cc6:	e004      	b.n	1cd2 <vTaskPlaceOnEventList+0x3a>
    1cc8:	4b07      	ldr	r3, [pc, #28]	; (1ce8 <vTaskPlaceOnEventList+0x50>)
    1cca:	6818      	ldr	r0, [r3, #0]
    1ccc:	1820      	adds	r0, r4, r0
    1cce:	4b07      	ldr	r3, [pc, #28]	; (1cec <vTaskPlaceOnEventList+0x54>)
    1cd0:	4798      	blx	r3
    1cd2:	bd70      	pop	{r4, r5, r6, pc}
    1cd4:	20003c00 	.word	0x20003c00
    1cd8:	00000f11 	.word	0x00000f11
    1cdc:	00000f41 	.word	0x00000f41
    1ce0:	20003c2c 	.word	0x20003c2c
    1ce4:	00000ef9 	.word	0x00000ef9
    1ce8:	20003c1c 	.word	0x20003c1c
    1cec:	00001615 	.word	0x00001615

00001cf0 <vTaskPlaceOnEventListRestricted>:
    1cf0:	b570      	push	{r4, r5, r6, lr}
    1cf2:	000c      	movs	r4, r1
    1cf4:	2800      	cmp	r0, #0
    1cf6:	d101      	bne.n	1cfc <vTaskPlaceOnEventListRestricted+0xc>
    1cf8:	b672      	cpsid	i
    1cfa:	e7fe      	b.n	1cfa <vTaskPlaceOnEventListRestricted+0xa>
    1cfc:	4d07      	ldr	r5, [pc, #28]	; (1d1c <vTaskPlaceOnEventListRestricted+0x2c>)
    1cfe:	6829      	ldr	r1, [r5, #0]
    1d00:	3118      	adds	r1, #24
    1d02:	4b07      	ldr	r3, [pc, #28]	; (1d20 <vTaskPlaceOnEventListRestricted+0x30>)
    1d04:	4798      	blx	r3
    1d06:	6828      	ldr	r0, [r5, #0]
    1d08:	3004      	adds	r0, #4
    1d0a:	4b06      	ldr	r3, [pc, #24]	; (1d24 <vTaskPlaceOnEventListRestricted+0x34>)
    1d0c:	4798      	blx	r3
    1d0e:	4b06      	ldr	r3, [pc, #24]	; (1d28 <vTaskPlaceOnEventListRestricted+0x38>)
    1d10:	6818      	ldr	r0, [r3, #0]
    1d12:	1900      	adds	r0, r0, r4
    1d14:	4b05      	ldr	r3, [pc, #20]	; (1d2c <vTaskPlaceOnEventListRestricted+0x3c>)
    1d16:	4798      	blx	r3
    1d18:	bd70      	pop	{r4, r5, r6, pc}
    1d1a:	46c0      	nop			; (mov r8, r8)
    1d1c:	20003c00 	.word	0x20003c00
    1d20:	00000ef9 	.word	0x00000ef9
    1d24:	00000f41 	.word	0x00000f41
    1d28:	20003c1c 	.word	0x20003c1c
    1d2c:	00001615 	.word	0x00001615

00001d30 <xTaskRemoveFromEventList>:
    1d30:	b570      	push	{r4, r5, r6, lr}
    1d32:	68c3      	ldr	r3, [r0, #12]
    1d34:	68dd      	ldr	r5, [r3, #12]
    1d36:	2d00      	cmp	r5, #0
    1d38:	d101      	bne.n	1d3e <xTaskRemoveFromEventList+0xe>
    1d3a:	b672      	cpsid	i
    1d3c:	e7fe      	b.n	1d3c <xTaskRemoveFromEventList+0xc>
    1d3e:	002c      	movs	r4, r5
    1d40:	3418      	adds	r4, #24
    1d42:	0020      	movs	r0, r4
    1d44:	4b14      	ldr	r3, [pc, #80]	; (1d98 <xTaskRemoveFromEventList+0x68>)
    1d46:	4798      	blx	r3
    1d48:	4b14      	ldr	r3, [pc, #80]	; (1d9c <xTaskRemoveFromEventList+0x6c>)
    1d4a:	681b      	ldr	r3, [r3, #0]
    1d4c:	2b00      	cmp	r3, #0
    1d4e:	d113      	bne.n	1d78 <xTaskRemoveFromEventList+0x48>
    1d50:	1d2c      	adds	r4, r5, #4
    1d52:	0020      	movs	r0, r4
    1d54:	4b10      	ldr	r3, [pc, #64]	; (1d98 <xTaskRemoveFromEventList+0x68>)
    1d56:	4798      	blx	r3
    1d58:	6aeb      	ldr	r3, [r5, #44]	; 0x2c
    1d5a:	4a11      	ldr	r2, [pc, #68]	; (1da0 <xTaskRemoveFromEventList+0x70>)
    1d5c:	6812      	ldr	r2, [r2, #0]
    1d5e:	4293      	cmp	r3, r2
    1d60:	d901      	bls.n	1d66 <xTaskRemoveFromEventList+0x36>
    1d62:	4a0f      	ldr	r2, [pc, #60]	; (1da0 <xTaskRemoveFromEventList+0x70>)
    1d64:	6013      	str	r3, [r2, #0]
    1d66:	0098      	lsls	r0, r3, #2
    1d68:	18c3      	adds	r3, r0, r3
    1d6a:	009b      	lsls	r3, r3, #2
    1d6c:	480d      	ldr	r0, [pc, #52]	; (1da4 <xTaskRemoveFromEventList+0x74>)
    1d6e:	18c0      	adds	r0, r0, r3
    1d70:	0021      	movs	r1, r4
    1d72:	4b0d      	ldr	r3, [pc, #52]	; (1da8 <xTaskRemoveFromEventList+0x78>)
    1d74:	4798      	blx	r3
    1d76:	e003      	b.n	1d80 <xTaskRemoveFromEventList+0x50>
    1d78:	0021      	movs	r1, r4
    1d7a:	480c      	ldr	r0, [pc, #48]	; (1dac <xTaskRemoveFromEventList+0x7c>)
    1d7c:	4b0a      	ldr	r3, [pc, #40]	; (1da8 <xTaskRemoveFromEventList+0x78>)
    1d7e:	4798      	blx	r3
    1d80:	4b0b      	ldr	r3, [pc, #44]	; (1db0 <xTaskRemoveFromEventList+0x80>)
    1d82:	681b      	ldr	r3, [r3, #0]
    1d84:	6aea      	ldr	r2, [r5, #44]	; 0x2c
    1d86:	6adb      	ldr	r3, [r3, #44]	; 0x2c
    1d88:	2000      	movs	r0, #0
    1d8a:	429a      	cmp	r2, r3
    1d8c:	d903      	bls.n	1d96 <xTaskRemoveFromEventList+0x66>
    1d8e:	2201      	movs	r2, #1
    1d90:	4b08      	ldr	r3, [pc, #32]	; (1db4 <xTaskRemoveFromEventList+0x84>)
    1d92:	601a      	str	r2, [r3, #0]
    1d94:	3001      	adds	r0, #1
    1d96:	bd70      	pop	{r4, r5, r6, pc}
    1d98:	00000f41 	.word	0x00000f41
    1d9c:	20003c18 	.word	0x20003c18
    1da0:	20003c40 	.word	0x20003c40
    1da4:	20003b88 	.word	0x20003b88
    1da8:	00000ef9 	.word	0x00000ef9
    1dac:	20003c04 	.word	0x20003c04
    1db0:	20003c00 	.word	0x20003c00
    1db4:	20003c44 	.word	0x20003c44

00001db8 <vTaskSetTimeOutState>:
    1db8:	2800      	cmp	r0, #0
    1dba:	d101      	bne.n	1dc0 <vTaskSetTimeOutState+0x8>
    1dbc:	b672      	cpsid	i
    1dbe:	e7fe      	b.n	1dbe <vTaskSetTimeOutState+0x6>
    1dc0:	4b03      	ldr	r3, [pc, #12]	; (1dd0 <vTaskSetTimeOutState+0x18>)
    1dc2:	681b      	ldr	r3, [r3, #0]
    1dc4:	6003      	str	r3, [r0, #0]
    1dc6:	4b03      	ldr	r3, [pc, #12]	; (1dd4 <vTaskSetTimeOutState+0x1c>)
    1dc8:	681b      	ldr	r3, [r3, #0]
    1dca:	6043      	str	r3, [r0, #4]
    1dcc:	4770      	bx	lr
    1dce:	46c0      	nop			; (mov r8, r8)
    1dd0:	20003b4c 	.word	0x20003b4c
    1dd4:	20003c1c 	.word	0x20003c1c

00001dd8 <xTaskCheckForTimeOut>:
    1dd8:	b570      	push	{r4, r5, r6, lr}
    1dda:	0004      	movs	r4, r0
    1ddc:	000e      	movs	r6, r1
    1dde:	2800      	cmp	r0, #0
    1de0:	d101      	bne.n	1de6 <xTaskCheckForTimeOut+0xe>
    1de2:	b672      	cpsid	i
    1de4:	e7fe      	b.n	1de4 <xTaskCheckForTimeOut+0xc>
    1de6:	2900      	cmp	r1, #0
    1de8:	d101      	bne.n	1dee <xTaskCheckForTimeOut+0x16>
    1dea:	b672      	cpsid	i
    1dec:	e7fe      	b.n	1dec <xTaskCheckForTimeOut+0x14>
    1dee:	4b11      	ldr	r3, [pc, #68]	; (1e34 <xTaskCheckForTimeOut+0x5c>)
    1df0:	4798      	blx	r3
    1df2:	4b11      	ldr	r3, [pc, #68]	; (1e38 <xTaskCheckForTimeOut+0x60>)
    1df4:	6819      	ldr	r1, [r3, #0]
    1df6:	6833      	ldr	r3, [r6, #0]
    1df8:	1c5a      	adds	r2, r3, #1
    1dfa:	d015      	beq.n	1e28 <xTaskCheckForTimeOut+0x50>
    1dfc:	4a0f      	ldr	r2, [pc, #60]	; (1e3c <xTaskCheckForTimeOut+0x64>)
    1dfe:	6812      	ldr	r2, [r2, #0]
    1e00:	6820      	ldr	r0, [r4, #0]
    1e02:	4290      	cmp	r0, r2
    1e04:	d003      	beq.n	1e0e <xTaskCheckForTimeOut+0x36>
    1e06:	2501      	movs	r5, #1
    1e08:	6862      	ldr	r2, [r4, #4]
    1e0a:	4291      	cmp	r1, r2
    1e0c:	d20d      	bcs.n	1e2a <xTaskCheckForTimeOut+0x52>
    1e0e:	6862      	ldr	r2, [r4, #4]
    1e10:	1a88      	subs	r0, r1, r2
    1e12:	2501      	movs	r5, #1
    1e14:	4283      	cmp	r3, r0
    1e16:	d908      	bls.n	1e2a <xTaskCheckForTimeOut+0x52>
    1e18:	1a52      	subs	r2, r2, r1
    1e1a:	18d3      	adds	r3, r2, r3
    1e1c:	6033      	str	r3, [r6, #0]
    1e1e:	0020      	movs	r0, r4
    1e20:	4b07      	ldr	r3, [pc, #28]	; (1e40 <xTaskCheckForTimeOut+0x68>)
    1e22:	4798      	blx	r3
    1e24:	2500      	movs	r5, #0
    1e26:	e000      	b.n	1e2a <xTaskCheckForTimeOut+0x52>
    1e28:	2500      	movs	r5, #0
    1e2a:	4b06      	ldr	r3, [pc, #24]	; (1e44 <xTaskCheckForTimeOut+0x6c>)
    1e2c:	4798      	blx	r3
    1e2e:	0028      	movs	r0, r5
    1e30:	bd70      	pop	{r4, r5, r6, pc}
    1e32:	46c0      	nop			; (mov r8, r8)
    1e34:	00000d41 	.word	0x00000d41
    1e38:	20003c1c 	.word	0x20003c1c
    1e3c:	20003b4c 	.word	0x20003b4c
    1e40:	00001db9 	.word	0x00001db9
    1e44:	00000d59 	.word	0x00000d59

00001e48 <vTaskMissedYield>:
    1e48:	2201      	movs	r2, #1
    1e4a:	4b01      	ldr	r3, [pc, #4]	; (1e50 <vTaskMissedYield+0x8>)
    1e4c:	601a      	str	r2, [r3, #0]
    1e4e:	4770      	bx	lr
    1e50:	20003c44 	.word	0x20003c44

00001e54 <xTaskGetCurrentTaskHandle>:
    1e54:	4b01      	ldr	r3, [pc, #4]	; (1e5c <xTaskGetCurrentTaskHandle+0x8>)
    1e56:	6818      	ldr	r0, [r3, #0]
    1e58:	4770      	bx	lr
    1e5a:	46c0      	nop			; (mov r8, r8)
    1e5c:	20003c00 	.word	0x20003c00

00001e60 <xTaskGetSchedulerState>:
    1e60:	4b05      	ldr	r3, [pc, #20]	; (1e78 <xTaskGetSchedulerState+0x18>)
    1e62:	681b      	ldr	r3, [r3, #0]
    1e64:	2001      	movs	r0, #1
    1e66:	2b00      	cmp	r3, #0
    1e68:	d004      	beq.n	1e74 <xTaskGetSchedulerState+0x14>
    1e6a:	4b04      	ldr	r3, [pc, #16]	; (1e7c <xTaskGetSchedulerState+0x1c>)
    1e6c:	6818      	ldr	r0, [r3, #0]
    1e6e:	4243      	negs	r3, r0
    1e70:	4158      	adcs	r0, r3
    1e72:	0040      	lsls	r0, r0, #1
    1e74:	4770      	bx	lr
    1e76:	46c0      	nop			; (mov r8, r8)
    1e78:	20003b54 	.word	0x20003b54
    1e7c:	20003c18 	.word	0x20003c18

00001e80 <vTaskPriorityInherit>:
    1e80:	b570      	push	{r4, r5, r6, lr}
    1e82:	1e04      	subs	r4, r0, #0
    1e84:	d031      	beq.n	1eea <vTaskPriorityInherit+0x6a>
    1e86:	6ac3      	ldr	r3, [r0, #44]	; 0x2c
    1e88:	4a18      	ldr	r2, [pc, #96]	; (1eec <vTaskPriorityInherit+0x6c>)
    1e8a:	6812      	ldr	r2, [r2, #0]
    1e8c:	6ad2      	ldr	r2, [r2, #44]	; 0x2c
    1e8e:	4293      	cmp	r3, r2
    1e90:	d22b      	bcs.n	1eea <vTaskPriorityInherit+0x6a>
    1e92:	6982      	ldr	r2, [r0, #24]
    1e94:	2a00      	cmp	r2, #0
    1e96:	db05      	blt.n	1ea4 <vTaskPriorityInherit+0x24>
    1e98:	4a14      	ldr	r2, [pc, #80]	; (1eec <vTaskPriorityInherit+0x6c>)
    1e9a:	6812      	ldr	r2, [r2, #0]
    1e9c:	6ad1      	ldr	r1, [r2, #44]	; 0x2c
    1e9e:	2205      	movs	r2, #5
    1ea0:	1a52      	subs	r2, r2, r1
    1ea2:	6182      	str	r2, [r0, #24]
    1ea4:	009a      	lsls	r2, r3, #2
    1ea6:	18d3      	adds	r3, r2, r3
    1ea8:	009b      	lsls	r3, r3, #2
    1eaa:	4a11      	ldr	r2, [pc, #68]	; (1ef0 <vTaskPriorityInherit+0x70>)
    1eac:	18d3      	adds	r3, r2, r3
    1eae:	6962      	ldr	r2, [r4, #20]
    1eb0:	429a      	cmp	r2, r3
    1eb2:	d116      	bne.n	1ee2 <vTaskPriorityInherit+0x62>
    1eb4:	1d25      	adds	r5, r4, #4
    1eb6:	0028      	movs	r0, r5
    1eb8:	4b0e      	ldr	r3, [pc, #56]	; (1ef4 <vTaskPriorityInherit+0x74>)
    1eba:	4798      	blx	r3
    1ebc:	4b0b      	ldr	r3, [pc, #44]	; (1eec <vTaskPriorityInherit+0x6c>)
    1ebe:	681b      	ldr	r3, [r3, #0]
    1ec0:	6adb      	ldr	r3, [r3, #44]	; 0x2c
    1ec2:	62e3      	str	r3, [r4, #44]	; 0x2c
    1ec4:	4a0c      	ldr	r2, [pc, #48]	; (1ef8 <vTaskPriorityInherit+0x78>)
    1ec6:	6812      	ldr	r2, [r2, #0]
    1ec8:	4293      	cmp	r3, r2
    1eca:	d901      	bls.n	1ed0 <vTaskPriorityInherit+0x50>
    1ecc:	4a0a      	ldr	r2, [pc, #40]	; (1ef8 <vTaskPriorityInherit+0x78>)
    1ece:	6013      	str	r3, [r2, #0]
    1ed0:	0098      	lsls	r0, r3, #2
    1ed2:	18c3      	adds	r3, r0, r3
    1ed4:	009b      	lsls	r3, r3, #2
    1ed6:	4806      	ldr	r0, [pc, #24]	; (1ef0 <vTaskPriorityInherit+0x70>)
    1ed8:	18c0      	adds	r0, r0, r3
    1eda:	0029      	movs	r1, r5
    1edc:	4b07      	ldr	r3, [pc, #28]	; (1efc <vTaskPriorityInherit+0x7c>)
    1ede:	4798      	blx	r3
    1ee0:	e003      	b.n	1eea <vTaskPriorityInherit+0x6a>
    1ee2:	4b02      	ldr	r3, [pc, #8]	; (1eec <vTaskPriorityInherit+0x6c>)
    1ee4:	681b      	ldr	r3, [r3, #0]
    1ee6:	6adb      	ldr	r3, [r3, #44]	; 0x2c
    1ee8:	62e3      	str	r3, [r4, #44]	; 0x2c
    1eea:	bd70      	pop	{r4, r5, r6, pc}
    1eec:	20003c00 	.word	0x20003c00
    1ef0:	20003b88 	.word	0x20003b88
    1ef4:	00000f41 	.word	0x00000f41
    1ef8:	20003c40 	.word	0x20003c40
    1efc:	00000ef9 	.word	0x00000ef9

00001f00 <vTaskPriorityDisinherit>:
    1f00:	b570      	push	{r4, r5, r6, lr}
    1f02:	1e05      	subs	r5, r0, #0
    1f04:	d01d      	beq.n	1f42 <vTaskPriorityDisinherit+0x42>
    1f06:	6ac3      	ldr	r3, [r0, #44]	; 0x2c
    1f08:	6bc2      	ldr	r2, [r0, #60]	; 0x3c
    1f0a:	4293      	cmp	r3, r2
    1f0c:	d019      	beq.n	1f42 <vTaskPriorityDisinherit+0x42>
    1f0e:	1d04      	adds	r4, r0, #4
    1f10:	0020      	movs	r0, r4
    1f12:	4b0c      	ldr	r3, [pc, #48]	; (1f44 <vTaskPriorityDisinherit+0x44>)
    1f14:	4798      	blx	r3
    1f16:	6be8      	ldr	r0, [r5, #60]	; 0x3c
    1f18:	62e8      	str	r0, [r5, #44]	; 0x2c
    1f1a:	69ab      	ldr	r3, [r5, #24]
    1f1c:	2b00      	cmp	r3, #0
    1f1e:	db02      	blt.n	1f26 <vTaskPriorityDisinherit+0x26>
    1f20:	2305      	movs	r3, #5
    1f22:	1a1b      	subs	r3, r3, r0
    1f24:	61ab      	str	r3, [r5, #24]
    1f26:	4b08      	ldr	r3, [pc, #32]	; (1f48 <vTaskPriorityDisinherit+0x48>)
    1f28:	681b      	ldr	r3, [r3, #0]
    1f2a:	4298      	cmp	r0, r3
    1f2c:	d901      	bls.n	1f32 <vTaskPriorityDisinherit+0x32>
    1f2e:	4b06      	ldr	r3, [pc, #24]	; (1f48 <vTaskPriorityDisinherit+0x48>)
    1f30:	6018      	str	r0, [r3, #0]
    1f32:	0083      	lsls	r3, r0, #2
    1f34:	1818      	adds	r0, r3, r0
    1f36:	0080      	lsls	r0, r0, #2
    1f38:	4b04      	ldr	r3, [pc, #16]	; (1f4c <vTaskPriorityDisinherit+0x4c>)
    1f3a:	1818      	adds	r0, r3, r0
    1f3c:	0021      	movs	r1, r4
    1f3e:	4b04      	ldr	r3, [pc, #16]	; (1f50 <vTaskPriorityDisinherit+0x50>)
    1f40:	4798      	blx	r3
    1f42:	bd70      	pop	{r4, r5, r6, pc}
    1f44:	00000f41 	.word	0x00000f41
    1f48:	20003c40 	.word	0x20003c40
    1f4c:	20003b88 	.word	0x20003b88
    1f50:	00000ef9 	.word	0x00000ef9

00001f54 <prvInsertTimerInActiveList>:
    1f54:	b510      	push	{r4, lr}
    1f56:	6041      	str	r1, [r0, #4]
    1f58:	6100      	str	r0, [r0, #16]
    1f5a:	4291      	cmp	r1, r2
    1f5c:	d80b      	bhi.n	1f76 <prvInsertTimerInActiveList+0x22>
    1f5e:	1ad2      	subs	r2, r2, r3
    1f60:	2401      	movs	r4, #1
    1f62:	6983      	ldr	r3, [r0, #24]
    1f64:	429a      	cmp	r2, r3
    1f66:	d211      	bcs.n	1f8c <prvInsertTimerInActiveList+0x38>
    1f68:	1d01      	adds	r1, r0, #4
    1f6a:	4b09      	ldr	r3, [pc, #36]	; (1f90 <prvInsertTimerInActiveList+0x3c>)
    1f6c:	6818      	ldr	r0, [r3, #0]
    1f6e:	4b09      	ldr	r3, [pc, #36]	; (1f94 <prvInsertTimerInActiveList+0x40>)
    1f70:	4798      	blx	r3
    1f72:	2400      	movs	r4, #0
    1f74:	e00a      	b.n	1f8c <prvInsertTimerInActiveList+0x38>
    1f76:	429a      	cmp	r2, r3
    1f78:	d202      	bcs.n	1f80 <prvInsertTimerInActiveList+0x2c>
    1f7a:	2401      	movs	r4, #1
    1f7c:	4299      	cmp	r1, r3
    1f7e:	d205      	bcs.n	1f8c <prvInsertTimerInActiveList+0x38>
    1f80:	1d01      	adds	r1, r0, #4
    1f82:	4b05      	ldr	r3, [pc, #20]	; (1f98 <prvInsertTimerInActiveList+0x44>)
    1f84:	6818      	ldr	r0, [r3, #0]
    1f86:	4b03      	ldr	r3, [pc, #12]	; (1f94 <prvInsertTimerInActiveList+0x40>)
    1f88:	4798      	blx	r3
    1f8a:	2400      	movs	r4, #0
    1f8c:	0020      	movs	r0, r4
    1f8e:	bd10      	pop	{r4, pc}
    1f90:	20003c7c 	.word	0x20003c7c
    1f94:	00000f11 	.word	0x00000f11
    1f98:	20003c48 	.word	0x20003c48

00001f9c <prvCheckForValidListAndQueue>:
    1f9c:	b570      	push	{r4, r5, r6, lr}
    1f9e:	4b10      	ldr	r3, [pc, #64]	; (1fe0 <prvCheckForValidListAndQueue+0x44>)
    1fa0:	4798      	blx	r3
    1fa2:	4b10      	ldr	r3, [pc, #64]	; (1fe4 <prvCheckForValidListAndQueue+0x48>)
    1fa4:	681b      	ldr	r3, [r3, #0]
    1fa6:	2b00      	cmp	r3, #0
    1fa8:	d116      	bne.n	1fd8 <prvCheckForValidListAndQueue+0x3c>
    1faa:	4d0f      	ldr	r5, [pc, #60]	; (1fe8 <prvCheckForValidListAndQueue+0x4c>)
    1fac:	0028      	movs	r0, r5
    1fae:	4e0f      	ldr	r6, [pc, #60]	; (1fec <prvCheckForValidListAndQueue+0x50>)
    1fb0:	47b0      	blx	r6
    1fb2:	4c0f      	ldr	r4, [pc, #60]	; (1ff0 <prvCheckForValidListAndQueue+0x54>)
    1fb4:	0020      	movs	r0, r4
    1fb6:	47b0      	blx	r6
    1fb8:	4b0e      	ldr	r3, [pc, #56]	; (1ff4 <prvCheckForValidListAndQueue+0x58>)
    1fba:	601d      	str	r5, [r3, #0]
    1fbc:	4b0e      	ldr	r3, [pc, #56]	; (1ff8 <prvCheckForValidListAndQueue+0x5c>)
    1fbe:	601c      	str	r4, [r3, #0]
    1fc0:	2200      	movs	r2, #0
    1fc2:	210c      	movs	r1, #12
    1fc4:	2002      	movs	r0, #2
    1fc6:	4b0d      	ldr	r3, [pc, #52]	; (1ffc <prvCheckForValidListAndQueue+0x60>)
    1fc8:	4798      	blx	r3
    1fca:	2800      	cmp	r0, #0
    1fcc:	d002      	beq.n	1fd4 <prvCheckForValidListAndQueue+0x38>
    1fce:	4b05      	ldr	r3, [pc, #20]	; (1fe4 <prvCheckForValidListAndQueue+0x48>)
    1fd0:	6018      	str	r0, [r3, #0]
    1fd2:	e001      	b.n	1fd8 <prvCheckForValidListAndQueue+0x3c>
    1fd4:	b672      	cpsid	i
    1fd6:	e7fe      	b.n	1fd6 <prvCheckForValidListAndQueue+0x3a>
    1fd8:	4b09      	ldr	r3, [pc, #36]	; (2000 <STACK_SIZE>)
    1fda:	4798      	blx	r3
    1fdc:	bd70      	pop	{r4, r5, r6, pc}
    1fde:	46c0      	nop			; (mov r8, r8)
    1fe0:	00000d41 	.word	0x00000d41
    1fe4:	20003c78 	.word	0x20003c78
    1fe8:	20003c4c 	.word	0x20003c4c
    1fec:	00000ed9 	.word	0x00000ed9
    1ff0:	20003c60 	.word	0x20003c60
    1ff4:	20003c48 	.word	0x20003c48
    1ff8:	20003c7c 	.word	0x20003c7c
    1ffc:	0000117d 	.word	0x0000117d
    2000:	00000d59 	.word	0x00000d59

00002004 <xTimerCreateTimerTask>:
    2004:	b510      	push	{r4, lr}
    2006:	b084      	sub	sp, #16
    2008:	4b0b      	ldr	r3, [pc, #44]	; (2038 <xTimerCreateTimerTask+0x34>)
    200a:	4798      	blx	r3
    200c:	4b0b      	ldr	r3, [pc, #44]	; (203c <xTimerCreateTimerTask+0x38>)
    200e:	681b      	ldr	r3, [r3, #0]
    2010:	2b00      	cmp	r3, #0
    2012:	d00d      	beq.n	2030 <xTimerCreateTimerTask+0x2c>
    2014:	2300      	movs	r3, #0
    2016:	9303      	str	r3, [sp, #12]
    2018:	9302      	str	r3, [sp, #8]
    201a:	9301      	str	r3, [sp, #4]
    201c:	3302      	adds	r3, #2
    201e:	9300      	str	r3, [sp, #0]
    2020:	2300      	movs	r3, #0
    2022:	2250      	movs	r2, #80	; 0x50
    2024:	4906      	ldr	r1, [pc, #24]	; (2040 <xTimerCreateTimerTask+0x3c>)
    2026:	4807      	ldr	r0, [pc, #28]	; (2044 <xTimerCreateTimerTask+0x40>)
    2028:	4c07      	ldr	r4, [pc, #28]	; (2048 <xTimerCreateTimerTask+0x44>)
    202a:	47a0      	blx	r4
    202c:	2800      	cmp	r0, #0
    202e:	d101      	bne.n	2034 <xTimerCreateTimerTask+0x30>
    2030:	b672      	cpsid	i
    2032:	e7fe      	b.n	2032 <xTimerCreateTimerTask+0x2e>
    2034:	b004      	add	sp, #16
    2036:	bd10      	pop	{r4, pc}
    2038:	00001f9d 	.word	0x00001f9d
    203c:	20003c78 	.word	0x20003c78
    2040:	0000657c 	.word	0x0000657c
    2044:	0000216d 	.word	0x0000216d
    2048:	0000166d 	.word	0x0000166d

0000204c <xTimerGenericCommand>:
    204c:	b530      	push	{r4, r5, lr}
    204e:	b085      	sub	sp, #20
    2050:	001d      	movs	r5, r3
    2052:	4b13      	ldr	r3, [pc, #76]	; (20a0 <xTimerGenericCommand+0x54>)
    2054:	681c      	ldr	r4, [r3, #0]
    2056:	2c00      	cmp	r4, #0
    2058:	d01f      	beq.n	209a <xTimerGenericCommand+0x4e>
    205a:	9101      	str	r1, [sp, #4]
    205c:	9202      	str	r2, [sp, #8]
    205e:	9003      	str	r0, [sp, #12]
    2060:	2905      	cmp	r1, #5
    2062:	dc13      	bgt.n	208c <xTimerGenericCommand+0x40>
    2064:	4b0f      	ldr	r3, [pc, #60]	; (20a4 <xTimerGenericCommand+0x58>)
    2066:	4798      	blx	r3
    2068:	2802      	cmp	r0, #2
    206a:	d107      	bne.n	207c <xTimerGenericCommand+0x30>
    206c:	4b0c      	ldr	r3, [pc, #48]	; (20a0 <xTimerGenericCommand+0x54>)
    206e:	6818      	ldr	r0, [r3, #0]
    2070:	2300      	movs	r3, #0
    2072:	9a08      	ldr	r2, [sp, #32]
    2074:	a901      	add	r1, sp, #4
    2076:	4c0c      	ldr	r4, [pc, #48]	; (20a8 <xTimerGenericCommand+0x5c>)
    2078:	47a0      	blx	r4
    207a:	e00f      	b.n	209c <xTimerGenericCommand+0x50>
    207c:	4b08      	ldr	r3, [pc, #32]	; (20a0 <xTimerGenericCommand+0x54>)
    207e:	6818      	ldr	r0, [r3, #0]
    2080:	2300      	movs	r3, #0
    2082:	2200      	movs	r2, #0
    2084:	a901      	add	r1, sp, #4
    2086:	4c08      	ldr	r4, [pc, #32]	; (20a8 <xTimerGenericCommand+0x5c>)
    2088:	47a0      	blx	r4
    208a:	e007      	b.n	209c <xTimerGenericCommand+0x50>
    208c:	2300      	movs	r3, #0
    208e:	002a      	movs	r2, r5
    2090:	a901      	add	r1, sp, #4
    2092:	0020      	movs	r0, r4
    2094:	4c05      	ldr	r4, [pc, #20]	; (20ac <xTimerGenericCommand+0x60>)
    2096:	47a0      	blx	r4
    2098:	e000      	b.n	209c <xTimerGenericCommand+0x50>
    209a:	2000      	movs	r0, #0
    209c:	b005      	add	sp, #20
    209e:	bd30      	pop	{r4, r5, pc}
    20a0:	20003c78 	.word	0x20003c78
    20a4:	00001e61 	.word	0x00001e61
    20a8:	000011d1 	.word	0x000011d1
    20ac:	00001349 	.word	0x00001349

000020b0 <prvSampleTimeNow>:
    20b0:	b5f0      	push	{r4, r5, r6, r7, lr}
    20b2:	4657      	mov	r7, sl
    20b4:	464e      	mov	r6, r9
    20b6:	4645      	mov	r5, r8
    20b8:	b4e0      	push	{r5, r6, r7}
    20ba:	b082      	sub	sp, #8
    20bc:	4681      	mov	r9, r0
    20be:	4b24      	ldr	r3, [pc, #144]	; (2150 <prvSampleTimeNow+0xa0>)
    20c0:	4798      	blx	r3
    20c2:	4680      	mov	r8, r0
    20c4:	4b23      	ldr	r3, [pc, #140]	; (2154 <prvSampleTimeNow+0xa4>)
    20c6:	681b      	ldr	r3, [r3, #0]
    20c8:	4298      	cmp	r0, r3
    20ca:	d233      	bcs.n	2134 <prvSampleTimeNow+0x84>
    20cc:	e023      	b.n	2116 <prvSampleTimeNow+0x66>
    20ce:	68db      	ldr	r3, [r3, #12]
    20d0:	681a      	ldr	r2, [r3, #0]
    20d2:	4692      	mov	sl, r2
    20d4:	68dc      	ldr	r4, [r3, #12]
    20d6:	1d25      	adds	r5, r4, #4
    20d8:	0028      	movs	r0, r5
    20da:	47b8      	blx	r7
    20dc:	0020      	movs	r0, r4
    20de:	6a63      	ldr	r3, [r4, #36]	; 0x24
    20e0:	4798      	blx	r3
    20e2:	69e3      	ldr	r3, [r4, #28]
    20e4:	2b01      	cmp	r3, #1
    20e6:	d118      	bne.n	211a <prvSampleTimeNow+0x6a>
    20e8:	69a3      	ldr	r3, [r4, #24]
    20ea:	4453      	add	r3, sl
    20ec:	459a      	cmp	sl, r3
    20ee:	d207      	bcs.n	2100 <prvSampleTimeNow+0x50>
    20f0:	6063      	str	r3, [r4, #4]
    20f2:	6124      	str	r4, [r4, #16]
    20f4:	4b18      	ldr	r3, [pc, #96]	; (2158 <prvSampleTimeNow+0xa8>)
    20f6:	6818      	ldr	r0, [r3, #0]
    20f8:	0029      	movs	r1, r5
    20fa:	4b18      	ldr	r3, [pc, #96]	; (215c <prvSampleTimeNow+0xac>)
    20fc:	4798      	blx	r3
    20fe:	e00c      	b.n	211a <prvSampleTimeNow+0x6a>
    2100:	2300      	movs	r3, #0
    2102:	9300      	str	r3, [sp, #0]
    2104:	4652      	mov	r2, sl
    2106:	2100      	movs	r1, #0
    2108:	0020      	movs	r0, r4
    210a:	4c15      	ldr	r4, [pc, #84]	; (2160 <prvSampleTimeNow+0xb0>)
    210c:	47a0      	blx	r4
    210e:	2800      	cmp	r0, #0
    2110:	d103      	bne.n	211a <prvSampleTimeNow+0x6a>
    2112:	b672      	cpsid	i
    2114:	e7fe      	b.n	2114 <prvSampleTimeNow+0x64>
    2116:	4e10      	ldr	r6, [pc, #64]	; (2158 <prvSampleTimeNow+0xa8>)
    2118:	4f12      	ldr	r7, [pc, #72]	; (2164 <prvSampleTimeNow+0xb4>)
    211a:	6833      	ldr	r3, [r6, #0]
    211c:	681a      	ldr	r2, [r3, #0]
    211e:	2a00      	cmp	r2, #0
    2120:	d1d5      	bne.n	20ce <prvSampleTimeNow+0x1e>
    2122:	4a11      	ldr	r2, [pc, #68]	; (2168 <prvSampleTimeNow+0xb8>)
    2124:	490c      	ldr	r1, [pc, #48]	; (2158 <prvSampleTimeNow+0xa8>)
    2126:	6810      	ldr	r0, [r2, #0]
    2128:	6008      	str	r0, [r1, #0]
    212a:	6013      	str	r3, [r2, #0]
    212c:	2301      	movs	r3, #1
    212e:	464a      	mov	r2, r9
    2130:	6013      	str	r3, [r2, #0]
    2132:	e002      	b.n	213a <prvSampleTimeNow+0x8a>
    2134:	2300      	movs	r3, #0
    2136:	464a      	mov	r2, r9
    2138:	6013      	str	r3, [r2, #0]
    213a:	4b06      	ldr	r3, [pc, #24]	; (2154 <prvSampleTimeNow+0xa4>)
    213c:	4642      	mov	r2, r8
    213e:	601a      	str	r2, [r3, #0]
    2140:	4640      	mov	r0, r8
    2142:	b002      	add	sp, #8
    2144:	bc1c      	pop	{r2, r3, r4}
    2146:	4690      	mov	r8, r2
    2148:	4699      	mov	r9, r3
    214a:	46a2      	mov	sl, r4
    214c:	bdf0      	pop	{r4, r5, r6, r7, pc}
    214e:	46c0      	nop			; (mov r8, r8)
    2150:	000018c9 	.word	0x000018c9
    2154:	20003c74 	.word	0x20003c74
    2158:	20003c48 	.word	0x20003c48
    215c:	00000f11 	.word	0x00000f11
    2160:	0000204d 	.word	0x0000204d
    2164:	00000f41 	.word	0x00000f41
    2168:	20003c7c 	.word	0x20003c7c

0000216c <prvTimerTask>:
    216c:	b5f0      	push	{r4, r5, r6, r7, lr}
    216e:	465f      	mov	r7, fp
    2170:	4656      	mov	r6, sl
    2172:	464d      	mov	r5, r9
    2174:	4644      	mov	r4, r8
    2176:	b4f0      	push	{r4, r5, r6, r7}
    2178:	b089      	sub	sp, #36	; 0x24
    217a:	4b52      	ldr	r3, [pc, #328]	; (22c4 <prvTimerTask+0x158>)
    217c:	469b      	mov	fp, r3
    217e:	4b52      	ldr	r3, [pc, #328]	; (22c8 <prvTimerTask+0x15c>)
    2180:	4699      	mov	r9, r3
    2182:	4b52      	ldr	r3, [pc, #328]	; (22cc <prvTimerTask+0x160>)
    2184:	4698      	mov	r8, r3
    2186:	465b      	mov	r3, fp
    2188:	681b      	ldr	r3, [r3, #0]
    218a:	681a      	ldr	r2, [r3, #0]
    218c:	2a00      	cmp	r2, #0
    218e:	d100      	bne.n	2192 <prvTimerTask+0x26>
    2190:	e08f      	b.n	22b2 <prvTimerTask+0x146>
    2192:	68db      	ldr	r3, [r3, #12]
    2194:	681d      	ldr	r5, [r3, #0]
    2196:	4b4c      	ldr	r3, [pc, #304]	; (22c8 <prvTimerTask+0x15c>)
    2198:	4798      	blx	r3
    219a:	a805      	add	r0, sp, #20
    219c:	4b4b      	ldr	r3, [pc, #300]	; (22cc <prvTimerTask+0x160>)
    219e:	4798      	blx	r3
    21a0:	0004      	movs	r4, r0
    21a2:	9b05      	ldr	r3, [sp, #20]
    21a4:	2b00      	cmp	r3, #0
    21a6:	d131      	bne.n	220c <prvTimerTask+0xa0>
    21a8:	4285      	cmp	r5, r0
    21aa:	d823      	bhi.n	21f4 <prvTimerTask+0x88>
    21ac:	4b48      	ldr	r3, [pc, #288]	; (22d0 <prvTimerTask+0x164>)
    21ae:	4798      	blx	r3
    21b0:	4b44      	ldr	r3, [pc, #272]	; (22c4 <prvTimerTask+0x158>)
    21b2:	681b      	ldr	r3, [r3, #0]
    21b4:	68db      	ldr	r3, [r3, #12]
    21b6:	68de      	ldr	r6, [r3, #12]
    21b8:	1d30      	adds	r0, r6, #4
    21ba:	4b46      	ldr	r3, [pc, #280]	; (22d4 <prvTimerTask+0x168>)
    21bc:	4798      	blx	r3
    21be:	69f3      	ldr	r3, [r6, #28]
    21c0:	2b01      	cmp	r3, #1
    21c2:	d113      	bne.n	21ec <prvTimerTask+0x80>
    21c4:	69b3      	ldr	r3, [r6, #24]
    21c6:	18e9      	adds	r1, r5, r3
    21c8:	002b      	movs	r3, r5
    21ca:	0022      	movs	r2, r4
    21cc:	0030      	movs	r0, r6
    21ce:	4c42      	ldr	r4, [pc, #264]	; (22d8 <prvTimerTask+0x16c>)
    21d0:	47a0      	blx	r4
    21d2:	2801      	cmp	r0, #1
    21d4:	d10a      	bne.n	21ec <prvTimerTask+0x80>
    21d6:	2300      	movs	r3, #0
    21d8:	9300      	str	r3, [sp, #0]
    21da:	002a      	movs	r2, r5
    21dc:	2100      	movs	r1, #0
    21de:	0030      	movs	r0, r6
    21e0:	4c3e      	ldr	r4, [pc, #248]	; (22dc <prvTimerTask+0x170>)
    21e2:	47a0      	blx	r4
    21e4:	2800      	cmp	r0, #0
    21e6:	d101      	bne.n	21ec <prvTimerTask+0x80>
    21e8:	b672      	cpsid	i
    21ea:	e7fe      	b.n	21ea <prvTimerTask+0x7e>
    21ec:	6a73      	ldr	r3, [r6, #36]	; 0x24
    21ee:	0030      	movs	r0, r6
    21f0:	4798      	blx	r3
    21f2:	e00d      	b.n	2210 <prvTimerTask+0xa4>
    21f4:	1b29      	subs	r1, r5, r4
    21f6:	4b3a      	ldr	r3, [pc, #232]	; (22e0 <prvTimerTask+0x174>)
    21f8:	6818      	ldr	r0, [r3, #0]
    21fa:	4b3a      	ldr	r3, [pc, #232]	; (22e4 <prvTimerTask+0x178>)
    21fc:	4798      	blx	r3
    21fe:	4b34      	ldr	r3, [pc, #208]	; (22d0 <prvTimerTask+0x164>)
    2200:	4798      	blx	r3
    2202:	2800      	cmp	r0, #0
    2204:	d104      	bne.n	2210 <prvTimerTask+0xa4>
    2206:	4b38      	ldr	r3, [pc, #224]	; (22e8 <prvTimerTask+0x17c>)
    2208:	4798      	blx	r3
    220a:	e001      	b.n	2210 <prvTimerTask+0xa4>
    220c:	4b30      	ldr	r3, [pc, #192]	; (22d0 <prvTimerTask+0x164>)
    220e:	4798      	blx	r3
    2210:	4d33      	ldr	r5, [pc, #204]	; (22e0 <prvTimerTask+0x174>)
    2212:	4c36      	ldr	r4, [pc, #216]	; (22ec <prvTimerTask+0x180>)
    2214:	e045      	b.n	22a2 <prvTimerTask+0x136>
    2216:	9b05      	ldr	r3, [sp, #20]
    2218:	9303      	str	r3, [sp, #12]
    221a:	2b00      	cmp	r3, #0
    221c:	db41      	blt.n	22a2 <prvTimerTask+0x136>
    221e:	9e07      	ldr	r6, [sp, #28]
    2220:	6973      	ldr	r3, [r6, #20]
    2222:	2b00      	cmp	r3, #0
    2224:	d002      	beq.n	222c <prvTimerTask+0xc0>
    2226:	1d30      	adds	r0, r6, #4
    2228:	4b2a      	ldr	r3, [pc, #168]	; (22d4 <prvTimerTask+0x168>)
    222a:	4798      	blx	r3
    222c:	a804      	add	r0, sp, #16
    222e:	4b27      	ldr	r3, [pc, #156]	; (22cc <prvTimerTask+0x160>)
    2230:	4798      	blx	r3
    2232:	9b05      	ldr	r3, [sp, #20]
    2234:	2b09      	cmp	r3, #9
    2236:	d834      	bhi.n	22a2 <prvTimerTask+0x136>
    2238:	009b      	lsls	r3, r3, #2
    223a:	4a2d      	ldr	r2, [pc, #180]	; (22f0 <prvTimerTask+0x184>)
    223c:	58d3      	ldr	r3, [r2, r3]
    223e:	469f      	mov	pc, r3
    2240:	9b06      	ldr	r3, [sp, #24]
    2242:	69b2      	ldr	r2, [r6, #24]
    2244:	4694      	mov	ip, r2
    2246:	4463      	add	r3, ip
    2248:	0019      	movs	r1, r3
    224a:	9b06      	ldr	r3, [sp, #24]
    224c:	0002      	movs	r2, r0
    224e:	0030      	movs	r0, r6
    2250:	4f21      	ldr	r7, [pc, #132]	; (22d8 <prvTimerTask+0x16c>)
    2252:	47b8      	blx	r7
    2254:	2801      	cmp	r0, #1
    2256:	d124      	bne.n	22a2 <prvTimerTask+0x136>
    2258:	0030      	movs	r0, r6
    225a:	6a73      	ldr	r3, [r6, #36]	; 0x24
    225c:	4798      	blx	r3
    225e:	69f3      	ldr	r3, [r6, #28]
    2260:	2b01      	cmp	r3, #1
    2262:	d11e      	bne.n	22a2 <prvTimerTask+0x136>
    2264:	9b06      	ldr	r3, [sp, #24]
    2266:	69b1      	ldr	r1, [r6, #24]
    2268:	468c      	mov	ip, r1
    226a:	4463      	add	r3, ip
    226c:	001a      	movs	r2, r3
    226e:	2300      	movs	r3, #0
    2270:	9300      	str	r3, [sp, #0]
    2272:	2100      	movs	r1, #0
    2274:	0030      	movs	r0, r6
    2276:	4e19      	ldr	r6, [pc, #100]	; (22dc <prvTimerTask+0x170>)
    2278:	47b0      	blx	r6
    227a:	2800      	cmp	r0, #0
    227c:	d111      	bne.n	22a2 <prvTimerTask+0x136>
    227e:	b672      	cpsid	i
    2280:	e7fe      	b.n	2280 <prvTimerTask+0x114>
    2282:	9906      	ldr	r1, [sp, #24]
    2284:	61b1      	str	r1, [r6, #24]
    2286:	2900      	cmp	r1, #0
    2288:	d101      	bne.n	228e <prvTimerTask+0x122>
    228a:	b672      	cpsid	i
    228c:	e7fe      	b.n	228c <prvTimerTask+0x120>
    228e:	1841      	adds	r1, r0, r1
    2290:	0003      	movs	r3, r0
    2292:	0002      	movs	r2, r0
    2294:	0030      	movs	r0, r6
    2296:	4e10      	ldr	r6, [pc, #64]	; (22d8 <prvTimerTask+0x16c>)
    2298:	47b0      	blx	r6
    229a:	e002      	b.n	22a2 <prvTimerTask+0x136>
    229c:	0030      	movs	r0, r6
    229e:	4b15      	ldr	r3, [pc, #84]	; (22f4 <prvTimerTask+0x188>)
    22a0:	4798      	blx	r3
    22a2:	2300      	movs	r3, #0
    22a4:	2200      	movs	r2, #0
    22a6:	a905      	add	r1, sp, #20
    22a8:	6828      	ldr	r0, [r5, #0]
    22aa:	47a0      	blx	r4
    22ac:	2800      	cmp	r0, #0
    22ae:	d1b2      	bne.n	2216 <prvTimerTask+0xaa>
    22b0:	e769      	b.n	2186 <prvTimerTask+0x1a>
    22b2:	47c8      	blx	r9
    22b4:	a805      	add	r0, sp, #20
    22b6:	47c0      	blx	r8
    22b8:	0004      	movs	r4, r0
    22ba:	2500      	movs	r5, #0
    22bc:	9b05      	ldr	r3, [sp, #20]
    22be:	2b00      	cmp	r3, #0
    22c0:	d098      	beq.n	21f4 <prvTimerTask+0x88>
    22c2:	e7a3      	b.n	220c <prvTimerTask+0xa0>
    22c4:	20003c48 	.word	0x20003c48
    22c8:	000018b9 	.word	0x000018b9
    22cc:	000020b1 	.word	0x000020b1
    22d0:	00001a0d 	.word	0x00001a0d
    22d4:	00000f41 	.word	0x00000f41
    22d8:	00001f55 	.word	0x00001f55
    22dc:	0000204d 	.word	0x0000204d
    22e0:	20003c78 	.word	0x20003c78
    22e4:	0000159d 	.word	0x0000159d
    22e8:	00000d29 	.word	0x00000d29
    22ec:	00001411 	.word	0x00001411
    22f0:	00006554 	.word	0x00006554
    22f4:	00000ecd 	.word	0x00000ecd

000022f8 <usart_init>:
    22f8:	b5f0      	push	{r4, r5, r6, r7, lr}
    22fa:	465f      	mov	r7, fp
    22fc:	4656      	mov	r6, sl
    22fe:	464d      	mov	r5, r9
    2300:	4644      	mov	r4, r8
    2302:	b4f0      	push	{r4, r5, r6, r7}
    2304:	b091      	sub	sp, #68	; 0x44
    2306:	0005      	movs	r5, r0
    2308:	000c      	movs	r4, r1
    230a:	0016      	movs	r6, r2
    230c:	6029      	str	r1, [r5, #0]
    230e:	0008      	movs	r0, r1
    2310:	4bc4      	ldr	r3, [pc, #784]	; (2624 <usart_init+0x32c>)
    2312:	4798      	blx	r3
    2314:	1e02      	subs	r2, r0, #0
    2316:	2a05      	cmp	r2, #5
    2318:	d003      	beq.n	2322 <usart_init+0x2a>
    231a:	0007      	movs	r7, r0
    231c:	3712      	adds	r7, #18
    231e:	0003      	movs	r3, r0
    2320:	e001      	b.n	2326 <usart_init+0x2e>
    2322:	2718      	movs	r7, #24
    2324:	2301      	movs	r3, #1
    2326:	6821      	ldr	r1, [r4, #0]
    2328:	2005      	movs	r0, #5
    232a:	07c9      	lsls	r1, r1, #31
    232c:	d500      	bpl.n	2330 <usart_init+0x38>
    232e:	e171      	b.n	2614 <usart_init+0x31c>
    2330:	6821      	ldr	r1, [r4, #0]
    2332:	3017      	adds	r0, #23
    2334:	0789      	lsls	r1, r1, #30
    2336:	d500      	bpl.n	233a <usart_init+0x42>
    2338:	e16c      	b.n	2614 <usart_init+0x31c>
    233a:	2a05      	cmp	r2, #5
    233c:	d107      	bne.n	234e <usart_init+0x56>
    233e:	48ba      	ldr	r0, [pc, #744]	; (2628 <usart_init+0x330>)
    2340:	6a02      	ldr	r2, [r0, #32]
    2342:	2101      	movs	r1, #1
    2344:	4099      	lsls	r1, r3
    2346:	000b      	movs	r3, r1
    2348:	4313      	orrs	r3, r2
    234a:	6203      	str	r3, [r0, #32]
    234c:	e006      	b.n	235c <usart_init+0x64>
    234e:	48b6      	ldr	r0, [pc, #728]	; (2628 <usart_init+0x330>)
    2350:	69c2      	ldr	r2, [r0, #28]
    2352:	2101      	movs	r1, #1
    2354:	4099      	lsls	r1, r3
    2356:	000b      	movs	r3, r1
    2358:	4313      	orrs	r3, r2
    235a:	61c3      	str	r3, [r0, #28]
    235c:	a90f      	add	r1, sp, #60	; 0x3c
    235e:	232d      	movs	r3, #45	; 0x2d
    2360:	4698      	mov	r8, r3
    2362:	5cf3      	ldrb	r3, [r6, r3]
    2364:	700b      	strb	r3, [r1, #0]
    2366:	b2ff      	uxtb	r7, r7
    2368:	0038      	movs	r0, r7
    236a:	4bb0      	ldr	r3, [pc, #704]	; (262c <usart_init+0x334>)
    236c:	4798      	blx	r3
    236e:	0038      	movs	r0, r7
    2370:	4baf      	ldr	r3, [pc, #700]	; (2630 <usart_init+0x338>)
    2372:	4798      	blx	r3
    2374:	4643      	mov	r3, r8
    2376:	5cf0      	ldrb	r0, [r6, r3]
    2378:	2100      	movs	r1, #0
    237a:	4bae      	ldr	r3, [pc, #696]	; (2634 <usart_init+0x33c>)
    237c:	4798      	blx	r3
    237e:	7af3      	ldrb	r3, [r6, #11]
    2380:	716b      	strb	r3, [r5, #5]
    2382:	2324      	movs	r3, #36	; 0x24
    2384:	5cf3      	ldrb	r3, [r6, r3]
    2386:	71ab      	strb	r3, [r5, #6]
    2388:	2325      	movs	r3, #37	; 0x25
    238a:	5cf3      	ldrb	r3, [r6, r3]
    238c:	71eb      	strb	r3, [r5, #7]
    238e:	7ef3      	ldrb	r3, [r6, #27]
    2390:	722b      	strb	r3, [r5, #8]
    2392:	7f33      	ldrb	r3, [r6, #28]
    2394:	726b      	strb	r3, [r5, #9]
    2396:	682b      	ldr	r3, [r5, #0]
    2398:	4699      	mov	r9, r3
    239a:	0018      	movs	r0, r3
    239c:	4ba1      	ldr	r3, [pc, #644]	; (2624 <usart_init+0x32c>)
    239e:	4798      	blx	r3
    23a0:	3012      	adds	r0, #18
    23a2:	2200      	movs	r2, #0
    23a4:	230e      	movs	r3, #14
    23a6:	a906      	add	r1, sp, #24
    23a8:	468c      	mov	ip, r1
    23aa:	4463      	add	r3, ip
    23ac:	801a      	strh	r2, [r3, #0]
    23ae:	8a32      	ldrh	r2, [r6, #16]
    23b0:	9202      	str	r2, [sp, #8]
    23b2:	2380      	movs	r3, #128	; 0x80
    23b4:	01db      	lsls	r3, r3, #7
    23b6:	429a      	cmp	r2, r3
    23b8:	d01a      	beq.n	23f0 <usart_init+0xf8>
    23ba:	d804      	bhi.n	23c6 <usart_init+0xce>
    23bc:	2380      	movs	r3, #128	; 0x80
    23be:	019b      	lsls	r3, r3, #6
    23c0:	429a      	cmp	r2, r3
    23c2:	d00b      	beq.n	23dc <usart_init+0xe4>
    23c4:	e107      	b.n	25d6 <usart_init+0x2de>
    23c6:	23c0      	movs	r3, #192	; 0xc0
    23c8:	01db      	lsls	r3, r3, #7
    23ca:	9a02      	ldr	r2, [sp, #8]
    23cc:	429a      	cmp	r2, r3
    23ce:	d00a      	beq.n	23e6 <usart_init+0xee>
    23d0:	2380      	movs	r3, #128	; 0x80
    23d2:	021b      	lsls	r3, r3, #8
    23d4:	429a      	cmp	r2, r3
    23d6:	d100      	bne.n	23da <usart_init+0xe2>
    23d8:	e102      	b.n	25e0 <usart_init+0x2e8>
    23da:	e0fc      	b.n	25d6 <usart_init+0x2de>
    23dc:	2310      	movs	r3, #16
    23de:	9306      	str	r3, [sp, #24]
    23e0:	3b0f      	subs	r3, #15
    23e2:	9307      	str	r3, [sp, #28]
    23e4:	e100      	b.n	25e8 <usart_init+0x2f0>
    23e6:	2308      	movs	r3, #8
    23e8:	9306      	str	r3, [sp, #24]
    23ea:	3b07      	subs	r3, #7
    23ec:	9307      	str	r3, [sp, #28]
    23ee:	e0fb      	b.n	25e8 <usart_init+0x2f0>
    23f0:	6833      	ldr	r3, [r6, #0]
    23f2:	9304      	str	r3, [sp, #16]
    23f4:	68f3      	ldr	r3, [r6, #12]
    23f6:	469b      	mov	fp, r3
    23f8:	6973      	ldr	r3, [r6, #20]
    23fa:	9303      	str	r3, [sp, #12]
    23fc:	7e33      	ldrb	r3, [r6, #24]
    23fe:	4698      	mov	r8, r3
    2400:	2326      	movs	r3, #38	; 0x26
    2402:	5cf3      	ldrb	r3, [r6, r3]
    2404:	9305      	str	r3, [sp, #20]
    2406:	6873      	ldr	r3, [r6, #4]
    2408:	469a      	mov	sl, r3
    240a:	2b00      	cmp	r3, #0
    240c:	d016      	beq.n	243c <usart_init+0x144>
    240e:	2380      	movs	r3, #128	; 0x80
    2410:	055b      	lsls	r3, r3, #21
    2412:	459a      	cmp	sl, r3
    2414:	d139      	bne.n	248a <usart_init+0x192>
    2416:	2327      	movs	r3, #39	; 0x27
    2418:	5cf3      	ldrb	r3, [r6, r3]
    241a:	2b00      	cmp	r3, #0
    241c:	d139      	bne.n	2492 <usart_init+0x19a>
    241e:	6a33      	ldr	r3, [r6, #32]
    2420:	001f      	movs	r7, r3
    2422:	b2c0      	uxtb	r0, r0
    2424:	4b84      	ldr	r3, [pc, #528]	; (2638 <usart_init+0x340>)
    2426:	4798      	blx	r3
    2428:	0001      	movs	r1, r0
    242a:	220e      	movs	r2, #14
    242c:	ab06      	add	r3, sp, #24
    242e:	469c      	mov	ip, r3
    2430:	4462      	add	r2, ip
    2432:	0038      	movs	r0, r7
    2434:	4b81      	ldr	r3, [pc, #516]	; (263c <usart_init+0x344>)
    2436:	4798      	blx	r3
    2438:	0003      	movs	r3, r0
    243a:	e027      	b.n	248c <usart_init+0x194>
    243c:	2308      	movs	r3, #8
    243e:	9306      	str	r3, [sp, #24]
    2440:	2300      	movs	r3, #0
    2442:	9307      	str	r3, [sp, #28]
    2444:	2327      	movs	r3, #39	; 0x27
    2446:	5cf3      	ldrb	r3, [r6, r3]
    2448:	2b00      	cmp	r3, #0
    244a:	d00c      	beq.n	2466 <usart_init+0x16e>
    244c:	9b06      	ldr	r3, [sp, #24]
    244e:	9300      	str	r3, [sp, #0]
    2450:	9b07      	ldr	r3, [sp, #28]
    2452:	220e      	movs	r2, #14
    2454:	a906      	add	r1, sp, #24
    2456:	468c      	mov	ip, r1
    2458:	4462      	add	r2, ip
    245a:	6ab1      	ldr	r1, [r6, #40]	; 0x28
    245c:	6a30      	ldr	r0, [r6, #32]
    245e:	4f78      	ldr	r7, [pc, #480]	; (2640 <usart_init+0x348>)
    2460:	47b8      	blx	r7
    2462:	0003      	movs	r3, r0
    2464:	e012      	b.n	248c <usart_init+0x194>
    2466:	6a33      	ldr	r3, [r6, #32]
    2468:	001f      	movs	r7, r3
    246a:	b2c0      	uxtb	r0, r0
    246c:	4b72      	ldr	r3, [pc, #456]	; (2638 <usart_init+0x340>)
    246e:	4798      	blx	r3
    2470:	0001      	movs	r1, r0
    2472:	9b06      	ldr	r3, [sp, #24]
    2474:	9300      	str	r3, [sp, #0]
    2476:	9b07      	ldr	r3, [sp, #28]
    2478:	220e      	movs	r2, #14
    247a:	a806      	add	r0, sp, #24
    247c:	4684      	mov	ip, r0
    247e:	4462      	add	r2, ip
    2480:	0038      	movs	r0, r7
    2482:	4f6f      	ldr	r7, [pc, #444]	; (2640 <usart_init+0x348>)
    2484:	47b8      	blx	r7
    2486:	0003      	movs	r3, r0
    2488:	e000      	b.n	248c <usart_init+0x194>
    248a:	2300      	movs	r3, #0
    248c:	1e18      	subs	r0, r3, #0
    248e:	d000      	beq.n	2492 <usart_init+0x19a>
    2490:	e0c0      	b.n	2614 <usart_init+0x31c>
    2492:	7e73      	ldrb	r3, [r6, #25]
    2494:	2b00      	cmp	r3, #0
    2496:	d002      	beq.n	249e <usart_init+0x1a6>
    2498:	7eb3      	ldrb	r3, [r6, #26]
    249a:	464a      	mov	r2, r9
    249c:	7393      	strb	r3, [r2, #14]
    249e:	682a      	ldr	r2, [r5, #0]
    24a0:	9f02      	ldr	r7, [sp, #8]
    24a2:	69d3      	ldr	r3, [r2, #28]
    24a4:	2b00      	cmp	r3, #0
    24a6:	d1fc      	bne.n	24a2 <usart_init+0x1aa>
    24a8:	330e      	adds	r3, #14
    24aa:	aa06      	add	r2, sp, #24
    24ac:	4694      	mov	ip, r2
    24ae:	4463      	add	r3, ip
    24b0:	881b      	ldrh	r3, [r3, #0]
    24b2:	464a      	mov	r2, r9
    24b4:	8193      	strh	r3, [r2, #12]
    24b6:	9b04      	ldr	r3, [sp, #16]
    24b8:	465a      	mov	r2, fp
    24ba:	4313      	orrs	r3, r2
    24bc:	9a03      	ldr	r2, [sp, #12]
    24be:	4313      	orrs	r3, r2
    24c0:	4652      	mov	r2, sl
    24c2:	4313      	orrs	r3, r2
    24c4:	433b      	orrs	r3, r7
    24c6:	4642      	mov	r2, r8
    24c8:	0212      	lsls	r2, r2, #8
    24ca:	4313      	orrs	r3, r2
    24cc:	9a05      	ldr	r2, [sp, #20]
    24ce:	0757      	lsls	r7, r2, #29
    24d0:	431f      	orrs	r7, r3
    24d2:	2327      	movs	r3, #39	; 0x27
    24d4:	5cf3      	ldrb	r3, [r6, r3]
    24d6:	2b00      	cmp	r3, #0
    24d8:	d101      	bne.n	24de <usart_init+0x1e6>
    24da:	3304      	adds	r3, #4
    24dc:	431f      	orrs	r7, r3
    24de:	7e71      	ldrb	r1, [r6, #25]
    24e0:	0289      	lsls	r1, r1, #10
    24e2:	7f33      	ldrb	r3, [r6, #28]
    24e4:	025b      	lsls	r3, r3, #9
    24e6:	4319      	orrs	r1, r3
    24e8:	7f73      	ldrb	r3, [r6, #29]
    24ea:	021b      	lsls	r3, r3, #8
    24ec:	4319      	orrs	r1, r3
    24ee:	2324      	movs	r3, #36	; 0x24
    24f0:	5cf3      	ldrb	r3, [r6, r3]
    24f2:	045b      	lsls	r3, r3, #17
    24f4:	4319      	orrs	r1, r3
    24f6:	2325      	movs	r3, #37	; 0x25
    24f8:	5cf2      	ldrb	r2, [r6, r3]
    24fa:	0412      	lsls	r2, r2, #16
    24fc:	4311      	orrs	r1, r2
    24fe:	7af3      	ldrb	r3, [r6, #11]
    2500:	4319      	orrs	r1, r3
    2502:	8933      	ldrh	r3, [r6, #8]
    2504:	2bff      	cmp	r3, #255	; 0xff
    2506:	d004      	beq.n	2512 <usart_init+0x21a>
    2508:	2280      	movs	r2, #128	; 0x80
    250a:	0452      	lsls	r2, r2, #17
    250c:	4317      	orrs	r7, r2
    250e:	4319      	orrs	r1, r3
    2510:	e005      	b.n	251e <usart_init+0x226>
    2512:	7ef3      	ldrb	r3, [r6, #27]
    2514:	2b00      	cmp	r3, #0
    2516:	d002      	beq.n	251e <usart_init+0x226>
    2518:	2380      	movs	r3, #128	; 0x80
    251a:	04db      	lsls	r3, r3, #19
    251c:	431f      	orrs	r7, r3
    251e:	232c      	movs	r3, #44	; 0x2c
    2520:	5cf3      	ldrb	r3, [r6, r3]
    2522:	2b00      	cmp	r3, #0
    2524:	d103      	bne.n	252e <usart_init+0x236>
    2526:	4b47      	ldr	r3, [pc, #284]	; (2644 <usart_init+0x34c>)
    2528:	789b      	ldrb	r3, [r3, #2]
    252a:	079b      	lsls	r3, r3, #30
    252c:	d501      	bpl.n	2532 <usart_init+0x23a>
    252e:	2380      	movs	r3, #128	; 0x80
    2530:	431f      	orrs	r7, r3
    2532:	682a      	ldr	r2, [r5, #0]
    2534:	69d3      	ldr	r3, [r2, #28]
    2536:	2b00      	cmp	r3, #0
    2538:	d1fc      	bne.n	2534 <usart_init+0x23c>
    253a:	464b      	mov	r3, r9
    253c:	6059      	str	r1, [r3, #4]
    253e:	682a      	ldr	r2, [r5, #0]
    2540:	69d3      	ldr	r3, [r2, #28]
    2542:	2b00      	cmp	r3, #0
    2544:	d1fc      	bne.n	2540 <usart_init+0x248>
    2546:	464b      	mov	r3, r9
    2548:	601f      	str	r7, [r3, #0]
    254a:	ab0e      	add	r3, sp, #56	; 0x38
    254c:	2280      	movs	r2, #128	; 0x80
    254e:	701a      	strb	r2, [r3, #0]
    2550:	2200      	movs	r2, #0
    2552:	705a      	strb	r2, [r3, #1]
    2554:	70da      	strb	r2, [r3, #3]
    2556:	709a      	strb	r2, [r3, #2]
    2558:	6b33      	ldr	r3, [r6, #48]	; 0x30
    255a:	930a      	str	r3, [sp, #40]	; 0x28
    255c:	6b73      	ldr	r3, [r6, #52]	; 0x34
    255e:	930b      	str	r3, [sp, #44]	; 0x2c
    2560:	6bb3      	ldr	r3, [r6, #56]	; 0x38
    2562:	930c      	str	r3, [sp, #48]	; 0x30
    2564:	6bf3      	ldr	r3, [r6, #60]	; 0x3c
    2566:	9302      	str	r3, [sp, #8]
    2568:	930d      	str	r3, [sp, #52]	; 0x34
    256a:	2700      	movs	r7, #0
    256c:	ae0e      	add	r6, sp, #56	; 0x38
    256e:	b2f9      	uxtb	r1, r7
    2570:	00bb      	lsls	r3, r7, #2
    2572:	aa0a      	add	r2, sp, #40	; 0x28
    2574:	5898      	ldr	r0, [r3, r2]
    2576:	2800      	cmp	r0, #0
    2578:	d102      	bne.n	2580 <usart_init+0x288>
    257a:	0020      	movs	r0, r4
    257c:	4b32      	ldr	r3, [pc, #200]	; (2648 <usart_init+0x350>)
    257e:	4798      	blx	r3
    2580:	1c43      	adds	r3, r0, #1
    2582:	d005      	beq.n	2590 <usart_init+0x298>
    2584:	7030      	strb	r0, [r6, #0]
    2586:	0c00      	lsrs	r0, r0, #16
    2588:	b2c0      	uxtb	r0, r0
    258a:	0031      	movs	r1, r6
    258c:	4b2f      	ldr	r3, [pc, #188]	; (264c <usart_init+0x354>)
    258e:	4798      	blx	r3
    2590:	3701      	adds	r7, #1
    2592:	2f04      	cmp	r7, #4
    2594:	d1eb      	bne.n	256e <usart_init+0x276>
    2596:	2300      	movs	r3, #0
    2598:	60eb      	str	r3, [r5, #12]
    259a:	612b      	str	r3, [r5, #16]
    259c:	616b      	str	r3, [r5, #20]
    259e:	61ab      	str	r3, [r5, #24]
    25a0:	61eb      	str	r3, [r5, #28]
    25a2:	622b      	str	r3, [r5, #32]
    25a4:	62ab      	str	r3, [r5, #40]	; 0x28
    25a6:	626b      	str	r3, [r5, #36]	; 0x24
    25a8:	2200      	movs	r2, #0
    25aa:	85eb      	strh	r3, [r5, #46]	; 0x2e
    25ac:	85ab      	strh	r3, [r5, #44]	; 0x2c
    25ae:	3330      	adds	r3, #48	; 0x30
    25b0:	54ea      	strb	r2, [r5, r3]
    25b2:	3301      	adds	r3, #1
    25b4:	54ea      	strb	r2, [r5, r3]
    25b6:	3301      	adds	r3, #1
    25b8:	54ea      	strb	r2, [r5, r3]
    25ba:	3301      	adds	r3, #1
    25bc:	54ea      	strb	r2, [r5, r3]
    25be:	6828      	ldr	r0, [r5, #0]
    25c0:	4b18      	ldr	r3, [pc, #96]	; (2624 <usart_init+0x32c>)
    25c2:	4798      	blx	r3
    25c4:	0004      	movs	r4, r0
    25c6:	4922      	ldr	r1, [pc, #136]	; (2650 <usart_init+0x358>)
    25c8:	4b22      	ldr	r3, [pc, #136]	; (2654 <usart_init+0x35c>)
    25ca:	4798      	blx	r3
    25cc:	00a4      	lsls	r4, r4, #2
    25ce:	4b22      	ldr	r3, [pc, #136]	; (2658 <usart_init+0x360>)
    25d0:	50e5      	str	r5, [r4, r3]
    25d2:	2000      	movs	r0, #0
    25d4:	e01e      	b.n	2614 <usart_init+0x31c>
    25d6:	2310      	movs	r3, #16
    25d8:	9306      	str	r3, [sp, #24]
    25da:	2300      	movs	r3, #0
    25dc:	9307      	str	r3, [sp, #28]
    25de:	e003      	b.n	25e8 <usart_init+0x2f0>
    25e0:	2303      	movs	r3, #3
    25e2:	9306      	str	r3, [sp, #24]
    25e4:	2300      	movs	r3, #0
    25e6:	9307      	str	r3, [sp, #28]
    25e8:	6833      	ldr	r3, [r6, #0]
    25ea:	9304      	str	r3, [sp, #16]
    25ec:	68f3      	ldr	r3, [r6, #12]
    25ee:	469b      	mov	fp, r3
    25f0:	6973      	ldr	r3, [r6, #20]
    25f2:	9303      	str	r3, [sp, #12]
    25f4:	7e33      	ldrb	r3, [r6, #24]
    25f6:	4698      	mov	r8, r3
    25f8:	2326      	movs	r3, #38	; 0x26
    25fa:	5cf3      	ldrb	r3, [r6, r3]
    25fc:	9305      	str	r3, [sp, #20]
    25fe:	6873      	ldr	r3, [r6, #4]
    2600:	469a      	mov	sl, r3
    2602:	2b00      	cmp	r3, #0
    2604:	d100      	bne.n	2608 <usart_init+0x310>
    2606:	e71d      	b.n	2444 <usart_init+0x14c>
    2608:	2380      	movs	r3, #128	; 0x80
    260a:	055b      	lsls	r3, r3, #21
    260c:	459a      	cmp	sl, r3
    260e:	d100      	bne.n	2612 <usart_init+0x31a>
    2610:	e701      	b.n	2416 <usart_init+0x11e>
    2612:	e73e      	b.n	2492 <usart_init+0x19a>
    2614:	b011      	add	sp, #68	; 0x44
    2616:	bc3c      	pop	{r2, r3, r4, r5}
    2618:	4690      	mov	r8, r2
    261a:	4699      	mov	r9, r3
    261c:	46a2      	mov	sl, r4
    261e:	46ab      	mov	fp, r5
    2620:	bdf0      	pop	{r4, r5, r6, r7, pc}
    2622:	46c0      	nop			; (mov r8, r8)
    2624:	00000c05 	.word	0x00000c05
    2628:	40000400 	.word	0x40000400
    262c:	0000354d 	.word	0x0000354d
    2630:	000034dd 	.word	0x000034dd
    2634:	00000a35 	.word	0x00000a35
    2638:	00003571 	.word	0x00003571
    263c:	00000845 	.word	0x00000845
    2640:	0000086d 	.word	0x0000086d
    2644:	41002000 	.word	0x41002000
    2648:	00000a81 	.word	0x00000a81
    264c:	00003649 	.word	0x00003649
    2650:	000027b1 	.word	0x000027b1
    2654:	00002941 	.word	0x00002941
    2658:	20003cf4 	.word	0x20003cf4

0000265c <usart_write_wait>:
    265c:	79c2      	ldrb	r2, [r0, #7]
    265e:	231c      	movs	r3, #28
    2660:	2a00      	cmp	r2, #0
    2662:	d00e      	beq.n	2682 <usart_write_wait+0x26>
    2664:	8dc2      	ldrh	r2, [r0, #46]	; 0x2e
    2666:	b292      	uxth	r2, r2
    2668:	3b17      	subs	r3, #23
    266a:	2a00      	cmp	r2, #0
    266c:	d109      	bne.n	2682 <usart_write_wait+0x26>
    266e:	6803      	ldr	r3, [r0, #0]
    2670:	69da      	ldr	r2, [r3, #28]
    2672:	2a00      	cmp	r2, #0
    2674:	d1fc      	bne.n	2670 <usart_write_wait+0x14>
    2676:	8519      	strh	r1, [r3, #40]	; 0x28
    2678:	2102      	movs	r1, #2
    267a:	7e1a      	ldrb	r2, [r3, #24]
    267c:	420a      	tst	r2, r1
    267e:	d0fc      	beq.n	267a <usart_write_wait+0x1e>
    2680:	2300      	movs	r3, #0
    2682:	0018      	movs	r0, r3
    2684:	4770      	bx	lr
    2686:	46c0      	nop			; (mov r8, r8)

00002688 <usart_read_wait>:
    2688:	7982      	ldrb	r2, [r0, #6]
    268a:	231c      	movs	r3, #28
    268c:	2a00      	cmp	r2, #0
    268e:	d030      	beq.n	26f2 <usart_read_wait+0x6a>
    2690:	8d82      	ldrh	r2, [r0, #44]	; 0x2c
    2692:	b292      	uxth	r2, r2
    2694:	3b17      	subs	r3, #23
    2696:	2a00      	cmp	r2, #0
    2698:	d12b      	bne.n	26f2 <usart_read_wait+0x6a>
    269a:	6802      	ldr	r2, [r0, #0]
    269c:	7e10      	ldrb	r0, [r2, #24]
    269e:	0740      	lsls	r0, r0, #29
    26a0:	d527      	bpl.n	26f2 <usart_read_wait+0x6a>
    26a2:	69d3      	ldr	r3, [r2, #28]
    26a4:	2b00      	cmp	r3, #0
    26a6:	d1fc      	bne.n	26a2 <usart_read_wait+0x1a>
    26a8:	8b53      	ldrh	r3, [r2, #26]
    26aa:	b2db      	uxtb	r3, r3
    26ac:	0698      	lsls	r0, r3, #26
    26ae:	d01d      	beq.n	26ec <usart_read_wait+0x64>
    26b0:	0798      	lsls	r0, r3, #30
    26b2:	d503      	bpl.n	26bc <usart_read_wait+0x34>
    26b4:	2302      	movs	r3, #2
    26b6:	8353      	strh	r3, [r2, #26]
    26b8:	3318      	adds	r3, #24
    26ba:	e01a      	b.n	26f2 <usart_read_wait+0x6a>
    26bc:	0758      	lsls	r0, r3, #29
    26be:	d503      	bpl.n	26c8 <usart_read_wait+0x40>
    26c0:	2304      	movs	r3, #4
    26c2:	8353      	strh	r3, [r2, #26]
    26c4:	331a      	adds	r3, #26
    26c6:	e014      	b.n	26f2 <usart_read_wait+0x6a>
    26c8:	07d8      	lsls	r0, r3, #31
    26ca:	d503      	bpl.n	26d4 <usart_read_wait+0x4c>
    26cc:	2301      	movs	r3, #1
    26ce:	8353      	strh	r3, [r2, #26]
    26d0:	3312      	adds	r3, #18
    26d2:	e00e      	b.n	26f2 <usart_read_wait+0x6a>
    26d4:	06d8      	lsls	r0, r3, #27
    26d6:	d503      	bpl.n	26e0 <usart_read_wait+0x58>
    26d8:	2310      	movs	r3, #16
    26da:	8353      	strh	r3, [r2, #26]
    26dc:	3332      	adds	r3, #50	; 0x32
    26de:	e008      	b.n	26f2 <usart_read_wait+0x6a>
    26e0:	069b      	lsls	r3, r3, #26
    26e2:	d503      	bpl.n	26ec <usart_read_wait+0x64>
    26e4:	2320      	movs	r3, #32
    26e6:	8353      	strh	r3, [r2, #26]
    26e8:	3321      	adds	r3, #33	; 0x21
    26ea:	e002      	b.n	26f2 <usart_read_wait+0x6a>
    26ec:	8d13      	ldrh	r3, [r2, #40]	; 0x28
    26ee:	800b      	strh	r3, [r1, #0]
    26f0:	2300      	movs	r3, #0
    26f2:	0018      	movs	r0, r3
    26f4:	4770      	bx	lr
    26f6:	46c0      	nop			; (mov r8, r8)

000026f8 <usart_write_buffer_wait>:
    26f8:	b5f0      	push	{r4, r5, r6, r7, lr}
    26fa:	464f      	mov	r7, r9
    26fc:	b480      	push	{r7}
    26fe:	b082      	sub	sp, #8
    2700:	0004      	movs	r4, r0
    2702:	9101      	str	r1, [sp, #4]
    2704:	2017      	movs	r0, #23
    2706:	2a00      	cmp	r2, #0
    2708:	d049      	beq.n	279e <usart_write_buffer_wait+0xa6>
    270a:	79e3      	ldrb	r3, [r4, #7]
    270c:	3005      	adds	r0, #5
    270e:	2b00      	cmp	r3, #0
    2710:	d045      	beq.n	279e <usart_write_buffer_wait+0xa6>
    2712:	6827      	ldr	r7, [r4, #0]
    2714:	69fb      	ldr	r3, [r7, #28]
    2716:	2b00      	cmp	r3, #0
    2718:	d1fc      	bne.n	2714 <usart_write_buffer_wait+0x1c>
    271a:	4691      	mov	r9, r2
    271c:	2500      	movs	r5, #0
    271e:	2601      	movs	r6, #1
    2720:	e020      	b.n	2764 <usart_write_buffer_wait+0x6c>
    2722:	7e3a      	ldrb	r2, [r7, #24]
    2724:	4232      	tst	r2, r6
    2726:	d104      	bne.n	2732 <usart_write_buffer_wait+0x3a>
    2728:	2b01      	cmp	r3, #1
    272a:	d02a      	beq.n	2782 <usart_write_buffer_wait+0x8a>
    272c:	3b01      	subs	r3, #1
    272e:	2b00      	cmp	r3, #0
    2730:	d1f7      	bne.n	2722 <usart_write_buffer_wait+0x2a>
    2732:	1c6a      	adds	r2, r5, #1
    2734:	b292      	uxth	r2, r2
    2736:	9b01      	ldr	r3, [sp, #4]
    2738:	5d5b      	ldrb	r3, [r3, r5]
    273a:	7961      	ldrb	r1, [r4, #5]
    273c:	2901      	cmp	r1, #1
    273e:	d002      	beq.n	2746 <usart_write_buffer_wait+0x4e>
    2740:	b299      	uxth	r1, r3
    2742:	0015      	movs	r5, r2
    2744:	e005      	b.n	2752 <usart_write_buffer_wait+0x5a>
    2746:	1ca9      	adds	r1, r5, #2
    2748:	b28d      	uxth	r5, r1
    274a:	9901      	ldr	r1, [sp, #4]
    274c:	5c89      	ldrb	r1, [r1, r2]
    274e:	0209      	lsls	r1, r1, #8
    2750:	4319      	orrs	r1, r3
    2752:	0020      	movs	r0, r4
    2754:	4b14      	ldr	r3, [pc, #80]	; (27a8 <usart_write_buffer_wait+0xb0>)
    2756:	4798      	blx	r3
    2758:	464a      	mov	r2, r9
    275a:	3a01      	subs	r2, #1
    275c:	b293      	uxth	r3, r2
    275e:	4699      	mov	r9, r3
    2760:	2b00      	cmp	r3, #0
    2762:	d016      	beq.n	2792 <usart_write_buffer_wait+0x9a>
    2764:	7e3b      	ldrb	r3, [r7, #24]
    2766:	4233      	tst	r3, r6
    2768:	d1e3      	bne.n	2732 <usart_write_buffer_wait+0x3a>
    276a:	4b10      	ldr	r3, [pc, #64]	; (27ac <usart_write_buffer_wait+0xb4>)
    276c:	e7d9      	b.n	2722 <usart_write_buffer_wait+0x2a>
    276e:	7e3a      	ldrb	r2, [r7, #24]
    2770:	420a      	tst	r2, r1
    2772:	d108      	bne.n	2786 <usart_write_buffer_wait+0x8e>
    2774:	2b01      	cmp	r3, #1
    2776:	d008      	beq.n	278a <usart_write_buffer_wait+0x92>
    2778:	3b01      	subs	r3, #1
    277a:	2b00      	cmp	r3, #0
    277c:	d1f7      	bne.n	276e <usart_write_buffer_wait+0x76>
    277e:	2000      	movs	r0, #0
    2780:	e00d      	b.n	279e <usart_write_buffer_wait+0xa6>
    2782:	2012      	movs	r0, #18
    2784:	e00b      	b.n	279e <usart_write_buffer_wait+0xa6>
    2786:	2000      	movs	r0, #0
    2788:	e009      	b.n	279e <usart_write_buffer_wait+0xa6>
    278a:	2012      	movs	r0, #18
    278c:	e007      	b.n	279e <usart_write_buffer_wait+0xa6>
    278e:	2000      	movs	r0, #0
    2790:	e005      	b.n	279e <usart_write_buffer_wait+0xa6>
    2792:	7e3b      	ldrb	r3, [r7, #24]
    2794:	079b      	lsls	r3, r3, #30
    2796:	d4fa      	bmi.n	278e <usart_write_buffer_wait+0x96>
    2798:	4b04      	ldr	r3, [pc, #16]	; (27ac <usart_write_buffer_wait+0xb4>)
    279a:	2102      	movs	r1, #2
    279c:	e7e7      	b.n	276e <usart_write_buffer_wait+0x76>
    279e:	b002      	add	sp, #8
    27a0:	bc04      	pop	{r2}
    27a2:	4691      	mov	r9, r2
    27a4:	bdf0      	pop	{r4, r5, r6, r7, pc}
    27a6:	46c0      	nop			; (mov r8, r8)
    27a8:	0000265d 	.word	0x0000265d
    27ac:	0000ffff 	.word	0x0000ffff

000027b0 <_usart_interrupt_handler>:
    27b0:	b5f8      	push	{r3, r4, r5, r6, r7, lr}
    27b2:	0080      	lsls	r0, r0, #2
    27b4:	4b60      	ldr	r3, [pc, #384]	; (2938 <_usart_interrupt_handler+0x188>)
    27b6:	58c5      	ldr	r5, [r0, r3]
    27b8:	682c      	ldr	r4, [r5, #0]
    27ba:	69e3      	ldr	r3, [r4, #28]
    27bc:	2b00      	cmp	r3, #0
    27be:	d1fc      	bne.n	27ba <_usart_interrupt_handler+0xa>
    27c0:	7e23      	ldrb	r3, [r4, #24]
    27c2:	7da6      	ldrb	r6, [r4, #22]
    27c4:	401e      	ands	r6, r3
    27c6:	2330      	movs	r3, #48	; 0x30
    27c8:	5ceb      	ldrb	r3, [r5, r3]
    27ca:	2231      	movs	r2, #49	; 0x31
    27cc:	5caf      	ldrb	r7, [r5, r2]
    27ce:	401f      	ands	r7, r3
    27d0:	07f3      	lsls	r3, r6, #31
    27d2:	d522      	bpl.n	281a <_usart_interrupt_handler+0x6a>
    27d4:	8deb      	ldrh	r3, [r5, #46]	; 0x2e
    27d6:	b29b      	uxth	r3, r3
    27d8:	2b00      	cmp	r3, #0
    27da:	d01c      	beq.n	2816 <_usart_interrupt_handler+0x66>
    27dc:	6aaa      	ldr	r2, [r5, #40]	; 0x28
    27de:	7813      	ldrb	r3, [r2, #0]
    27e0:	b2db      	uxtb	r3, r3
    27e2:	1c51      	adds	r1, r2, #1
    27e4:	62a9      	str	r1, [r5, #40]	; 0x28
    27e6:	7969      	ldrb	r1, [r5, #5]
    27e8:	2901      	cmp	r1, #1
    27ea:	d001      	beq.n	27f0 <_usart_interrupt_handler+0x40>
    27ec:	b29b      	uxth	r3, r3
    27ee:	e004      	b.n	27fa <_usart_interrupt_handler+0x4a>
    27f0:	7851      	ldrb	r1, [r2, #1]
    27f2:	0209      	lsls	r1, r1, #8
    27f4:	430b      	orrs	r3, r1
    27f6:	3202      	adds	r2, #2
    27f8:	62aa      	str	r2, [r5, #40]	; 0x28
    27fa:	05db      	lsls	r3, r3, #23
    27fc:	0ddb      	lsrs	r3, r3, #23
    27fe:	8523      	strh	r3, [r4, #40]	; 0x28
    2800:	8deb      	ldrh	r3, [r5, #46]	; 0x2e
    2802:	3b01      	subs	r3, #1
    2804:	b29b      	uxth	r3, r3
    2806:	85eb      	strh	r3, [r5, #46]	; 0x2e
    2808:	2b00      	cmp	r3, #0
    280a:	d106      	bne.n	281a <_usart_interrupt_handler+0x6a>
    280c:	3301      	adds	r3, #1
    280e:	7523      	strb	r3, [r4, #20]
    2810:	3301      	adds	r3, #1
    2812:	75a3      	strb	r3, [r4, #22]
    2814:	e001      	b.n	281a <_usart_interrupt_handler+0x6a>
    2816:	2301      	movs	r3, #1
    2818:	7523      	strb	r3, [r4, #20]
    281a:	07b3      	lsls	r3, r6, #30
    281c:	d509      	bpl.n	2832 <_usart_interrupt_handler+0x82>
    281e:	2302      	movs	r3, #2
    2820:	7523      	strb	r3, [r4, #20]
    2822:	2200      	movs	r2, #0
    2824:	3331      	adds	r3, #49	; 0x31
    2826:	54ea      	strb	r2, [r5, r3]
    2828:	07fb      	lsls	r3, r7, #31
    282a:	d502      	bpl.n	2832 <_usart_interrupt_handler+0x82>
    282c:	0028      	movs	r0, r5
    282e:	68eb      	ldr	r3, [r5, #12]
    2830:	4798      	blx	r3
    2832:	0773      	lsls	r3, r6, #29
    2834:	d560      	bpl.n	28f8 <_usart_interrupt_handler+0x148>
    2836:	8dab      	ldrh	r3, [r5, #44]	; 0x2c
    2838:	b29b      	uxth	r3, r3
    283a:	2b00      	cmp	r3, #0
    283c:	d05a      	beq.n	28f4 <_usart_interrupt_handler+0x144>
    283e:	8b63      	ldrh	r3, [r4, #26]
    2840:	b2db      	uxtb	r3, r3
    2842:	071a      	lsls	r2, r3, #28
    2844:	d402      	bmi.n	284c <_usart_interrupt_handler+0x9c>
    2846:	223f      	movs	r2, #63	; 0x3f
    2848:	4013      	ands	r3, r2
    284a:	e001      	b.n	2850 <_usart_interrupt_handler+0xa0>
    284c:	2237      	movs	r2, #55	; 0x37
    284e:	4013      	ands	r3, r2
    2850:	2b00      	cmp	r3, #0
    2852:	d02d      	beq.n	28b0 <_usart_interrupt_handler+0x100>
    2854:	079a      	lsls	r2, r3, #30
    2856:	d505      	bpl.n	2864 <_usart_interrupt_handler+0xb4>
    2858:	221a      	movs	r2, #26
    285a:	2332      	movs	r3, #50	; 0x32
    285c:	54ea      	strb	r2, [r5, r3]
    285e:	3b30      	subs	r3, #48	; 0x30
    2860:	8363      	strh	r3, [r4, #26]
    2862:	e01f      	b.n	28a4 <_usart_interrupt_handler+0xf4>
    2864:	075a      	lsls	r2, r3, #29
    2866:	d505      	bpl.n	2874 <_usart_interrupt_handler+0xc4>
    2868:	221e      	movs	r2, #30
    286a:	2332      	movs	r3, #50	; 0x32
    286c:	54ea      	strb	r2, [r5, r3]
    286e:	3b2e      	subs	r3, #46	; 0x2e
    2870:	8363      	strh	r3, [r4, #26]
    2872:	e017      	b.n	28a4 <_usart_interrupt_handler+0xf4>
    2874:	07da      	lsls	r2, r3, #31
    2876:	d505      	bpl.n	2884 <_usart_interrupt_handler+0xd4>
    2878:	2213      	movs	r2, #19
    287a:	2332      	movs	r3, #50	; 0x32
    287c:	54ea      	strb	r2, [r5, r3]
    287e:	3b31      	subs	r3, #49	; 0x31
    2880:	8363      	strh	r3, [r4, #26]
    2882:	e00f      	b.n	28a4 <_usart_interrupt_handler+0xf4>
    2884:	06da      	lsls	r2, r3, #27
    2886:	d505      	bpl.n	2894 <_usart_interrupt_handler+0xe4>
    2888:	2242      	movs	r2, #66	; 0x42
    288a:	2332      	movs	r3, #50	; 0x32
    288c:	54ea      	strb	r2, [r5, r3]
    288e:	3b22      	subs	r3, #34	; 0x22
    2890:	8363      	strh	r3, [r4, #26]
    2892:	e007      	b.n	28a4 <_usart_interrupt_handler+0xf4>
    2894:	2220      	movs	r2, #32
    2896:	421a      	tst	r2, r3
    2898:	d004      	beq.n	28a4 <_usart_interrupt_handler+0xf4>
    289a:	3221      	adds	r2, #33	; 0x21
    289c:	2332      	movs	r3, #50	; 0x32
    289e:	54ea      	strb	r2, [r5, r3]
    28a0:	3b12      	subs	r3, #18
    28a2:	8363      	strh	r3, [r4, #26]
    28a4:	077b      	lsls	r3, r7, #29
    28a6:	d527      	bpl.n	28f8 <_usart_interrupt_handler+0x148>
    28a8:	0028      	movs	r0, r5
    28aa:	696b      	ldr	r3, [r5, #20]
    28ac:	4798      	blx	r3
    28ae:	e023      	b.n	28f8 <_usart_interrupt_handler+0x148>
    28b0:	8d23      	ldrh	r3, [r4, #40]	; 0x28
    28b2:	05db      	lsls	r3, r3, #23
    28b4:	0ddb      	lsrs	r3, r3, #23
    28b6:	b2da      	uxtb	r2, r3
    28b8:	6a69      	ldr	r1, [r5, #36]	; 0x24
    28ba:	700a      	strb	r2, [r1, #0]
    28bc:	6a6a      	ldr	r2, [r5, #36]	; 0x24
    28be:	1c51      	adds	r1, r2, #1
    28c0:	6269      	str	r1, [r5, #36]	; 0x24
    28c2:	7969      	ldrb	r1, [r5, #5]
    28c4:	2901      	cmp	r1, #1
    28c6:	d104      	bne.n	28d2 <_usart_interrupt_handler+0x122>
    28c8:	0a1b      	lsrs	r3, r3, #8
    28ca:	7053      	strb	r3, [r2, #1]
    28cc:	6a6b      	ldr	r3, [r5, #36]	; 0x24
    28ce:	3301      	adds	r3, #1
    28d0:	626b      	str	r3, [r5, #36]	; 0x24
    28d2:	8dab      	ldrh	r3, [r5, #44]	; 0x2c
    28d4:	3b01      	subs	r3, #1
    28d6:	b29b      	uxth	r3, r3
    28d8:	85ab      	strh	r3, [r5, #44]	; 0x2c
    28da:	2b00      	cmp	r3, #0
    28dc:	d10c      	bne.n	28f8 <_usart_interrupt_handler+0x148>
    28de:	3304      	adds	r3, #4
    28e0:	7523      	strb	r3, [r4, #20]
    28e2:	2200      	movs	r2, #0
    28e4:	332e      	adds	r3, #46	; 0x2e
    28e6:	54ea      	strb	r2, [r5, r3]
    28e8:	07bb      	lsls	r3, r7, #30
    28ea:	d505      	bpl.n	28f8 <_usart_interrupt_handler+0x148>
    28ec:	0028      	movs	r0, r5
    28ee:	692b      	ldr	r3, [r5, #16]
    28f0:	4798      	blx	r3
    28f2:	e001      	b.n	28f8 <_usart_interrupt_handler+0x148>
    28f4:	2304      	movs	r3, #4
    28f6:	7523      	strb	r3, [r4, #20]
    28f8:	06f3      	lsls	r3, r6, #27
    28fa:	d507      	bpl.n	290c <_usart_interrupt_handler+0x15c>
    28fc:	2310      	movs	r3, #16
    28fe:	7523      	strb	r3, [r4, #20]
    2900:	7623      	strb	r3, [r4, #24]
    2902:	06fb      	lsls	r3, r7, #27
    2904:	d502      	bpl.n	290c <_usart_interrupt_handler+0x15c>
    2906:	0028      	movs	r0, r5
    2908:	69eb      	ldr	r3, [r5, #28]
    290a:	4798      	blx	r3
    290c:	06b3      	lsls	r3, r6, #26
    290e:	d507      	bpl.n	2920 <_usart_interrupt_handler+0x170>
    2910:	2320      	movs	r3, #32
    2912:	7523      	strb	r3, [r4, #20]
    2914:	7623      	strb	r3, [r4, #24]
    2916:	073b      	lsls	r3, r7, #28
    2918:	d502      	bpl.n	2920 <_usart_interrupt_handler+0x170>
    291a:	0028      	movs	r0, r5
    291c:	69ab      	ldr	r3, [r5, #24]
    291e:	4798      	blx	r3
    2920:	0733      	lsls	r3, r6, #28
    2922:	d507      	bpl.n	2934 <_usart_interrupt_handler+0x184>
    2924:	2308      	movs	r3, #8
    2926:	7523      	strb	r3, [r4, #20]
    2928:	7623      	strb	r3, [r4, #24]
    292a:	06bb      	lsls	r3, r7, #26
    292c:	d502      	bpl.n	2934 <_usart_interrupt_handler+0x184>
    292e:	6a2b      	ldr	r3, [r5, #32]
    2930:	0028      	movs	r0, r5
    2932:	4798      	blx	r3
    2934:	bdf8      	pop	{r3, r4, r5, r6, r7, pc}
    2936:	46c0      	nop			; (mov r8, r8)
    2938:	20003cf4 	.word	0x20003cf4

0000293c <_sercom_default_handler>:
    293c:	4770      	bx	lr
    293e:	46c0      	nop			; (mov r8, r8)

00002940 <_sercom_set_handler>:
    2940:	b5f0      	push	{r4, r5, r6, r7, lr}
    2942:	4b0a      	ldr	r3, [pc, #40]	; (296c <_sercom_set_handler+0x2c>)
    2944:	781b      	ldrb	r3, [r3, #0]
    2946:	2b00      	cmp	r3, #0
    2948:	d10c      	bne.n	2964 <_sercom_set_handler+0x24>
    294a:	4f09      	ldr	r7, [pc, #36]	; (2970 <_sercom_set_handler+0x30>)
    294c:	4e09      	ldr	r6, [pc, #36]	; (2974 <_sercom_set_handler+0x34>)
    294e:	4d0a      	ldr	r5, [pc, #40]	; (2978 <_sercom_set_handler+0x38>)
    2950:	2400      	movs	r4, #0
    2952:	51de      	str	r6, [r3, r7]
    2954:	195a      	adds	r2, r3, r5
    2956:	6014      	str	r4, [r2, #0]
    2958:	3304      	adds	r3, #4
    295a:	2b18      	cmp	r3, #24
    295c:	d1f9      	bne.n	2952 <_sercom_set_handler+0x12>
    295e:	2201      	movs	r2, #1
    2960:	4b02      	ldr	r3, [pc, #8]	; (296c <_sercom_set_handler+0x2c>)
    2962:	701a      	strb	r2, [r3, #0]
    2964:	0080      	lsls	r0, r0, #2
    2966:	4b02      	ldr	r3, [pc, #8]	; (2970 <_sercom_set_handler+0x30>)
    2968:	50c1      	str	r1, [r0, r3]
    296a:	bdf0      	pop	{r4, r5, r6, r7, pc}
    296c:	20003c80 	.word	0x20003c80
    2970:	20003c84 	.word	0x20003c84
    2974:	0000293d 	.word	0x0000293d
    2978:	20003cf4 	.word	0x20003cf4

0000297c <_sercom_get_interrupt_vector>:
    297c:	b510      	push	{r4, lr}
    297e:	b082      	sub	sp, #8
    2980:	0004      	movs	r4, r0
    2982:	2206      	movs	r2, #6
    2984:	4905      	ldr	r1, [pc, #20]	; (299c <_sercom_get_interrupt_vector+0x20>)
    2986:	4668      	mov	r0, sp
    2988:	4b05      	ldr	r3, [pc, #20]	; (29a0 <_sercom_get_interrupt_vector+0x24>)
    298a:	4798      	blx	r3
    298c:	0020      	movs	r0, r4
    298e:	4b05      	ldr	r3, [pc, #20]	; (29a4 <_sercom_get_interrupt_vector+0x28>)
    2990:	4798      	blx	r3
    2992:	466b      	mov	r3, sp
    2994:	5618      	ldrsb	r0, [r3, r0]
    2996:	b002      	add	sp, #8
    2998:	bd10      	pop	{r4, pc}
    299a:	46c0      	nop			; (mov r8, r8)
    299c:	00006584 	.word	0x00006584
    29a0:	00005d7d 	.word	0x00005d7d
    29a4:	00000c05 	.word	0x00000c05

000029a8 <SERCOM0_Handler>:
    29a8:	b510      	push	{r4, lr}
    29aa:	4b02      	ldr	r3, [pc, #8]	; (29b4 <SERCOM0_Handler+0xc>)
    29ac:	681b      	ldr	r3, [r3, #0]
    29ae:	2000      	movs	r0, #0
    29b0:	4798      	blx	r3
    29b2:	bd10      	pop	{r4, pc}
    29b4:	20003c84 	.word	0x20003c84

000029b8 <SERCOM1_Handler>:
    29b8:	b510      	push	{r4, lr}
    29ba:	4b02      	ldr	r3, [pc, #8]	; (29c4 <SERCOM1_Handler+0xc>)
    29bc:	685b      	ldr	r3, [r3, #4]
    29be:	2001      	movs	r0, #1
    29c0:	4798      	blx	r3
    29c2:	bd10      	pop	{r4, pc}
    29c4:	20003c84 	.word	0x20003c84

000029c8 <SERCOM2_Handler>:
    29c8:	b510      	push	{r4, lr}
    29ca:	4b02      	ldr	r3, [pc, #8]	; (29d4 <SERCOM2_Handler+0xc>)
    29cc:	689b      	ldr	r3, [r3, #8]
    29ce:	2002      	movs	r0, #2
    29d0:	4798      	blx	r3
    29d2:	bd10      	pop	{r4, pc}
    29d4:	20003c84 	.word	0x20003c84

000029d8 <SERCOM3_Handler>:
    29d8:	b510      	push	{r4, lr}
    29da:	4b02      	ldr	r3, [pc, #8]	; (29e4 <SERCOM3_Handler+0xc>)
    29dc:	68db      	ldr	r3, [r3, #12]
    29de:	2003      	movs	r0, #3
    29e0:	4798      	blx	r3
    29e2:	bd10      	pop	{r4, pc}
    29e4:	20003c84 	.word	0x20003c84

000029e8 <SERCOM4_Handler>:
    29e8:	b510      	push	{r4, lr}
    29ea:	4b02      	ldr	r3, [pc, #8]	; (29f4 <SERCOM4_Handler+0xc>)
    29ec:	691b      	ldr	r3, [r3, #16]
    29ee:	2004      	movs	r0, #4
    29f0:	4798      	blx	r3
    29f2:	bd10      	pop	{r4, pc}
    29f4:	20003c84 	.word	0x20003c84

000029f8 <SERCOM5_Handler>:
    29f8:	b510      	push	{r4, lr}
    29fa:	4b02      	ldr	r3, [pc, #8]	; (2a04 <SERCOM5_Handler+0xc>)
    29fc:	695b      	ldr	r3, [r3, #20]
    29fe:	2005      	movs	r0, #5
    2a00:	4798      	blx	r3
    2a02:	bd10      	pop	{r4, pc}
    2a04:	20003c84 	.word	0x20003c84

00002a08 <delay_init>:
    2a08:	b570      	push	{r4, r5, r6, lr}
    2a0a:	2000      	movs	r0, #0
    2a0c:	4b08      	ldr	r3, [pc, #32]	; (2a30 <delay_init+0x28>)
    2a0e:	4798      	blx	r3
    2a10:	0005      	movs	r5, r0
    2a12:	4c08      	ldr	r4, [pc, #32]	; (2a34 <delay_init+0x2c>)
    2a14:	21fa      	movs	r1, #250	; 0xfa
    2a16:	0089      	lsls	r1, r1, #2
    2a18:	47a0      	blx	r4
    2a1a:	4b07      	ldr	r3, [pc, #28]	; (2a38 <delay_init+0x30>)
    2a1c:	6018      	str	r0, [r3, #0]
    2a1e:	4907      	ldr	r1, [pc, #28]	; (2a3c <delay_init+0x34>)
    2a20:	0028      	movs	r0, r5
    2a22:	47a0      	blx	r4
    2a24:	4b06      	ldr	r3, [pc, #24]	; (2a40 <delay_init+0x38>)
    2a26:	6018      	str	r0, [r3, #0]
    2a28:	2205      	movs	r2, #5
    2a2a:	4b06      	ldr	r3, [pc, #24]	; (2a44 <delay_init+0x3c>)
    2a2c:	601a      	str	r2, [r3, #0]
    2a2e:	bd70      	pop	{r4, r5, r6, pc}
    2a30:	00003471 	.word	0x00003471
    2a34:	000040b5 	.word	0x000040b5
    2a38:	2000000c 	.word	0x2000000c
    2a3c:	000f4240 	.word	0x000f4240
    2a40:	20000008 	.word	0x20000008
    2a44:	e000e010 	.word	0xe000e010

00002a48 <delay_cycles_ms>:
    2a48:	b530      	push	{r4, r5, lr}
    2a4a:	4b08      	ldr	r3, [pc, #32]	; (2a6c <delay_cycles_ms+0x24>)
    2a4c:	681c      	ldr	r4, [r3, #0]
    2a4e:	4a08      	ldr	r2, [pc, #32]	; (2a70 <delay_cycles_ms+0x28>)
    2a50:	2500      	movs	r5, #0
    2a52:	2180      	movs	r1, #128	; 0x80
    2a54:	0249      	lsls	r1, r1, #9
    2a56:	e006      	b.n	2a66 <delay_cycles_ms+0x1e>
    2a58:	2c00      	cmp	r4, #0
    2a5a:	d004      	beq.n	2a66 <delay_cycles_ms+0x1e>
    2a5c:	6054      	str	r4, [r2, #4]
    2a5e:	6095      	str	r5, [r2, #8]
    2a60:	6813      	ldr	r3, [r2, #0]
    2a62:	420b      	tst	r3, r1
    2a64:	d0fc      	beq.n	2a60 <delay_cycles_ms+0x18>
    2a66:	3801      	subs	r0, #1
    2a68:	d2f6      	bcs.n	2a58 <delay_cycles_ms+0x10>
    2a6a:	bd30      	pop	{r4, r5, pc}
    2a6c:	2000000c 	.word	0x2000000c
    2a70:	e000e010 	.word	0xe000e010

00002a74 <cpu_irq_enter_critical>:
    2a74:	4b0c      	ldr	r3, [pc, #48]	; (2aa8 <cpu_irq_enter_critical+0x34>)
    2a76:	681b      	ldr	r3, [r3, #0]
    2a78:	2b00      	cmp	r3, #0
    2a7a:	d110      	bne.n	2a9e <cpu_irq_enter_critical+0x2a>
    2a7c:	f3ef 8310 	mrs	r3, PRIMASK
    2a80:	2b00      	cmp	r3, #0
    2a82:	d109      	bne.n	2a98 <cpu_irq_enter_critical+0x24>
    2a84:	b672      	cpsid	i
    2a86:	f3bf 8f5f 	dmb	sy
    2a8a:	2200      	movs	r2, #0
    2a8c:	4b07      	ldr	r3, [pc, #28]	; (2aac <cpu_irq_enter_critical+0x38>)
    2a8e:	701a      	strb	r2, [r3, #0]
    2a90:	3201      	adds	r2, #1
    2a92:	4b07      	ldr	r3, [pc, #28]	; (2ab0 <cpu_irq_enter_critical+0x3c>)
    2a94:	701a      	strb	r2, [r3, #0]
    2a96:	e002      	b.n	2a9e <cpu_irq_enter_critical+0x2a>
    2a98:	2200      	movs	r2, #0
    2a9a:	4b05      	ldr	r3, [pc, #20]	; (2ab0 <cpu_irq_enter_critical+0x3c>)
    2a9c:	701a      	strb	r2, [r3, #0]
    2a9e:	4a02      	ldr	r2, [pc, #8]	; (2aa8 <cpu_irq_enter_critical+0x34>)
    2aa0:	6813      	ldr	r3, [r2, #0]
    2aa2:	3301      	adds	r3, #1
    2aa4:	6013      	str	r3, [r2, #0]
    2aa6:	4770      	bx	lr
    2aa8:	20003c9c 	.word	0x20003c9c
    2aac:	20000010 	.word	0x20000010
    2ab0:	20003ca0 	.word	0x20003ca0

00002ab4 <cpu_irq_leave_critical>:
    2ab4:	4b08      	ldr	r3, [pc, #32]	; (2ad8 <cpu_irq_leave_critical+0x24>)
    2ab6:	681a      	ldr	r2, [r3, #0]
    2ab8:	3a01      	subs	r2, #1
    2aba:	601a      	str	r2, [r3, #0]
    2abc:	681b      	ldr	r3, [r3, #0]
    2abe:	2b00      	cmp	r3, #0
    2ac0:	d109      	bne.n	2ad6 <cpu_irq_leave_critical+0x22>
    2ac2:	4b06      	ldr	r3, [pc, #24]	; (2adc <cpu_irq_leave_critical+0x28>)
    2ac4:	781b      	ldrb	r3, [r3, #0]
    2ac6:	2b00      	cmp	r3, #0
    2ac8:	d005      	beq.n	2ad6 <cpu_irq_leave_critical+0x22>
    2aca:	2201      	movs	r2, #1
    2acc:	4b04      	ldr	r3, [pc, #16]	; (2ae0 <cpu_irq_leave_critical+0x2c>)
    2ace:	701a      	strb	r2, [r3, #0]
    2ad0:	f3bf 8f5f 	dmb	sy
    2ad4:	b662      	cpsie	i
    2ad6:	4770      	bx	lr
    2ad8:	20003c9c 	.word	0x20003c9c
    2adc:	20003ca0 	.word	0x20003ca0
    2ae0:	20000010 	.word	0x20000010

00002ae4 <system_board_init>:
    2ae4:	b5f0      	push	{r4, r5, r6, r7, lr}
    2ae6:	4647      	mov	r7, r8
    2ae8:	b480      	push	{r7}
    2aea:	b082      	sub	sp, #8
    2aec:	ac01      	add	r4, sp, #4
    2aee:	2501      	movs	r5, #1
    2af0:	7065      	strb	r5, [r4, #1]
    2af2:	2300      	movs	r3, #0
    2af4:	4698      	mov	r8, r3
    2af6:	70a3      	strb	r3, [r4, #2]
    2af8:	7025      	strb	r5, [r4, #0]
    2afa:	0021      	movs	r1, r4
    2afc:	2015      	movs	r0, #21
    2afe:	4f0c      	ldr	r7, [pc, #48]	; (2b30 <system_board_init+0x4c>)
    2b00:	47b8      	blx	r7
    2b02:	4e0c      	ldr	r6, [pc, #48]	; (2b34 <system_board_init+0x50>)
    2b04:	2380      	movs	r3, #128	; 0x80
    2b06:	039b      	lsls	r3, r3, #14
    2b08:	61b3      	str	r3, [r6, #24]
    2b0a:	7025      	strb	r5, [r4, #0]
    2b0c:	0021      	movs	r1, r4
    2b0e:	202c      	movs	r0, #44	; 0x2c
    2b10:	47b8      	blx	r7
    2b12:	3680      	adds	r6, #128	; 0x80
    2b14:	2380      	movs	r3, #128	; 0x80
    2b16:	015b      	lsls	r3, r3, #5
    2b18:	6173      	str	r3, [r6, #20]
    2b1a:	4643      	mov	r3, r8
    2b1c:	7023      	strb	r3, [r4, #0]
    2b1e:	7065      	strb	r5, [r4, #1]
    2b20:	0021      	movs	r1, r4
    2b22:	2002      	movs	r0, #2
    2b24:	47b8      	blx	r7
    2b26:	b002      	add	sp, #8
    2b28:	bc04      	pop	{r2}
    2b2a:	4690      	mov	r8, r2
    2b2c:	bdf0      	pop	{r4, r5, r6, r7, pc}
    2b2e:	46c0      	nop			; (mov r8, r8)
    2b30:	00003199 	.word	0x00003199
    2b34:	40002800 	.word	0x40002800

00002b38 <_adc_get_inst_index>:
    2b38:	2000      	movs	r0, #0
    2b3a:	4770      	bx	lr

00002b3c <adc_get_config_defaults>:
    2b3c:	b510      	push	{r4, lr}
    2b3e:	2300      	movs	r3, #0
    2b40:	2200      	movs	r2, #0
    2b42:	7003      	strb	r3, [r0, #0]
    2b44:	7043      	strb	r3, [r0, #1]
    2b46:	7083      	strb	r3, [r0, #2]
    2b48:	70c3      	strb	r3, [r0, #3]
    2b4a:	2100      	movs	r1, #0
    2b4c:	8303      	strh	r3, [r0, #24]
    2b4e:	6203      	str	r3, [r0, #32]
    2b50:	61c3      	str	r3, [r0, #28]
    2b52:	2401      	movs	r4, #1
    2b54:	7104      	strb	r4, [r0, #4]
    2b56:	24c0      	movs	r4, #192	; 0xc0
    2b58:	0164      	lsls	r4, r4, #5
    2b5a:	80c4      	strh	r4, [r0, #6]
    2b5c:	7201      	strb	r1, [r0, #8]
    2b5e:	7242      	strb	r2, [r0, #9]
    2b60:	7282      	strb	r2, [r0, #10]
    2b62:	72c2      	strb	r2, [r0, #11]
    2b64:	7302      	strb	r2, [r0, #12]
    2b66:	242a      	movs	r4, #42	; 0x2a
    2b68:	5502      	strb	r2, [r0, r4]
    2b6a:	7342      	strb	r2, [r0, #13]
    2b6c:	7382      	strb	r2, [r0, #14]
    2b6e:	73c2      	strb	r2, [r0, #15]
    2b70:	6103      	str	r3, [r0, #16]
    2b72:	7502      	strb	r2, [r0, #20]
    2b74:	3c06      	subs	r4, #6
    2b76:	5502      	strb	r2, [r0, r4]
    2b78:	84c3      	strh	r3, [r0, #38]	; 0x26
    2b7a:	8503      	strh	r3, [r0, #40]	; 0x28
    2b7c:	7541      	strb	r1, [r0, #21]
    2b7e:	bd10      	pop	{r4, pc}

00002b80 <adc_init>:
    2b80:	b5f0      	push	{r4, r5, r6, r7, lr}
    2b82:	464f      	mov	r7, r9
    2b84:	b480      	push	{r7}
    2b86:	b09a      	sub	sp, #104	; 0x68
    2b88:	0005      	movs	r5, r0
    2b8a:	000c      	movs	r4, r1
    2b8c:	0016      	movs	r6, r2
    2b8e:	0008      	movs	r0, r1
    2b90:	4ba9      	ldr	r3, [pc, #676]	; (2e38 <adc_init+0x2b8>)
    2b92:	4798      	blx	r3
    2b94:	602c      	str	r4, [r5, #0]
    2b96:	4aa9      	ldr	r2, [pc, #676]	; (2e3c <adc_init+0x2bc>)
    2b98:	6a11      	ldr	r1, [r2, #32]
    2b9a:	2308      	movs	r3, #8
    2b9c:	430b      	orrs	r3, r1
    2b9e:	6213      	str	r3, [r2, #32]
    2ba0:	7822      	ldrb	r2, [r4, #0]
    2ba2:	2305      	movs	r3, #5
    2ba4:	07d2      	lsls	r2, r2, #31
    2ba6:	d500      	bpl.n	2baa <adc_init+0x2a>
    2ba8:	e1c9      	b.n	2f3e <adc_init+0x3be>
    2baa:	682a      	ldr	r2, [r5, #0]
    2bac:	8c13      	ldrh	r3, [r2, #32]
    2bae:	b29b      	uxth	r3, r3
    2bb0:	2b00      	cmp	r3, #0
    2bb2:	d1fb      	bne.n	2bac <adc_init+0x2c>
    2bb4:	7822      	ldrb	r2, [r4, #0]
    2bb6:	331c      	adds	r3, #28
    2bb8:	0792      	lsls	r2, r2, #30
    2bba:	d500      	bpl.n	2bbe <adc_init+0x3e>
    2bbc:	e1bf      	b.n	2f3e <adc_init+0x3be>
    2bbe:	7873      	ldrb	r3, [r6, #1]
    2bc0:	712b      	strb	r3, [r5, #4]
    2bc2:	2b00      	cmp	r3, #0
    2bc4:	d104      	bne.n	2bd0 <adc_init+0x50>
    2bc6:	4a9e      	ldr	r2, [pc, #632]	; (2e40 <adc_init+0x2c0>)
    2bc8:	69d1      	ldr	r1, [r2, #28]
    2bca:	3304      	adds	r3, #4
    2bcc:	430b      	orrs	r3, r1
    2bce:	61d3      	str	r3, [r2, #28]
    2bd0:	2300      	movs	r3, #0
    2bd2:	60ab      	str	r3, [r5, #8]
    2bd4:	60eb      	str	r3, [r5, #12]
    2bd6:	612b      	str	r3, [r5, #16]
    2bd8:	76ab      	strb	r3, [r5, #26]
    2bda:	76eb      	strb	r3, [r5, #27]
    2bdc:	832b      	strh	r3, [r5, #24]
    2bde:	772b      	strb	r3, [r5, #28]
    2be0:	0080      	lsls	r0, r0, #2
    2be2:	4b98      	ldr	r3, [pc, #608]	; (2e44 <adc_init+0x2c4>)
    2be4:	50c5      	str	r5, [r0, r3]
    2be6:	232a      	movs	r3, #42	; 0x2a
    2be8:	5cf3      	ldrb	r3, [r6, r3]
    2bea:	2b00      	cmp	r3, #0
    2bec:	d105      	bne.n	2bfa <adc_init+0x7a>
    2bee:	7b33      	ldrb	r3, [r6, #12]
    2bf0:	2b00      	cmp	r3, #0
    2bf2:	d102      	bne.n	2bfa <adc_init+0x7a>
    2bf4:	3301      	adds	r3, #1
    2bf6:	776b      	strb	r3, [r5, #29]
    2bf8:	e001      	b.n	2bfe <adc_init+0x7e>
    2bfa:	2300      	movs	r3, #0
    2bfc:	776b      	strb	r3, [r5, #29]
    2bfe:	682f      	ldr	r7, [r5, #0]
    2c00:	7833      	ldrb	r3, [r6, #0]
    2c02:	466a      	mov	r2, sp
    2c04:	7013      	strb	r3, [r2, #0]
    2c06:	4669      	mov	r1, sp
    2c08:	201e      	movs	r0, #30
    2c0a:	4b8f      	ldr	r3, [pc, #572]	; (2e48 <adc_init+0x2c8>)
    2c0c:	4798      	blx	r3
    2c0e:	201e      	movs	r0, #30
    2c10:	4b8e      	ldr	r3, [pc, #568]	; (2e4c <adc_init+0x2cc>)
    2c12:	4798      	blx	r3
    2c14:	7934      	ldrb	r4, [r6, #4]
    2c16:	2260      	movs	r2, #96	; 0x60
    2c18:	498d      	ldr	r1, [pc, #564]	; (2e50 <adc_init+0x2d0>)
    2c1a:	a802      	add	r0, sp, #8
    2c1c:	4b8d      	ldr	r3, [pc, #564]	; (2e54 <adc_init+0x2d4>)
    2c1e:	4798      	blx	r3
    2c20:	2c13      	cmp	r4, #19
    2c22:	d80c      	bhi.n	2c3e <adc_init+0xbe>
    2c24:	00a4      	lsls	r4, r4, #2
    2c26:	ab02      	add	r3, sp, #8
    2c28:	58e0      	ldr	r0, [r4, r3]
    2c2a:	a901      	add	r1, sp, #4
    2c2c:	2300      	movs	r3, #0
    2c2e:	704b      	strb	r3, [r1, #1]
    2c30:	70cb      	strb	r3, [r1, #3]
    2c32:	708b      	strb	r3, [r1, #2]
    2c34:	3301      	adds	r3, #1
    2c36:	700b      	strb	r3, [r1, #0]
    2c38:	b2c0      	uxtb	r0, r0
    2c3a:	4b87      	ldr	r3, [pc, #540]	; (2e58 <adc_init+0x2d8>)
    2c3c:	4798      	blx	r3
    2c3e:	88f4      	ldrh	r4, [r6, #6]
    2c40:	2260      	movs	r2, #96	; 0x60
    2c42:	4983      	ldr	r1, [pc, #524]	; (2e50 <adc_init+0x2d0>)
    2c44:	a802      	add	r0, sp, #8
    2c46:	4b83      	ldr	r3, [pc, #524]	; (2e54 <adc_init+0x2d4>)
    2c48:	4798      	blx	r3
    2c4a:	2c13      	cmp	r4, #19
    2c4c:	d80c      	bhi.n	2c68 <adc_init+0xe8>
    2c4e:	00a4      	lsls	r4, r4, #2
    2c50:	ab02      	add	r3, sp, #8
    2c52:	58e0      	ldr	r0, [r4, r3]
    2c54:	a901      	add	r1, sp, #4
    2c56:	2300      	movs	r3, #0
    2c58:	704b      	strb	r3, [r1, #1]
    2c5a:	70cb      	strb	r3, [r1, #3]
    2c5c:	708b      	strb	r3, [r1, #2]
    2c5e:	3301      	adds	r3, #1
    2c60:	700b      	strb	r3, [r1, #0]
    2c62:	b2c0      	uxtb	r0, r0
    2c64:	4b7c      	ldr	r3, [pc, #496]	; (2e58 <adc_init+0x2d8>)
    2c66:	4798      	blx	r3
    2c68:	2400      	movs	r4, #0
    2c6a:	4b7a      	ldr	r3, [pc, #488]	; (2e54 <adc_init+0x2d4>)
    2c6c:	4699      	mov	r9, r3
    2c6e:	2301      	movs	r3, #1
    2c70:	40a3      	lsls	r3, r4
    2c72:	6932      	ldr	r2, [r6, #16]
    2c74:	421a      	tst	r2, r3
    2c76:	d012      	beq.n	2c9e <adc_init+0x11e>
    2c78:	2260      	movs	r2, #96	; 0x60
    2c7a:	4975      	ldr	r1, [pc, #468]	; (2e50 <adc_init+0x2d0>)
    2c7c:	a802      	add	r0, sp, #8
    2c7e:	47c8      	blx	r9
    2c80:	2c13      	cmp	r4, #19
    2c82:	d80c      	bhi.n	2c9e <adc_init+0x11e>
    2c84:	00a3      	lsls	r3, r4, #2
    2c86:	aa02      	add	r2, sp, #8
    2c88:	5898      	ldr	r0, [r3, r2]
    2c8a:	a901      	add	r1, sp, #4
    2c8c:	2300      	movs	r3, #0
    2c8e:	704b      	strb	r3, [r1, #1]
    2c90:	70cb      	strb	r3, [r1, #3]
    2c92:	708b      	strb	r3, [r1, #2]
    2c94:	3301      	adds	r3, #1
    2c96:	700b      	strb	r3, [r1, #0]
    2c98:	b2c0      	uxtb	r0, r0
    2c9a:	4b6f      	ldr	r3, [pc, #444]	; (2e58 <adc_init+0x2d8>)
    2c9c:	4798      	blx	r3
    2c9e:	3401      	adds	r4, #1
    2ca0:	2c14      	cmp	r4, #20
    2ca2:	d1e4      	bne.n	2c6e <adc_init+0xee>
    2ca4:	7b73      	ldrb	r3, [r6, #13]
    2ca6:	019a      	lsls	r2, r3, #6
    2ca8:	7bb3      	ldrb	r3, [r6, #14]
    2caa:	01db      	lsls	r3, r3, #7
    2cac:	4313      	orrs	r3, r2
    2cae:	b2db      	uxtb	r3, r3
    2cb0:	703b      	strb	r3, [r7, #0]
    2cb2:	7d33      	ldrb	r3, [r6, #20]
    2cb4:	01db      	lsls	r3, r3, #7
    2cb6:	7872      	ldrb	r2, [r6, #1]
    2cb8:	4313      	orrs	r3, r2
    2cba:	b2db      	uxtb	r3, r3
    2cbc:	70bb      	strb	r3, [r7, #2]
    2cbe:	78f3      	ldrb	r3, [r6, #3]
    2cc0:	2b34      	cmp	r3, #52	; 0x34
    2cc2:	d900      	bls.n	2cc6 <adc_init+0x146>
    2cc4:	e13a      	b.n	2f3c <adc_init+0x3bc>
    2cc6:	009b      	lsls	r3, r3, #2
    2cc8:	4a64      	ldr	r2, [pc, #400]	; (2e5c <adc_init+0x2dc>)
    2cca:	58d3      	ldr	r3, [r2, r3]
    2ccc:	469f      	mov	pc, r3
    2cce:	2004      	movs	r0, #4
    2cd0:	2110      	movs	r1, #16
    2cd2:	2202      	movs	r2, #2
    2cd4:	e01a      	b.n	2d0c <adc_init+0x18c>
    2cd6:	7a72      	ldrb	r2, [r6, #9]
    2cd8:	7a30      	ldrb	r0, [r6, #8]
    2cda:	2110      	movs	r1, #16
    2cdc:	e016      	b.n	2d0c <adc_init+0x18c>
    2cde:	2006      	movs	r0, #6
    2ce0:	2110      	movs	r1, #16
    2ce2:	2201      	movs	r2, #1
    2ce4:	e012      	b.n	2d0c <adc_init+0x18c>
    2ce6:	2008      	movs	r0, #8
    2ce8:	2110      	movs	r1, #16
    2cea:	2200      	movs	r2, #0
    2cec:	e00e      	b.n	2d0c <adc_init+0x18c>
    2cee:	2000      	movs	r0, #0
    2cf0:	2130      	movs	r1, #48	; 0x30
    2cf2:	2200      	movs	r2, #0
    2cf4:	e00a      	b.n	2d0c <adc_init+0x18c>
    2cf6:	2000      	movs	r0, #0
    2cf8:	2120      	movs	r1, #32
    2cfa:	2200      	movs	r2, #0
    2cfc:	e006      	b.n	2d0c <adc_init+0x18c>
    2cfe:	2000      	movs	r0, #0
    2d00:	2100      	movs	r1, #0
    2d02:	2200      	movs	r2, #0
    2d04:	e002      	b.n	2d0c <adc_init+0x18c>
    2d06:	2002      	movs	r0, #2
    2d08:	2110      	movs	r1, #16
    2d0a:	2201      	movs	r2, #1
    2d0c:	0112      	lsls	r2, r2, #4
    2d0e:	2370      	movs	r3, #112	; 0x70
    2d10:	4013      	ands	r3, r2
    2d12:	4303      	orrs	r3, r0
    2d14:	733b      	strb	r3, [r7, #12]
    2d16:	682a      	ldr	r2, [r5, #0]
    2d18:	8c13      	ldrh	r3, [r2, #32]
    2d1a:	b29b      	uxth	r3, r3
    2d1c:	2b00      	cmp	r3, #0
    2d1e:	d1fb      	bne.n	2d18 <adc_init+0x198>
    2d20:	7d72      	ldrb	r2, [r6, #21]
    2d22:	3317      	adds	r3, #23
    2d24:	2a3f      	cmp	r2, #63	; 0x3f
    2d26:	d900      	bls.n	2d2a <adc_init+0x1aa>
    2d28:	e109      	b.n	2f3e <adc_init+0x3be>
    2d2a:	7bf3      	ldrb	r3, [r6, #15]
    2d2c:	01db      	lsls	r3, r3, #7
    2d2e:	431a      	orrs	r2, r3
    2d30:	b2d2      	uxtb	r2, r2
    2d32:	737a      	strb	r2, [r7, #13]
    2d34:	682a      	ldr	r2, [r5, #0]
    2d36:	8c13      	ldrh	r3, [r2, #32]
    2d38:	b29b      	uxth	r3, r3
    2d3a:	2b00      	cmp	r3, #0
    2d3c:	d1fb      	bne.n	2d36 <adc_init+0x1b6>
    2d3e:	78b3      	ldrb	r3, [r6, #2]
    2d40:	707b      	strb	r3, [r7, #1]
    2d42:	2324      	movs	r3, #36	; 0x24
    2d44:	5cf2      	ldrb	r2, [r6, r3]
    2d46:	00d2      	lsls	r2, r2, #3
    2d48:	7b33      	ldrb	r3, [r6, #12]
    2d4a:	009b      	lsls	r3, r3, #2
    2d4c:	4313      	orrs	r3, r2
    2d4e:	7af2      	ldrb	r2, [r6, #11]
    2d50:	431a      	orrs	r2, r3
    2d52:	7ab3      	ldrb	r3, [r6, #10]
    2d54:	005b      	lsls	r3, r3, #1
    2d56:	4313      	orrs	r3, r2
    2d58:	430b      	orrs	r3, r1
    2d5a:	817b      	strh	r3, [r7, #10]
    2d5c:	682a      	ldr	r2, [r5, #0]
    2d5e:	8c13      	ldrh	r3, [r2, #32]
    2d60:	b29b      	uxth	r3, r3
    2d62:	2b00      	cmp	r3, #0
    2d64:	d1fb      	bne.n	2d5e <adc_init+0x1de>
    2d66:	8b32      	ldrh	r2, [r6, #24]
    2d68:	2a00      	cmp	r2, #0
    2d6a:	d100      	bne.n	2d6e <adc_init+0x1ee>
    2d6c:	e098      	b.n	2ea0 <adc_init+0x320>
    2d6e:	2910      	cmp	r1, #16
    2d70:	d07a      	beq.n	2e68 <adc_init+0x2e8>
    2d72:	d802      	bhi.n	2d7a <adc_init+0x1fa>
    2d74:	2900      	cmp	r1, #0
    2d76:	d03e      	beq.n	2df6 <adc_init+0x276>
    2d78:	e092      	b.n	2ea0 <adc_init+0x320>
    2d7a:	2920      	cmp	r1, #32
    2d7c:	d01a      	beq.n	2db4 <adc_init+0x234>
    2d7e:	2930      	cmp	r1, #48	; 0x30
    2d80:	d000      	beq.n	2d84 <adc_init+0x204>
    2d82:	e08d      	b.n	2ea0 <adc_init+0x320>
    2d84:	7af3      	ldrb	r3, [r6, #11]
    2d86:	2b00      	cmp	r3, #0
    2d88:	d00a      	beq.n	2da0 <adc_init+0x220>
    2d8a:	69f1      	ldr	r1, [r6, #28]
    2d8c:	3180      	adds	r1, #128	; 0x80
    2d8e:	2317      	movs	r3, #23
    2d90:	29ff      	cmp	r1, #255	; 0xff
    2d92:	d900      	bls.n	2d96 <adc_init+0x216>
    2d94:	e0d3      	b.n	2f3e <adc_init+0x3be>
    2d96:	6a31      	ldr	r1, [r6, #32]
    2d98:	3180      	adds	r1, #128	; 0x80
    2d9a:	29ff      	cmp	r1, #255	; 0xff
    2d9c:	d900      	bls.n	2da0 <adc_init+0x220>
    2d9e:	e0ce      	b.n	2f3e <adc_init+0x3be>
    2da0:	2317      	movs	r3, #23
    2da2:	69f1      	ldr	r1, [r6, #28]
    2da4:	29ff      	cmp	r1, #255	; 0xff
    2da6:	dd00      	ble.n	2daa <adc_init+0x22a>
    2da8:	e0c9      	b.n	2f3e <adc_init+0x3be>
    2daa:	6a31      	ldr	r1, [r6, #32]
    2dac:	29ff      	cmp	r1, #255	; 0xff
    2dae:	dd00      	ble.n	2db2 <adc_init+0x232>
    2db0:	e0c5      	b.n	2f3e <adc_init+0x3be>
    2db2:	e075      	b.n	2ea0 <adc_init+0x320>
    2db4:	7af3      	ldrb	r3, [r6, #11]
    2db6:	2b00      	cmp	r3, #0
    2db8:	d012      	beq.n	2de0 <adc_init+0x260>
    2dba:	69f3      	ldr	r3, [r6, #28]
    2dbc:	2080      	movs	r0, #128	; 0x80
    2dbe:	0080      	lsls	r0, r0, #2
    2dc0:	4684      	mov	ip, r0
    2dc2:	4463      	add	r3, ip
    2dc4:	0019      	movs	r1, r3
    2dc6:	2317      	movs	r3, #23
    2dc8:	4825      	ldr	r0, [pc, #148]	; (2e60 <adc_init+0x2e0>)
    2dca:	4281      	cmp	r1, r0
    2dcc:	d900      	bls.n	2dd0 <adc_init+0x250>
    2dce:	e0b6      	b.n	2f3e <adc_init+0x3be>
    2dd0:	6a33      	ldr	r3, [r6, #32]
    2dd2:	4463      	add	r3, ip
    2dd4:	0019      	movs	r1, r3
    2dd6:	2317      	movs	r3, #23
    2dd8:	4821      	ldr	r0, [pc, #132]	; (2e60 <adc_init+0x2e0>)
    2dda:	4281      	cmp	r1, r0
    2ddc:	d900      	bls.n	2de0 <adc_init+0x260>
    2dde:	e0ae      	b.n	2f3e <adc_init+0x3be>
    2de0:	2317      	movs	r3, #23
    2de2:	491f      	ldr	r1, [pc, #124]	; (2e60 <adc_init+0x2e0>)
    2de4:	69f0      	ldr	r0, [r6, #28]
    2de6:	4288      	cmp	r0, r1
    2de8:	dd00      	ble.n	2dec <adc_init+0x26c>
    2dea:	e0a8      	b.n	2f3e <adc_init+0x3be>
    2dec:	6a30      	ldr	r0, [r6, #32]
    2dee:	4288      	cmp	r0, r1
    2df0:	dd00      	ble.n	2df4 <adc_init+0x274>
    2df2:	e0a4      	b.n	2f3e <adc_init+0x3be>
    2df4:	e054      	b.n	2ea0 <adc_init+0x320>
    2df6:	7af3      	ldrb	r3, [r6, #11]
    2df8:	2b00      	cmp	r3, #0
    2dfa:	d012      	beq.n	2e22 <adc_init+0x2a2>
    2dfc:	69f3      	ldr	r3, [r6, #28]
    2dfe:	2080      	movs	r0, #128	; 0x80
    2e00:	0100      	lsls	r0, r0, #4
    2e02:	4684      	mov	ip, r0
    2e04:	4463      	add	r3, ip
    2e06:	0019      	movs	r1, r3
    2e08:	2317      	movs	r3, #23
    2e0a:	4816      	ldr	r0, [pc, #88]	; (2e64 <adc_init+0x2e4>)
    2e0c:	4281      	cmp	r1, r0
    2e0e:	d900      	bls.n	2e12 <adc_init+0x292>
    2e10:	e095      	b.n	2f3e <adc_init+0x3be>
    2e12:	6a33      	ldr	r3, [r6, #32]
    2e14:	4463      	add	r3, ip
    2e16:	0019      	movs	r1, r3
    2e18:	2317      	movs	r3, #23
    2e1a:	4812      	ldr	r0, [pc, #72]	; (2e64 <adc_init+0x2e4>)
    2e1c:	4281      	cmp	r1, r0
    2e1e:	d900      	bls.n	2e22 <adc_init+0x2a2>
    2e20:	e08d      	b.n	2f3e <adc_init+0x3be>
    2e22:	2317      	movs	r3, #23
    2e24:	490f      	ldr	r1, [pc, #60]	; (2e64 <adc_init+0x2e4>)
    2e26:	69f0      	ldr	r0, [r6, #28]
    2e28:	4288      	cmp	r0, r1
    2e2a:	dd00      	ble.n	2e2e <adc_init+0x2ae>
    2e2c:	e087      	b.n	2f3e <adc_init+0x3be>
    2e2e:	6a30      	ldr	r0, [r6, #32]
    2e30:	4288      	cmp	r0, r1
    2e32:	dd00      	ble.n	2e36 <adc_init+0x2b6>
    2e34:	e083      	b.n	2f3e <adc_init+0x3be>
    2e36:	e033      	b.n	2ea0 <adc_init+0x320>
    2e38:	00002b39 	.word	0x00002b39
    2e3c:	40000400 	.word	0x40000400
    2e40:	40001400 	.word	0x40001400
    2e44:	20003d0c 	.word	0x20003d0c
    2e48:	0000354d 	.word	0x0000354d
    2e4c:	000034dd 	.word	0x000034dd
    2e50:	00006660 	.word	0x00006660
    2e54:	00005d7d 	.word	0x00005d7d
    2e58:	00003649 	.word	0x00003649
    2e5c:	0000658c 	.word	0x0000658c
    2e60:	000003ff 	.word	0x000003ff
    2e64:	00000fff 	.word	0x00000fff
    2e68:	7af3      	ldrb	r3, [r6, #11]
    2e6a:	2b00      	cmp	r3, #0
    2e6c:	d010      	beq.n	2e90 <adc_init+0x310>
    2e6e:	69f3      	ldr	r3, [r6, #28]
    2e70:	2080      	movs	r0, #128	; 0x80
    2e72:	0200      	lsls	r0, r0, #8
    2e74:	4684      	mov	ip, r0
    2e76:	4463      	add	r3, ip
    2e78:	0019      	movs	r1, r3
    2e7a:	2317      	movs	r3, #23
    2e7c:	4832      	ldr	r0, [pc, #200]	; (2f48 <adc_init+0x3c8>)
    2e7e:	4281      	cmp	r1, r0
    2e80:	d85d      	bhi.n	2f3e <adc_init+0x3be>
    2e82:	6a33      	ldr	r3, [r6, #32]
    2e84:	4463      	add	r3, ip
    2e86:	0019      	movs	r1, r3
    2e88:	2317      	movs	r3, #23
    2e8a:	482f      	ldr	r0, [pc, #188]	; (2f48 <adc_init+0x3c8>)
    2e8c:	4281      	cmp	r1, r0
    2e8e:	d856      	bhi.n	2f3e <adc_init+0x3be>
    2e90:	2317      	movs	r3, #23
    2e92:	492d      	ldr	r1, [pc, #180]	; (2f48 <adc_init+0x3c8>)
    2e94:	69f0      	ldr	r0, [r6, #28]
    2e96:	4288      	cmp	r0, r1
    2e98:	dc51      	bgt.n	2f3e <adc_init+0x3be>
    2e9a:	6a30      	ldr	r0, [r6, #32]
    2e9c:	4288      	cmp	r0, r1
    2e9e:	dc4e      	bgt.n	2f3e <adc_init+0x3be>
    2ea0:	897b      	ldrh	r3, [r7, #10]
    2ea2:	431a      	orrs	r2, r3
    2ea4:	817a      	strh	r2, [r7, #10]
    2ea6:	682a      	ldr	r2, [r5, #0]
    2ea8:	8c13      	ldrh	r3, [r2, #32]
    2eaa:	b29b      	uxth	r3, r3
    2eac:	2b00      	cmp	r3, #0
    2eae:	d1fb      	bne.n	2ea8 <adc_init+0x328>
    2eb0:	8bb3      	ldrh	r3, [r6, #28]
    2eb2:	81fb      	strh	r3, [r7, #14]
    2eb4:	682a      	ldr	r2, [r5, #0]
    2eb6:	8c13      	ldrh	r3, [r2, #32]
    2eb8:	b29b      	uxth	r3, r3
    2eba:	2b00      	cmp	r3, #0
    2ebc:	d1fb      	bne.n	2eb6 <adc_init+0x336>
    2ebe:	8c33      	ldrh	r3, [r6, #32]
    2ec0:	823b      	strh	r3, [r7, #16]
    2ec2:	682a      	ldr	r2, [r5, #0]
    2ec4:	8c13      	ldrh	r3, [r2, #32]
    2ec6:	b29b      	uxth	r3, r3
    2ec8:	2b00      	cmp	r3, #0
    2eca:	d1fb      	bne.n	2ec4 <adc_init+0x344>
    2ecc:	7932      	ldrb	r2, [r6, #4]
    2ece:	88f3      	ldrh	r3, [r6, #6]
    2ed0:	4313      	orrs	r3, r2
    2ed2:	813b      	strh	r3, [r7, #8]
    2ed4:	682a      	ldr	r2, [r5, #0]
    2ed6:	8c13      	ldrh	r3, [r2, #32]
    2ed8:	b29b      	uxth	r3, r3
    2eda:	2b00      	cmp	r3, #0
    2edc:	d1fb      	bne.n	2ed6 <adc_init+0x356>
    2ede:	332a      	adds	r3, #42	; 0x2a
    2ee0:	5cf3      	ldrb	r3, [r6, r3]
    2ee2:	70fb      	strb	r3, [r7, #3]
    2ee4:	2307      	movs	r3, #7
    2ee6:	713b      	strb	r3, [r7, #4]
    2ee8:	331d      	adds	r3, #29
    2eea:	5cf3      	ldrb	r3, [r6, r3]
    2eec:	2b00      	cmp	r3, #0
    2eee:	d019      	beq.n	2f24 <adc_init+0x3a4>
    2ef0:	8cf2      	ldrh	r2, [r6, #38]	; 0x26
    2ef2:	2317      	movs	r3, #23
    2ef4:	4915      	ldr	r1, [pc, #84]	; (2f4c <adc_init+0x3cc>)
    2ef6:	428a      	cmp	r2, r1
    2ef8:	d821      	bhi.n	2f3e <adc_init+0x3be>
    2efa:	827a      	strh	r2, [r7, #18]
    2efc:	682a      	ldr	r2, [r5, #0]
    2efe:	8c13      	ldrh	r3, [r2, #32]
    2f00:	b29b      	uxth	r3, r3
    2f02:	2b00      	cmp	r3, #0
    2f04:	d1fb      	bne.n	2efe <adc_init+0x37e>
    2f06:	8d31      	ldrh	r1, [r6, #40]	; 0x28
    2f08:	2380      	movs	r3, #128	; 0x80
    2f0a:	011b      	lsls	r3, r3, #4
    2f0c:	18ca      	adds	r2, r1, r3
    2f0e:	b292      	uxth	r2, r2
    2f10:	2317      	movs	r3, #23
    2f12:	480e      	ldr	r0, [pc, #56]	; (2f4c <adc_init+0x3cc>)
    2f14:	4282      	cmp	r2, r0
    2f16:	d812      	bhi.n	2f3e <adc_init+0x3be>
    2f18:	82b9      	strh	r1, [r7, #20]
    2f1a:	682a      	ldr	r2, [r5, #0]
    2f1c:	8c13      	ldrh	r3, [r2, #32]
    2f1e:	b29b      	uxth	r3, r3
    2f20:	2b00      	cmp	r3, #0
    2f22:	d1fb      	bne.n	2f1c <adc_init+0x39c>
    2f24:	4b0a      	ldr	r3, [pc, #40]	; (2f50 <adc_init+0x3d0>)
    2f26:	681b      	ldr	r3, [r3, #0]
    2f28:	0219      	lsls	r1, r3, #8
    2f2a:	22e0      	movs	r2, #224	; 0xe0
    2f2c:	00d2      	lsls	r2, r2, #3
    2f2e:	400a      	ands	r2, r1
    2f30:	069b      	lsls	r3, r3, #26
    2f32:	0f5b      	lsrs	r3, r3, #29
    2f34:	4313      	orrs	r3, r2
    2f36:	85bb      	strh	r3, [r7, #44]	; 0x2c
    2f38:	2300      	movs	r3, #0
    2f3a:	e000      	b.n	2f3e <adc_init+0x3be>
    2f3c:	2317      	movs	r3, #23
    2f3e:	0018      	movs	r0, r3
    2f40:	b01a      	add	sp, #104	; 0x68
    2f42:	bc04      	pop	{r2}
    2f44:	4691      	mov	r9, r2
    2f46:	bdf0      	pop	{r4, r5, r6, r7, pc}
    2f48:	0000ffff 	.word	0x0000ffff
    2f4c:	00000fff 	.word	0x00000fff
    2f50:	00806020 	.word	0x00806020

00002f54 <ADC_Handler>:
    2f54:	b570      	push	{r4, r5, r6, lr}
    2f56:	4b2d      	ldr	r3, [pc, #180]	; (300c <ADC_Handler+0xb8>)
    2f58:	681c      	ldr	r4, [r3, #0]
    2f5a:	6823      	ldr	r3, [r4, #0]
    2f5c:	799d      	ldrb	r5, [r3, #6]
    2f5e:	b2ed      	uxtb	r5, r5
    2f60:	07ea      	lsls	r2, r5, #31
    2f62:	d535      	bpl.n	2fd0 <ADC_Handler+0x7c>
    2f64:	7ee2      	ldrb	r2, [r4, #27]
    2f66:	07d2      	lsls	r2, r2, #31
    2f68:	d532      	bpl.n	2fd0 <ADC_Handler+0x7c>
    2f6a:	7ea2      	ldrb	r2, [r4, #26]
    2f6c:	07d2      	lsls	r2, r2, #31
    2f6e:	d52f      	bpl.n	2fd0 <ADC_Handler+0x7c>
    2f70:	2201      	movs	r2, #1
    2f72:	719a      	strb	r2, [r3, #6]
    2f74:	6962      	ldr	r2, [r4, #20]
    2f76:	1c93      	adds	r3, r2, #2
    2f78:	6163      	str	r3, [r4, #20]
    2f7a:	6823      	ldr	r3, [r4, #0]
    2f7c:	8c9b      	ldrh	r3, [r3, #36]	; 0x24
    2f7e:	b29b      	uxth	r3, r3
    2f80:	8013      	strh	r3, [r2, #0]
    2f82:	8b23      	ldrh	r3, [r4, #24]
    2f84:	3b01      	subs	r3, #1
    2f86:	b29b      	uxth	r3, r3
    2f88:	8323      	strh	r3, [r4, #24]
    2f8a:	2b00      	cmp	r3, #0
    2f8c:	d015      	beq.n	2fba <ADC_Handler+0x66>
    2f8e:	7f63      	ldrb	r3, [r4, #29]
    2f90:	2b00      	cmp	r3, #0
    2f92:	d01d      	beq.n	2fd0 <ADC_Handler+0x7c>
    2f94:	6822      	ldr	r2, [r4, #0]
    2f96:	79d3      	ldrb	r3, [r2, #7]
    2f98:	b25b      	sxtb	r3, r3
    2f9a:	2b00      	cmp	r3, #0
    2f9c:	db18      	blt.n	2fd0 <ADC_Handler+0x7c>
    2f9e:	8c13      	ldrh	r3, [r2, #32]
    2fa0:	b29b      	uxth	r3, r3
    2fa2:	2b00      	cmp	r3, #0
    2fa4:	d1fb      	bne.n	2f9e <ADC_Handler+0x4a>
    2fa6:	7e11      	ldrb	r1, [r2, #24]
    2fa8:	3302      	adds	r3, #2
    2faa:	430b      	orrs	r3, r1
    2fac:	7613      	strb	r3, [r2, #24]
    2fae:	6822      	ldr	r2, [r4, #0]
    2fb0:	8c13      	ldrh	r3, [r2, #32]
    2fb2:	b29b      	uxth	r3, r3
    2fb4:	2b00      	cmp	r3, #0
    2fb6:	d1fb      	bne.n	2fb0 <ADC_Handler+0x5c>
    2fb8:	e00a      	b.n	2fd0 <ADC_Handler+0x7c>
    2fba:	7f23      	ldrb	r3, [r4, #28]
    2fbc:	2b05      	cmp	r3, #5
    2fbe:	d107      	bne.n	2fd0 <ADC_Handler+0x7c>
    2fc0:	2300      	movs	r3, #0
    2fc2:	7723      	strb	r3, [r4, #28]
    2fc4:	3301      	adds	r3, #1
    2fc6:	6822      	ldr	r2, [r4, #0]
    2fc8:	7113      	strb	r3, [r2, #4]
    2fca:	0020      	movs	r0, r4
    2fcc:	68a3      	ldr	r3, [r4, #8]
    2fce:	4798      	blx	r3
    2fd0:	076b      	lsls	r3, r5, #29
    2fd2:	d50b      	bpl.n	2fec <ADC_Handler+0x98>
    2fd4:	2304      	movs	r3, #4
    2fd6:	6822      	ldr	r2, [r4, #0]
    2fd8:	7193      	strb	r3, [r2, #6]
    2fda:	7ee3      	ldrb	r3, [r4, #27]
    2fdc:	079b      	lsls	r3, r3, #30
    2fde:	d505      	bpl.n	2fec <ADC_Handler+0x98>
    2fe0:	7ea3      	ldrb	r3, [r4, #26]
    2fe2:	079b      	lsls	r3, r3, #30
    2fe4:	d502      	bpl.n	2fec <ADC_Handler+0x98>
    2fe6:	0020      	movs	r0, r4
    2fe8:	68e3      	ldr	r3, [r4, #12]
    2fea:	4798      	blx	r3
    2fec:	07ab      	lsls	r3, r5, #30
    2fee:	d50b      	bpl.n	3008 <ADC_Handler+0xb4>
    2ff0:	2302      	movs	r3, #2
    2ff2:	6822      	ldr	r2, [r4, #0]
    2ff4:	7193      	strb	r3, [r2, #6]
    2ff6:	7ee3      	ldrb	r3, [r4, #27]
    2ff8:	075b      	lsls	r3, r3, #29
    2ffa:	d505      	bpl.n	3008 <ADC_Handler+0xb4>
    2ffc:	7ea3      	ldrb	r3, [r4, #26]
    2ffe:	075b      	lsls	r3, r3, #29
    3000:	d502      	bpl.n	3008 <ADC_Handler+0xb4>
    3002:	6923      	ldr	r3, [r4, #16]
    3004:	0020      	movs	r0, r4
    3006:	4798      	blx	r3
    3008:	bd70      	pop	{r4, r5, r6, pc}
    300a:	46c0      	nop			; (mov r8, r8)
    300c:	20003d0c 	.word	0x20003d0c

00003010 <adc_register_callback>:
    3010:	1c93      	adds	r3, r2, #2
    3012:	009b      	lsls	r3, r3, #2
    3014:	5019      	str	r1, [r3, r0]
    3016:	2301      	movs	r3, #1
    3018:	4093      	lsls	r3, r2
    301a:	7e82      	ldrb	r2, [r0, #26]
    301c:	4313      	orrs	r3, r2
    301e:	7683      	strb	r3, [r0, #26]
    3020:	4770      	bx	lr
    3022:	46c0      	nop			; (mov r8, r8)

00003024 <adc_read_buffer_job>:
    3024:	b510      	push	{r4, lr}
    3026:	0004      	movs	r4, r0
    3028:	8b03      	ldrh	r3, [r0, #24]
    302a:	b29b      	uxth	r3, r3
    302c:	2005      	movs	r0, #5
    302e:	2b00      	cmp	r3, #0
    3030:	d11d      	bne.n	306e <adc_read_buffer_job+0x4a>
    3032:	7f23      	ldrb	r3, [r4, #28]
    3034:	b2d8      	uxtb	r0, r3
    3036:	2805      	cmp	r0, #5
    3038:	d019      	beq.n	306e <adc_read_buffer_job+0x4a>
    303a:	2305      	movs	r3, #5
    303c:	7723      	strb	r3, [r4, #28]
    303e:	8322      	strh	r2, [r4, #24]
    3040:	6161      	str	r1, [r4, #20]
    3042:	3b04      	subs	r3, #4
    3044:	6822      	ldr	r2, [r4, #0]
    3046:	7153      	strb	r3, [r2, #5]
    3048:	7f63      	ldrb	r3, [r4, #29]
    304a:	2000      	movs	r0, #0
    304c:	2b00      	cmp	r3, #0
    304e:	d00e      	beq.n	306e <adc_read_buffer_job+0x4a>
    3050:	6822      	ldr	r2, [r4, #0]
    3052:	8c13      	ldrh	r3, [r2, #32]
    3054:	b29b      	uxth	r3, r3
    3056:	2b00      	cmp	r3, #0
    3058:	d1fb      	bne.n	3052 <adc_read_buffer_job+0x2e>
    305a:	7e11      	ldrb	r1, [r2, #24]
    305c:	3302      	adds	r3, #2
    305e:	430b      	orrs	r3, r1
    3060:	7613      	strb	r3, [r2, #24]
    3062:	6822      	ldr	r2, [r4, #0]
    3064:	8c13      	ldrh	r3, [r2, #32]
    3066:	b29b      	uxth	r3, r3
    3068:	2b00      	cmp	r3, #0
    306a:	d1fb      	bne.n	3064 <adc_read_buffer_job+0x40>
    306c:	2000      	movs	r0, #0
    306e:	bd10      	pop	{r4, pc}

00003070 <opamp_module_init>:
    3070:	b500      	push	{lr}
    3072:	b083      	sub	sp, #12
    3074:	a801      	add	r0, sp, #4
    3076:	2300      	movs	r3, #0
    3078:	7003      	strb	r3, [r0, #0]
    307a:	4b09      	ldr	r3, [pc, #36]	; (30a0 <opamp_module_init+0x30>)
    307c:	4798      	blx	r3
    307e:	4a09      	ldr	r2, [pc, #36]	; (30a4 <opamp_module_init+0x34>)
    3080:	6a11      	ldr	r1, [r2, #32]
    3082:	2340      	movs	r3, #64	; 0x40
    3084:	430b      	orrs	r3, r1
    3086:	6213      	str	r3, [r2, #32]
    3088:	4b07      	ldr	r3, [pc, #28]	; (30a8 <opamp_module_init+0x38>)
    308a:	7819      	ldrb	r1, [r3, #0]
    308c:	2201      	movs	r2, #1
    308e:	430a      	orrs	r2, r1
    3090:	701a      	strb	r2, [r3, #0]
    3092:	7819      	ldrb	r1, [r3, #0]
    3094:	2202      	movs	r2, #2
    3096:	430a      	orrs	r2, r1
    3098:	701a      	strb	r2, [r3, #0]
    309a:	b003      	add	sp, #12
    309c:	bd00      	pop	{pc}
    309e:	46c0      	nop			; (mov r8, r8)
    30a0:	00003251 	.word	0x00003251
    30a4:	40000400 	.word	0x40000400
    30a8:	43001800 	.word	0x43001800

000030ac <opamp2_get_config_defaults>:
    30ac:	2380      	movs	r3, #128	; 0x80
    30ae:	01db      	lsls	r3, r3, #7
    30b0:	8143      	strh	r3, [r0, #10]
    30b2:	2300      	movs	r3, #0
    30b4:	7303      	strb	r3, [r0, #12]
    30b6:	7343      	strb	r3, [r0, #13]
    30b8:	7383      	strb	r3, [r0, #14]
    30ba:	73c3      	strb	r3, [r0, #15]
    30bc:	7403      	strb	r3, [r0, #16]
    30be:	7443      	strb	r3, [r0, #17]
    30c0:	7483      	strb	r3, [r0, #18]
    30c2:	2280      	movs	r2, #128	; 0x80
    30c4:	0392      	lsls	r2, r2, #14
    30c6:	6002      	str	r2, [r0, #0]
    30c8:	6043      	str	r3, [r0, #4]
    30ca:	23c0      	movs	r3, #192	; 0xc0
    30cc:	015b      	lsls	r3, r3, #5
    30ce:	8103      	strh	r3, [r0, #8]
    30d0:	4770      	bx	lr
    30d2:	46c0      	nop			; (mov r8, r8)

000030d4 <opamp2_set_config>:
    30d4:	7b03      	ldrb	r3, [r0, #12]
    30d6:	1e5a      	subs	r2, r3, #1
    30d8:	4193      	sbcs	r3, r2
    30da:	029b      	lsls	r3, r3, #10
    30dc:	7b42      	ldrb	r2, [r0, #13]
    30de:	2a00      	cmp	r2, #0
    30e0:	d002      	beq.n	30e8 <opamp2_set_config+0x14>
    30e2:	2280      	movs	r2, #128	; 0x80
    30e4:	0092      	lsls	r2, r2, #2
    30e6:	4313      	orrs	r3, r2
    30e8:	7b82      	ldrb	r2, [r0, #14]
    30ea:	2a00      	cmp	r2, #0
    30ec:	d002      	beq.n	30f4 <opamp2_set_config+0x20>
    30ee:	2280      	movs	r2, #128	; 0x80
    30f0:	0052      	lsls	r2, r2, #1
    30f2:	4313      	orrs	r3, r2
    30f4:	7bc2      	ldrb	r2, [r0, #15]
    30f6:	2a00      	cmp	r2, #0
    30f8:	d001      	beq.n	30fe <opamp2_set_config+0x2a>
    30fa:	2280      	movs	r2, #128	; 0x80
    30fc:	4313      	orrs	r3, r2
    30fe:	7c02      	ldrb	r2, [r0, #16]
    3100:	2a00      	cmp	r2, #0
    3102:	d001      	beq.n	3108 <opamp2_set_config+0x34>
    3104:	2240      	movs	r2, #64	; 0x40
    3106:	4313      	orrs	r3, r2
    3108:	7c82      	ldrb	r2, [r0, #18]
    310a:	2a00      	cmp	r2, #0
    310c:	d001      	beq.n	3112 <opamp2_set_config+0x3e>
    310e:	2204      	movs	r2, #4
    3110:	4313      	orrs	r3, r2
    3112:	6801      	ldr	r1, [r0, #0]
    3114:	6842      	ldr	r2, [r0, #4]
    3116:	4311      	orrs	r1, r2
    3118:	8942      	ldrh	r2, [r0, #10]
    311a:	430a      	orrs	r2, r1
    311c:	7c41      	ldrb	r1, [r0, #17]
    311e:	430a      	orrs	r2, r1
    3120:	8901      	ldrh	r1, [r0, #8]
    3122:	430a      	orrs	r2, r1
    3124:	4313      	orrs	r3, r2
    3126:	4a01      	ldr	r2, [pc, #4]	; (312c <opamp2_set_config+0x58>)
    3128:	60d3      	str	r3, [r2, #12]
    312a:	4770      	bx	lr
    312c:	43001800 	.word	0x43001800

00003130 <opamp_enable>:
    3130:	2800      	cmp	r0, #0
    3132:	d105      	bne.n	3140 <opamp_enable+0x10>
    3134:	4a0a      	ldr	r2, [pc, #40]	; (3160 <opamp_enable+0x30>)
    3136:	6851      	ldr	r1, [r2, #4]
    3138:	2302      	movs	r3, #2
    313a:	430b      	orrs	r3, r1
    313c:	6053      	str	r3, [r2, #4]
    313e:	e00e      	b.n	315e <opamp_enable+0x2e>
    3140:	2801      	cmp	r0, #1
    3142:	d105      	bne.n	3150 <opamp_enable+0x20>
    3144:	4a06      	ldr	r2, [pc, #24]	; (3160 <opamp_enable+0x30>)
    3146:	6891      	ldr	r1, [r2, #8]
    3148:	2302      	movs	r3, #2
    314a:	430b      	orrs	r3, r1
    314c:	6093      	str	r3, [r2, #8]
    314e:	e006      	b.n	315e <opamp_enable+0x2e>
    3150:	2802      	cmp	r0, #2
    3152:	d104      	bne.n	315e <opamp_enable+0x2e>
    3154:	4a02      	ldr	r2, [pc, #8]	; (3160 <opamp_enable+0x30>)
    3156:	68d1      	ldr	r1, [r2, #12]
    3158:	2302      	movs	r3, #2
    315a:	430b      	orrs	r3, r1
    315c:	60d3      	str	r3, [r2, #12]
    315e:	4770      	bx	lr
    3160:	43001800 	.word	0x43001800

00003164 <opamp_is_ready>:
    3164:	1e03      	subs	r3, r0, #0
    3166:	d105      	bne.n	3174 <opamp_is_ready+0x10>
    3168:	4b0a      	ldr	r3, [pc, #40]	; (3194 <opamp_is_ready+0x30>)
    316a:	7898      	ldrb	r0, [r3, #2]
    316c:	07c0      	lsls	r0, r0, #31
    316e:	0fc0      	lsrs	r0, r0, #31
    3170:	b2c0      	uxtb	r0, r0
    3172:	e00d      	b.n	3190 <opamp_is_ready+0x2c>
    3174:	2801      	cmp	r0, #1
    3176:	d104      	bne.n	3182 <opamp_is_ready+0x1e>
    3178:	4b06      	ldr	r3, [pc, #24]	; (3194 <opamp_is_ready+0x30>)
    317a:	7898      	ldrb	r0, [r3, #2]
    317c:	0780      	lsls	r0, r0, #30
    317e:	0fc0      	lsrs	r0, r0, #31
    3180:	e006      	b.n	3190 <opamp_is_ready+0x2c>
    3182:	2000      	movs	r0, #0
    3184:	2b02      	cmp	r3, #2
    3186:	d103      	bne.n	3190 <opamp_is_ready+0x2c>
    3188:	4b02      	ldr	r3, [pc, #8]	; (3194 <opamp_is_ready+0x30>)
    318a:	7898      	ldrb	r0, [r3, #2]
    318c:	0740      	lsls	r0, r0, #29
    318e:	0fc0      	lsrs	r0, r0, #31
    3190:	4770      	bx	lr
    3192:	46c0      	nop			; (mov r8, r8)
    3194:	43001800 	.word	0x43001800

00003198 <port_pin_set_config>:
    3198:	b500      	push	{lr}
    319a:	b083      	sub	sp, #12
    319c:	ab01      	add	r3, sp, #4
    319e:	2280      	movs	r2, #128	; 0x80
    31a0:	701a      	strb	r2, [r3, #0]
    31a2:	780a      	ldrb	r2, [r1, #0]
    31a4:	705a      	strb	r2, [r3, #1]
    31a6:	784a      	ldrb	r2, [r1, #1]
    31a8:	709a      	strb	r2, [r3, #2]
    31aa:	788a      	ldrb	r2, [r1, #2]
    31ac:	70da      	strb	r2, [r3, #3]
    31ae:	0019      	movs	r1, r3
    31b0:	4b01      	ldr	r3, [pc, #4]	; (31b8 <port_pin_set_config+0x20>)
    31b2:	4798      	blx	r3
    31b4:	b003      	add	sp, #12
    31b6:	bd00      	pop	{pc}
    31b8:	00003649 	.word	0x00003649

000031bc <system_clock_source_get_hz>:
    31bc:	b510      	push	{r4, lr}
    31be:	2808      	cmp	r0, #8
    31c0:	d803      	bhi.n	31ca <system_clock_source_get_hz+0xe>
    31c2:	0080      	lsls	r0, r0, #2
    31c4:	4b1c      	ldr	r3, [pc, #112]	; (3238 <system_clock_source_get_hz+0x7c>)
    31c6:	581b      	ldr	r3, [r3, r0]
    31c8:	469f      	mov	pc, r3
    31ca:	2000      	movs	r0, #0
    31cc:	e032      	b.n	3234 <system_clock_source_get_hz+0x78>
    31ce:	4b1b      	ldr	r3, [pc, #108]	; (323c <system_clock_source_get_hz+0x80>)
    31d0:	6918      	ldr	r0, [r3, #16]
    31d2:	e02f      	b.n	3234 <system_clock_source_get_hz+0x78>
    31d4:	4b1a      	ldr	r3, [pc, #104]	; (3240 <system_clock_source_get_hz+0x84>)
    31d6:	7d18      	ldrb	r0, [r3, #20]
    31d8:	0700      	lsls	r0, r0, #28
    31da:	0f80      	lsrs	r0, r0, #30
    31dc:	3001      	adds	r0, #1
    31de:	4b19      	ldr	r3, [pc, #100]	; (3244 <system_clock_source_get_hz+0x88>)
    31e0:	4358      	muls	r0, r3
    31e2:	e027      	b.n	3234 <system_clock_source_get_hz+0x78>
    31e4:	4b15      	ldr	r3, [pc, #84]	; (323c <system_clock_source_get_hz+0x80>)
    31e6:	6958      	ldr	r0, [r3, #20]
    31e8:	e024      	b.n	3234 <system_clock_source_get_hz+0x78>
    31ea:	4b14      	ldr	r3, [pc, #80]	; (323c <system_clock_source_get_hz+0x80>)
    31ec:	681b      	ldr	r3, [r3, #0]
    31ee:	2002      	movs	r0, #2
    31f0:	4018      	ands	r0, r3
    31f2:	d01f      	beq.n	3234 <system_clock_source_get_hz+0x78>
    31f4:	4912      	ldr	r1, [pc, #72]	; (3240 <system_clock_source_get_hz+0x84>)
    31f6:	2280      	movs	r2, #128	; 0x80
    31f8:	0052      	lsls	r2, r2, #1
    31fa:	68cb      	ldr	r3, [r1, #12]
    31fc:	4213      	tst	r3, r2
    31fe:	d0fc      	beq.n	31fa <system_clock_source_get_hz+0x3e>
    3200:	4b0e      	ldr	r3, [pc, #56]	; (323c <system_clock_source_get_hz+0x80>)
    3202:	681b      	ldr	r3, [r3, #0]
    3204:	075b      	lsls	r3, r3, #29
    3206:	d514      	bpl.n	3232 <system_clock_source_get_hz+0x76>
    3208:	2000      	movs	r0, #0
    320a:	4b0f      	ldr	r3, [pc, #60]	; (3248 <system_clock_source_get_hz+0x8c>)
    320c:	4798      	blx	r3
    320e:	4b0b      	ldr	r3, [pc, #44]	; (323c <system_clock_source_get_hz+0x80>)
    3210:	689b      	ldr	r3, [r3, #8]
    3212:	041b      	lsls	r3, r3, #16
    3214:	0c1b      	lsrs	r3, r3, #16
    3216:	4358      	muls	r0, r3
    3218:	e00c      	b.n	3234 <system_clock_source_get_hz+0x78>
    321a:	2328      	movs	r3, #40	; 0x28
    321c:	4a08      	ldr	r2, [pc, #32]	; (3240 <system_clock_source_get_hz+0x84>)
    321e:	5cd3      	ldrb	r3, [r2, r3]
    3220:	2000      	movs	r0, #0
    3222:	079b      	lsls	r3, r3, #30
    3224:	d506      	bpl.n	3234 <system_clock_source_get_hz+0x78>
    3226:	4b05      	ldr	r3, [pc, #20]	; (323c <system_clock_source_get_hz+0x80>)
    3228:	68d8      	ldr	r0, [r3, #12]
    322a:	e003      	b.n	3234 <system_clock_source_get_hz+0x78>
    322c:	2080      	movs	r0, #128	; 0x80
    322e:	0200      	lsls	r0, r0, #8
    3230:	e000      	b.n	3234 <system_clock_source_get_hz+0x78>
    3232:	4806      	ldr	r0, [pc, #24]	; (324c <system_clock_source_get_hz+0x90>)
    3234:	bd10      	pop	{r4, pc}
    3236:	46c0      	nop			; (mov r8, r8)
    3238:	000066c0 	.word	0x000066c0
    323c:	20003ca4 	.word	0x20003ca4
    3240:	40000c00 	.word	0x40000c00
    3244:	003d0900 	.word	0x003d0900
    3248:	00003571 	.word	0x00003571
    324c:	02dc6c00 	.word	0x02dc6c00

00003250 <system_clock_source_osculp32k_set_config>:
    3250:	b510      	push	{r4, lr}
    3252:	4905      	ldr	r1, [pc, #20]	; (3268 <system_clock_source_osculp32k_set_config+0x18>)
    3254:	69cc      	ldr	r4, [r1, #28]
    3256:	7802      	ldrb	r2, [r0, #0]
    3258:	2301      	movs	r3, #1
    325a:	401a      	ands	r2, r3
    325c:	03d2      	lsls	r2, r2, #15
    325e:	4b03      	ldr	r3, [pc, #12]	; (326c <system_clock_source_osculp32k_set_config+0x1c>)
    3260:	4023      	ands	r3, r4
    3262:	4313      	orrs	r3, r2
    3264:	61cb      	str	r3, [r1, #28]
    3266:	bd10      	pop	{r4, pc}
    3268:	40001000 	.word	0x40001000
    326c:	ffff7fff 	.word	0xffff7fff

00003270 <system_clock_init>:
    3270:	b510      	push	{r4, lr}
    3272:	b084      	sub	sp, #16
    3274:	2280      	movs	r2, #128	; 0x80
    3276:	0052      	lsls	r2, r2, #1
    3278:	4b2f      	ldr	r3, [pc, #188]	; (3338 <system_clock_init+0xc8>)
    327a:	609a      	str	r2, [r3, #8]
    327c:	3afd      	subs	r2, #253	; 0xfd
    327e:	4b2f      	ldr	r3, [pc, #188]	; (333c <system_clock_init+0xcc>)
    3280:	609a      	str	r2, [r3, #8]
    3282:	4a2f      	ldr	r2, [pc, #188]	; (3340 <system_clock_init+0xd0>)
    3284:	6853      	ldr	r3, [r2, #4]
    3286:	211e      	movs	r1, #30
    3288:	438b      	bics	r3, r1
    328a:	6053      	str	r3, [r2, #4]
    328c:	2380      	movs	r3, #128	; 0x80
    328e:	05db      	lsls	r3, r3, #23
    3290:	789b      	ldrb	r3, [r3, #2]
    3292:	2b02      	cmp	r3, #2
    3294:	d00f      	beq.n	32b6 <system_clock_init+0x46>
    3296:	2380      	movs	r3, #128	; 0x80
    3298:	05db      	lsls	r3, r3, #23
    329a:	789b      	ldrb	r3, [r3, #2]
    329c:	b25b      	sxtb	r3, r3
    329e:	2b00      	cmp	r3, #0
    32a0:	db09      	blt.n	32b6 <system_clock_init+0x46>
    32a2:	2380      	movs	r3, #128	; 0x80
    32a4:	05db      	lsls	r3, r3, #23
    32a6:	2201      	movs	r2, #1
    32a8:	719a      	strb	r2, [r3, #6]
    32aa:	3201      	adds	r2, #1
    32ac:	709a      	strb	r2, [r3, #2]
    32ae:	001a      	movs	r2, r3
    32b0:	7993      	ldrb	r3, [r2, #6]
    32b2:	2b00      	cmp	r3, #0
    32b4:	d0fc      	beq.n	32b0 <system_clock_init+0x40>
    32b6:	4b20      	ldr	r3, [pc, #128]	; (3338 <system_clock_init+0xc8>)
    32b8:	7d1a      	ldrb	r2, [r3, #20]
    32ba:	2180      	movs	r1, #128	; 0x80
    32bc:	4249      	negs	r1, r1
    32be:	430a      	orrs	r2, r1
    32c0:	751a      	strb	r2, [r3, #20]
    32c2:	7d1a      	ldrb	r2, [r3, #20]
    32c4:	31c0      	adds	r1, #192	; 0xc0
    32c6:	438a      	bics	r2, r1
    32c8:	751a      	strb	r2, [r3, #20]
    32ca:	4b1e      	ldr	r3, [pc, #120]	; (3344 <system_clock_init+0xd4>)
    32cc:	4798      	blx	r3
    32ce:	4c1e      	ldr	r4, [pc, #120]	; (3348 <system_clock_init+0xd8>)
    32d0:	2301      	movs	r3, #1
    32d2:	71a3      	strb	r3, [r4, #6]
    32d4:	7163      	strb	r3, [r4, #5]
    32d6:	7123      	strb	r3, [r4, #4]
    32d8:	a901      	add	r1, sp, #4
    32da:	604b      	str	r3, [r1, #4]
    32dc:	2300      	movs	r3, #0
    32de:	704b      	strb	r3, [r1, #1]
    32e0:	2206      	movs	r2, #6
    32e2:	700a      	strb	r2, [r1, #0]
    32e4:	720b      	strb	r3, [r1, #8]
    32e6:	724b      	strb	r3, [r1, #9]
    32e8:	2000      	movs	r0, #0
    32ea:	4b18      	ldr	r3, [pc, #96]	; (334c <system_clock_init+0xdc>)
    32ec:	4798      	blx	r3
    32ee:	2000      	movs	r0, #0
    32f0:	4b17      	ldr	r3, [pc, #92]	; (3350 <system_clock_init+0xe0>)
    32f2:	4798      	blx	r3
    32f4:	2000      	movs	r0, #0
    32f6:	4b17      	ldr	r3, [pc, #92]	; (3354 <system_clock_init+0xe4>)
    32f8:	4798      	blx	r3
    32fa:	7921      	ldrb	r1, [r4, #4]
    32fc:	b2c9      	uxtb	r1, r1
    32fe:	4b16      	ldr	r3, [pc, #88]	; (3358 <system_clock_init+0xe8>)
    3300:	4798      	blx	r3
    3302:	4b16      	ldr	r3, [pc, #88]	; (335c <system_clock_init+0xec>)
    3304:	4298      	cmp	r0, r3
    3306:	d814      	bhi.n	3332 <system_clock_init+0xc2>
    3308:	2380      	movs	r3, #128	; 0x80
    330a:	05db      	lsls	r3, r3, #23
    330c:	789b      	ldrb	r3, [r3, #2]
    330e:	2b00      	cmp	r3, #0
    3310:	d00f      	beq.n	3332 <system_clock_init+0xc2>
    3312:	2380      	movs	r3, #128	; 0x80
    3314:	05db      	lsls	r3, r3, #23
    3316:	789b      	ldrb	r3, [r3, #2]
    3318:	b25b      	sxtb	r3, r3
    331a:	2b00      	cmp	r3, #0
    331c:	db09      	blt.n	3332 <system_clock_init+0xc2>
    331e:	2380      	movs	r3, #128	; 0x80
    3320:	05db      	lsls	r3, r3, #23
    3322:	2201      	movs	r2, #1
    3324:	719a      	strb	r2, [r3, #6]
    3326:	2200      	movs	r2, #0
    3328:	709a      	strb	r2, [r3, #2]
    332a:	001a      	movs	r2, r3
    332c:	7993      	ldrb	r3, [r2, #6]
    332e:	2b00      	cmp	r3, #0
    3330:	d0fc      	beq.n	332c <system_clock_init+0xbc>
    3332:	b004      	add	sp, #16
    3334:	bd10      	pop	{r4, pc}
    3336:	46c0      	nop			; (mov r8, r8)
    3338:	40000c00 	.word	0x40000c00
    333c:	40001400 	.word	0x40001400
    3340:	41004000 	.word	0x41004000
    3344:	00003361 	.word	0x00003361
    3348:	40000400 	.word	0x40000400
    334c:	00003385 	.word	0x00003385
    3350:	00003431 	.word	0x00003431
    3354:	00003471 	.word	0x00003471
    3358:	000040b5 	.word	0x000040b5
    335c:	00b71b00 	.word	0x00b71b00

00003360 <system_gclk_init>:
    3360:	4a06      	ldr	r2, [pc, #24]	; (337c <system_gclk_init+0x1c>)
    3362:	6951      	ldr	r1, [r2, #20]
    3364:	2340      	movs	r3, #64	; 0x40
    3366:	430b      	orrs	r3, r1
    3368:	6153      	str	r3, [r2, #20]
    336a:	2201      	movs	r2, #1
    336c:	4b04      	ldr	r3, [pc, #16]	; (3380 <system_gclk_init+0x20>)
    336e:	701a      	strb	r2, [r3, #0]
    3370:	0019      	movs	r1, r3
    3372:	780b      	ldrb	r3, [r1, #0]
    3374:	4213      	tst	r3, r2
    3376:	d1fc      	bne.n	3372 <system_gclk_init+0x12>
    3378:	4770      	bx	lr
    337a:	46c0      	nop			; (mov r8, r8)
    337c:	40000400 	.word	0x40000400
    3380:	40001800 	.word	0x40001800

00003384 <system_gclk_gen_set_config>:
    3384:	b570      	push	{r4, r5, r6, lr}
    3386:	0005      	movs	r5, r0
    3388:	780c      	ldrb	r4, [r1, #0]
    338a:	784b      	ldrb	r3, [r1, #1]
    338c:	2b00      	cmp	r3, #0
    338e:	d002      	beq.n	3396 <system_gclk_gen_set_config+0x12>
    3390:	2380      	movs	r3, #128	; 0x80
    3392:	00db      	lsls	r3, r3, #3
    3394:	431c      	orrs	r4, r3
    3396:	7a4b      	ldrb	r3, [r1, #9]
    3398:	2b00      	cmp	r3, #0
    339a:	d002      	beq.n	33a2 <system_gclk_gen_set_config+0x1e>
    339c:	2380      	movs	r3, #128	; 0x80
    339e:	011b      	lsls	r3, r3, #4
    33a0:	431c      	orrs	r4, r3
    33a2:	684a      	ldr	r2, [r1, #4]
    33a4:	2a01      	cmp	r2, #1
    33a6:	d917      	bls.n	33d8 <system_gclk_gen_set_config+0x54>
    33a8:	1e53      	subs	r3, r2, #1
    33aa:	421a      	tst	r2, r3
    33ac:	d10f      	bne.n	33ce <system_gclk_gen_set_config+0x4a>
    33ae:	2a02      	cmp	r2, #2
    33b0:	d906      	bls.n	33c0 <system_gclk_gen_set_config+0x3c>
    33b2:	2302      	movs	r3, #2
    33b4:	2000      	movs	r0, #0
    33b6:	3001      	adds	r0, #1
    33b8:	005b      	lsls	r3, r3, #1
    33ba:	429a      	cmp	r2, r3
    33bc:	d8fb      	bhi.n	33b6 <system_gclk_gen_set_config+0x32>
    33be:	e000      	b.n	33c2 <system_gclk_gen_set_config+0x3e>
    33c0:	2000      	movs	r0, #0
    33c2:	2380      	movs	r3, #128	; 0x80
    33c4:	015b      	lsls	r3, r3, #5
    33c6:	431c      	orrs	r4, r3
    33c8:	0400      	lsls	r0, r0, #16
    33ca:	4304      	orrs	r4, r0
    33cc:	e004      	b.n	33d8 <system_gclk_gen_set_config+0x54>
    33ce:	0412      	lsls	r2, r2, #16
    33d0:	2380      	movs	r3, #128	; 0x80
    33d2:	009b      	lsls	r3, r3, #2
    33d4:	431a      	orrs	r2, r3
    33d6:	4314      	orrs	r4, r2
    33d8:	7a0b      	ldrb	r3, [r1, #8]
    33da:	2b00      	cmp	r3, #0
    33dc:	d002      	beq.n	33e4 <system_gclk_gen_set_config+0x60>
    33de:	2380      	movs	r3, #128	; 0x80
    33e0:	019b      	lsls	r3, r3, #6
    33e2:	431c      	orrs	r4, r3
    33e4:	2604      	movs	r6, #4
    33e6:	40ae      	lsls	r6, r5
    33e8:	490d      	ldr	r1, [pc, #52]	; (3420 <system_gclk_gen_set_config+0x9c>)
    33ea:	4a0e      	ldr	r2, [pc, #56]	; (3424 <system_gclk_gen_set_config+0xa0>)
    33ec:	684b      	ldr	r3, [r1, #4]
    33ee:	4013      	ands	r3, r2
    33f0:	421e      	tst	r6, r3
    33f2:	d1fb      	bne.n	33ec <system_gclk_gen_set_config+0x68>
    33f4:	4b0c      	ldr	r3, [pc, #48]	; (3428 <system_gclk_gen_set_config+0xa4>)
    33f6:	4798      	blx	r3
    33f8:	00ad      	lsls	r5, r5, #2
    33fa:	4b09      	ldr	r3, [pc, #36]	; (3420 <system_gclk_gen_set_config+0x9c>)
    33fc:	469c      	mov	ip, r3
    33fe:	4465      	add	r5, ip
    3400:	6a28      	ldr	r0, [r5, #32]
    3402:	2380      	movs	r3, #128	; 0x80
    3404:	005b      	lsls	r3, r3, #1
    3406:	4018      	ands	r0, r3
    3408:	4320      	orrs	r0, r4
    340a:	6228      	str	r0, [r5, #32]
    340c:	4661      	mov	r1, ip
    340e:	4a05      	ldr	r2, [pc, #20]	; (3424 <system_gclk_gen_set_config+0xa0>)
    3410:	684b      	ldr	r3, [r1, #4]
    3412:	4013      	ands	r3, r2
    3414:	421e      	tst	r6, r3
    3416:	d1fb      	bne.n	3410 <system_gclk_gen_set_config+0x8c>
    3418:	4b04      	ldr	r3, [pc, #16]	; (342c <system_gclk_gen_set_config+0xa8>)
    341a:	4798      	blx	r3
    341c:	bd70      	pop	{r4, r5, r6, pc}
    341e:	46c0      	nop			; (mov r8, r8)
    3420:	40001800 	.word	0x40001800
    3424:	000007fc 	.word	0x000007fc
    3428:	00002a75 	.word	0x00002a75
    342c:	00002ab5 	.word	0x00002ab5

00003430 <system_gclk_gen_enable>:
    3430:	b510      	push	{r4, lr}
    3432:	0004      	movs	r4, r0
    3434:	2204      	movs	r2, #4
    3436:	4082      	lsls	r2, r0
    3438:	4809      	ldr	r0, [pc, #36]	; (3460 <system_gclk_gen_enable+0x30>)
    343a:	490a      	ldr	r1, [pc, #40]	; (3464 <system_gclk_gen_enable+0x34>)
    343c:	6843      	ldr	r3, [r0, #4]
    343e:	400b      	ands	r3, r1
    3440:	421a      	tst	r2, r3
    3442:	d1fb      	bne.n	343c <system_gclk_gen_enable+0xc>
    3444:	4b08      	ldr	r3, [pc, #32]	; (3468 <system_gclk_gen_enable+0x38>)
    3446:	4798      	blx	r3
    3448:	00a4      	lsls	r4, r4, #2
    344a:	4b05      	ldr	r3, [pc, #20]	; (3460 <system_gclk_gen_enable+0x30>)
    344c:	469c      	mov	ip, r3
    344e:	4464      	add	r4, ip
    3450:	6a23      	ldr	r3, [r4, #32]
    3452:	2280      	movs	r2, #128	; 0x80
    3454:	0052      	lsls	r2, r2, #1
    3456:	4313      	orrs	r3, r2
    3458:	6223      	str	r3, [r4, #32]
    345a:	4b04      	ldr	r3, [pc, #16]	; (346c <system_gclk_gen_enable+0x3c>)
    345c:	4798      	blx	r3
    345e:	bd10      	pop	{r4, pc}
    3460:	40001800 	.word	0x40001800
    3464:	000007fc 	.word	0x000007fc
    3468:	00002a75 	.word	0x00002a75
    346c:	00002ab5 	.word	0x00002ab5

00003470 <system_gclk_gen_get_hz>:
    3470:	b5f8      	push	{r3, r4, r5, r6, r7, lr}
    3472:	0004      	movs	r4, r0
    3474:	2204      	movs	r2, #4
    3476:	4082      	lsls	r2, r0
    3478:	4812      	ldr	r0, [pc, #72]	; (34c4 <system_gclk_gen_get_hz+0x54>)
    347a:	4913      	ldr	r1, [pc, #76]	; (34c8 <system_gclk_gen_get_hz+0x58>)
    347c:	6843      	ldr	r3, [r0, #4]
    347e:	400b      	ands	r3, r1
    3480:	421a      	tst	r2, r3
    3482:	d1fb      	bne.n	347c <system_gclk_gen_get_hz+0xc>
    3484:	4b11      	ldr	r3, [pc, #68]	; (34cc <system_gclk_gen_get_hz+0x5c>)
    3486:	4798      	blx	r3
    3488:	4f0e      	ldr	r7, [pc, #56]	; (34c4 <system_gclk_gen_get_hz+0x54>)
    348a:	3408      	adds	r4, #8
    348c:	00a4      	lsls	r4, r4, #2
    348e:	59e0      	ldr	r0, [r4, r7]
    3490:	0700      	lsls	r0, r0, #28
    3492:	0f00      	lsrs	r0, r0, #28
    3494:	4b0e      	ldr	r3, [pc, #56]	; (34d0 <system_gclk_gen_get_hz+0x60>)
    3496:	4798      	blx	r3
    3498:	0006      	movs	r6, r0
    349a:	59e5      	ldr	r5, [r4, r7]
    349c:	04ed      	lsls	r5, r5, #19
    349e:	0fed      	lsrs	r5, r5, #31
    34a0:	59e4      	ldr	r4, [r4, r7]
    34a2:	0c24      	lsrs	r4, r4, #16
    34a4:	4b0b      	ldr	r3, [pc, #44]	; (34d4 <system_gclk_gen_get_hz+0x64>)
    34a6:	4798      	blx	r3
    34a8:	2d00      	cmp	r5, #0
    34aa:	d107      	bne.n	34bc <system_gclk_gen_get_hz+0x4c>
    34ac:	2c01      	cmp	r4, #1
    34ae:	d907      	bls.n	34c0 <system_gclk_gen_get_hz+0x50>
    34b0:	0021      	movs	r1, r4
    34b2:	0030      	movs	r0, r6
    34b4:	4b08      	ldr	r3, [pc, #32]	; (34d8 <system_gclk_gen_get_hz+0x68>)
    34b6:	4798      	blx	r3
    34b8:	0006      	movs	r6, r0
    34ba:	e001      	b.n	34c0 <system_gclk_gen_get_hz+0x50>
    34bc:	3401      	adds	r4, #1
    34be:	40e6      	lsrs	r6, r4
    34c0:	0030      	movs	r0, r6
    34c2:	bdf8      	pop	{r3, r4, r5, r6, r7, pc}
    34c4:	40001800 	.word	0x40001800
    34c8:	000007fc 	.word	0x000007fc
    34cc:	00002a75 	.word	0x00002a75
    34d0:	000031bd 	.word	0x000031bd
    34d4:	00002ab5 	.word	0x00002ab5
    34d8:	000040b5 	.word	0x000040b5

000034dc <system_gclk_chan_enable>:
    34dc:	b510      	push	{r4, lr}
    34de:	0004      	movs	r4, r0
    34e0:	4b09      	ldr	r3, [pc, #36]	; (3508 <system_gclk_chan_enable+0x2c>)
    34e2:	4798      	blx	r3
    34e4:	00a0      	lsls	r0, r4, #2
    34e6:	4b09      	ldr	r3, [pc, #36]	; (350c <system_gclk_chan_enable+0x30>)
    34e8:	469c      	mov	ip, r3
    34ea:	4460      	add	r0, ip
    34ec:	2280      	movs	r2, #128	; 0x80
    34ee:	5881      	ldr	r1, [r0, r2]
    34f0:	2340      	movs	r3, #64	; 0x40
    34f2:	430b      	orrs	r3, r1
    34f4:	5083      	str	r3, [r0, r2]
    34f6:	2180      	movs	r1, #128	; 0x80
    34f8:	3a40      	subs	r2, #64	; 0x40
    34fa:	5843      	ldr	r3, [r0, r1]
    34fc:	421a      	tst	r2, r3
    34fe:	d0fc      	beq.n	34fa <system_gclk_chan_enable+0x1e>
    3500:	4b03      	ldr	r3, [pc, #12]	; (3510 <system_gclk_chan_enable+0x34>)
    3502:	4798      	blx	r3
    3504:	bd10      	pop	{r4, pc}
    3506:	46c0      	nop			; (mov r8, r8)
    3508:	00002a75 	.word	0x00002a75
    350c:	40001800 	.word	0x40001800
    3510:	00002ab5 	.word	0x00002ab5

00003514 <system_gclk_chan_disable>:
    3514:	b510      	push	{r4, lr}
    3516:	0004      	movs	r4, r0
    3518:	4b09      	ldr	r3, [pc, #36]	; (3540 <system_gclk_chan_disable+0x2c>)
    351a:	4798      	blx	r3
    351c:	00a0      	lsls	r0, r4, #2
    351e:	4b09      	ldr	r3, [pc, #36]	; (3544 <system_gclk_chan_disable+0x30>)
    3520:	469c      	mov	ip, r3
    3522:	4460      	add	r0, ip
    3524:	2280      	movs	r2, #128	; 0x80
    3526:	5883      	ldr	r3, [r0, r2]
    3528:	2140      	movs	r1, #64	; 0x40
    352a:	438b      	bics	r3, r1
    352c:	5083      	str	r3, [r0, r2]
    352e:	3140      	adds	r1, #64	; 0x40
    3530:	3a40      	subs	r2, #64	; 0x40
    3532:	5843      	ldr	r3, [r0, r1]
    3534:	421a      	tst	r2, r3
    3536:	d1fc      	bne.n	3532 <system_gclk_chan_disable+0x1e>
    3538:	4b03      	ldr	r3, [pc, #12]	; (3548 <system_gclk_chan_disable+0x34>)
    353a:	4798      	blx	r3
    353c:	bd10      	pop	{r4, pc}
    353e:	46c0      	nop			; (mov r8, r8)
    3540:	00002a75 	.word	0x00002a75
    3544:	40001800 	.word	0x40001800
    3548:	00002ab5 	.word	0x00002ab5

0000354c <system_gclk_chan_set_config>:
    354c:	b570      	push	{r4, r5, r6, lr}
    354e:	0004      	movs	r4, r0
    3550:	000d      	movs	r5, r1
    3552:	4b05      	ldr	r3, [pc, #20]	; (3568 <system_gclk_chan_set_config+0x1c>)
    3554:	4798      	blx	r3
    3556:	782b      	ldrb	r3, [r5, #0]
    3558:	220f      	movs	r2, #15
    355a:	4013      	ands	r3, r2
    355c:	3420      	adds	r4, #32
    355e:	00a4      	lsls	r4, r4, #2
    3560:	4a02      	ldr	r2, [pc, #8]	; (356c <system_gclk_chan_set_config+0x20>)
    3562:	50a3      	str	r3, [r4, r2]
    3564:	bd70      	pop	{r4, r5, r6, pc}
    3566:	46c0      	nop			; (mov r8, r8)
    3568:	00003515 	.word	0x00003515
    356c:	40001800 	.word	0x40001800

00003570 <system_gclk_chan_get_hz>:
    3570:	b510      	push	{r4, lr}
    3572:	0004      	movs	r4, r0
    3574:	4b06      	ldr	r3, [pc, #24]	; (3590 <system_gclk_chan_get_hz+0x20>)
    3576:	4798      	blx	r3
    3578:	3420      	adds	r4, #32
    357a:	00a4      	lsls	r4, r4, #2
    357c:	4b05      	ldr	r3, [pc, #20]	; (3594 <system_gclk_chan_get_hz+0x24>)
    357e:	58e4      	ldr	r4, [r4, r3]
    3580:	0724      	lsls	r4, r4, #28
    3582:	0f24      	lsrs	r4, r4, #28
    3584:	4b04      	ldr	r3, [pc, #16]	; (3598 <system_gclk_chan_get_hz+0x28>)
    3586:	4798      	blx	r3
    3588:	0020      	movs	r0, r4
    358a:	4b04      	ldr	r3, [pc, #16]	; (359c <system_gclk_chan_get_hz+0x2c>)
    358c:	4798      	blx	r3
    358e:	bd10      	pop	{r4, pc}
    3590:	00002a75 	.word	0x00002a75
    3594:	40001800 	.word	0x40001800
    3598:	00002ab5 	.word	0x00002ab5
    359c:	00003471 	.word	0x00003471

000035a0 <_system_pinmux_config>:
    35a0:	b530      	push	{r4, r5, lr}
    35a2:	78d3      	ldrb	r3, [r2, #3]
    35a4:	2b00      	cmp	r3, #0
    35a6:	d11e      	bne.n	35e6 <_system_pinmux_config+0x46>
    35a8:	7813      	ldrb	r3, [r2, #0]
    35aa:	2b80      	cmp	r3, #128	; 0x80
    35ac:	d004      	beq.n	35b8 <_system_pinmux_config+0x18>
    35ae:	061b      	lsls	r3, r3, #24
    35b0:	2480      	movs	r4, #128	; 0x80
    35b2:	0264      	lsls	r4, r4, #9
    35b4:	4323      	orrs	r3, r4
    35b6:	e000      	b.n	35ba <_system_pinmux_config+0x1a>
    35b8:	2300      	movs	r3, #0
    35ba:	7854      	ldrb	r4, [r2, #1]
    35bc:	2502      	movs	r5, #2
    35be:	43ac      	bics	r4, r5
    35c0:	d10a      	bne.n	35d8 <_system_pinmux_config+0x38>
    35c2:	7894      	ldrb	r4, [r2, #2]
    35c4:	2c00      	cmp	r4, #0
    35c6:	d103      	bne.n	35d0 <_system_pinmux_config+0x30>
    35c8:	2480      	movs	r4, #128	; 0x80
    35ca:	02a4      	lsls	r4, r4, #10
    35cc:	4323      	orrs	r3, r4
    35ce:	e002      	b.n	35d6 <_system_pinmux_config+0x36>
    35d0:	24c0      	movs	r4, #192	; 0xc0
    35d2:	02e4      	lsls	r4, r4, #11
    35d4:	4323      	orrs	r3, r4
    35d6:	6041      	str	r1, [r0, #4]
    35d8:	7854      	ldrb	r4, [r2, #1]
    35da:	3c01      	subs	r4, #1
    35dc:	2c01      	cmp	r4, #1
    35de:	d812      	bhi.n	3606 <_system_pinmux_config+0x66>
    35e0:	4c18      	ldr	r4, [pc, #96]	; (3644 <_system_pinmux_config+0xa4>)
    35e2:	4023      	ands	r3, r4
    35e4:	e00f      	b.n	3606 <_system_pinmux_config+0x66>
    35e6:	6041      	str	r1, [r0, #4]
    35e8:	040b      	lsls	r3, r1, #16
    35ea:	0c1b      	lsrs	r3, r3, #16
    35ec:	24a0      	movs	r4, #160	; 0xa0
    35ee:	05e4      	lsls	r4, r4, #23
    35f0:	4323      	orrs	r3, r4
    35f2:	6283      	str	r3, [r0, #40]	; 0x28
    35f4:	0c0b      	lsrs	r3, r1, #16
    35f6:	24d0      	movs	r4, #208	; 0xd0
    35f8:	0624      	lsls	r4, r4, #24
    35fa:	4323      	orrs	r3, r4
    35fc:	6283      	str	r3, [r0, #40]	; 0x28
    35fe:	78d3      	ldrb	r3, [r2, #3]
    3600:	2b00      	cmp	r3, #0
    3602:	d018      	beq.n	3636 <_system_pinmux_config+0x96>
    3604:	e01c      	b.n	3640 <_system_pinmux_config+0xa0>
    3606:	040c      	lsls	r4, r1, #16
    3608:	0c24      	lsrs	r4, r4, #16
    360a:	25a0      	movs	r5, #160	; 0xa0
    360c:	05ed      	lsls	r5, r5, #23
    360e:	432c      	orrs	r4, r5
    3610:	431c      	orrs	r4, r3
    3612:	6284      	str	r4, [r0, #40]	; 0x28
    3614:	0c0c      	lsrs	r4, r1, #16
    3616:	25d0      	movs	r5, #208	; 0xd0
    3618:	062d      	lsls	r5, r5, #24
    361a:	432c      	orrs	r4, r5
    361c:	431c      	orrs	r4, r3
    361e:	6284      	str	r4, [r0, #40]	; 0x28
    3620:	78d4      	ldrb	r4, [r2, #3]
    3622:	2c00      	cmp	r4, #0
    3624:	d10c      	bne.n	3640 <_system_pinmux_config+0xa0>
    3626:	035b      	lsls	r3, r3, #13
    3628:	d505      	bpl.n	3636 <_system_pinmux_config+0x96>
    362a:	7893      	ldrb	r3, [r2, #2]
    362c:	2b01      	cmp	r3, #1
    362e:	d101      	bne.n	3634 <_system_pinmux_config+0x94>
    3630:	6181      	str	r1, [r0, #24]
    3632:	e000      	b.n	3636 <_system_pinmux_config+0x96>
    3634:	6141      	str	r1, [r0, #20]
    3636:	7853      	ldrb	r3, [r2, #1]
    3638:	3b01      	subs	r3, #1
    363a:	2b01      	cmp	r3, #1
    363c:	d800      	bhi.n	3640 <_system_pinmux_config+0xa0>
    363e:	6081      	str	r1, [r0, #8]
    3640:	bd30      	pop	{r4, r5, pc}
    3642:	46c0      	nop			; (mov r8, r8)
    3644:	fffbffff 	.word	0xfffbffff

00003648 <system_pinmux_pin_set_config>:
    3648:	b510      	push	{r4, lr}
    364a:	0003      	movs	r3, r0
    364c:	000a      	movs	r2, r1
    364e:	09c1      	lsrs	r1, r0, #7
    3650:	2000      	movs	r0, #0
    3652:	2900      	cmp	r1, #0
    3654:	d104      	bne.n	3660 <system_pinmux_pin_set_config+0x18>
    3656:	0958      	lsrs	r0, r3, #5
    3658:	01c0      	lsls	r0, r0, #7
    365a:	4905      	ldr	r1, [pc, #20]	; (3670 <system_pinmux_pin_set_config+0x28>)
    365c:	468c      	mov	ip, r1
    365e:	4460      	add	r0, ip
    3660:	211f      	movs	r1, #31
    3662:	400b      	ands	r3, r1
    3664:	391e      	subs	r1, #30
    3666:	4099      	lsls	r1, r3
    3668:	4b02      	ldr	r3, [pc, #8]	; (3674 <system_pinmux_pin_set_config+0x2c>)
    366a:	4798      	blx	r3
    366c:	bd10      	pop	{r4, pc}
    366e:	46c0      	nop			; (mov r8, r8)
    3670:	40002800 	.word	0x40002800
    3674:	000035a1 	.word	0x000035a1

00003678 <_system_dummy_init>:
    3678:	4770      	bx	lr
    367a:	46c0      	nop			; (mov r8, r8)

0000367c <system_init>:
    367c:	b510      	push	{r4, lr}
    367e:	4b05      	ldr	r3, [pc, #20]	; (3694 <system_init+0x18>)
    3680:	4798      	blx	r3
    3682:	4b05      	ldr	r3, [pc, #20]	; (3698 <system_init+0x1c>)
    3684:	4798      	blx	r3
    3686:	4b05      	ldr	r3, [pc, #20]	; (369c <system_init+0x20>)
    3688:	4798      	blx	r3
    368a:	4b05      	ldr	r3, [pc, #20]	; (36a0 <system_init+0x24>)
    368c:	4798      	blx	r3
    368e:	4b05      	ldr	r3, [pc, #20]	; (36a4 <system_init+0x28>)
    3690:	4798      	blx	r3
    3692:	bd10      	pop	{r4, pc}
    3694:	00003271 	.word	0x00003271
    3698:	00002ae5 	.word	0x00002ae5
    369c:	00003679 	.word	0x00003679
    36a0:	00003679 	.word	0x00003679
    36a4:	00003679 	.word	0x00003679

000036a8 <Dummy_Handler>:
    36a8:	e7fe      	b.n	36a8 <Dummy_Handler>
    36aa:	46c0      	nop			; (mov r8, r8)

000036ac <Reset_Handler>:
    36ac:	b510      	push	{r4, lr}
    36ae:	4b1d      	ldr	r3, [pc, #116]	; (3724 <Reset_Handler+0x78>)
    36b0:	4a1d      	ldr	r2, [pc, #116]	; (3728 <Reset_Handler+0x7c>)
    36b2:	429a      	cmp	r2, r3
    36b4:	d003      	beq.n	36be <Reset_Handler+0x12>
    36b6:	4b1d      	ldr	r3, [pc, #116]	; (372c <Reset_Handler+0x80>)
    36b8:	4a1a      	ldr	r2, [pc, #104]	; (3724 <Reset_Handler+0x78>)
    36ba:	429a      	cmp	r2, r3
    36bc:	d304      	bcc.n	36c8 <Reset_Handler+0x1c>
    36be:	4b1c      	ldr	r3, [pc, #112]	; (3730 <Reset_Handler+0x84>)
    36c0:	4a1c      	ldr	r2, [pc, #112]	; (3734 <Reset_Handler+0x88>)
    36c2:	429a      	cmp	r2, r3
    36c4:	d310      	bcc.n	36e8 <Reset_Handler+0x3c>
    36c6:	e01e      	b.n	3706 <Reset_Handler+0x5a>
    36c8:	4a1b      	ldr	r2, [pc, #108]	; (3738 <Reset_Handler+0x8c>)
    36ca:	4b18      	ldr	r3, [pc, #96]	; (372c <Reset_Handler+0x80>)
    36cc:	3303      	adds	r3, #3
    36ce:	1a9b      	subs	r3, r3, r2
    36d0:	089b      	lsrs	r3, r3, #2
    36d2:	3301      	adds	r3, #1
    36d4:	009b      	lsls	r3, r3, #2
    36d6:	2200      	movs	r2, #0
    36d8:	4812      	ldr	r0, [pc, #72]	; (3724 <Reset_Handler+0x78>)
    36da:	4913      	ldr	r1, [pc, #76]	; (3728 <Reset_Handler+0x7c>)
    36dc:	588c      	ldr	r4, [r1, r2]
    36de:	5084      	str	r4, [r0, r2]
    36e0:	3204      	adds	r2, #4
    36e2:	429a      	cmp	r2, r3
    36e4:	d1fa      	bne.n	36dc <Reset_Handler+0x30>
    36e6:	e7ea      	b.n	36be <Reset_Handler+0x12>
    36e8:	4a14      	ldr	r2, [pc, #80]	; (373c <Reset_Handler+0x90>)
    36ea:	4b11      	ldr	r3, [pc, #68]	; (3730 <Reset_Handler+0x84>)
    36ec:	3303      	adds	r3, #3
    36ee:	1a9b      	subs	r3, r3, r2
    36f0:	089b      	lsrs	r3, r3, #2
    36f2:	3301      	adds	r3, #1
    36f4:	009b      	lsls	r3, r3, #2
    36f6:	2200      	movs	r2, #0
    36f8:	480e      	ldr	r0, [pc, #56]	; (3734 <Reset_Handler+0x88>)
    36fa:	2100      	movs	r1, #0
    36fc:	1814      	adds	r4, r2, r0
    36fe:	6021      	str	r1, [r4, #0]
    3700:	3204      	adds	r2, #4
    3702:	429a      	cmp	r2, r3
    3704:	d1fa      	bne.n	36fc <Reset_Handler+0x50>
    3706:	4a0e      	ldr	r2, [pc, #56]	; (3740 <Reset_Handler+0x94>)
    3708:	21ff      	movs	r1, #255	; 0xff
    370a:	4b0e      	ldr	r3, [pc, #56]	; (3744 <Reset_Handler+0x98>)
    370c:	438b      	bics	r3, r1
    370e:	6093      	str	r3, [r2, #8]
    3710:	4a0d      	ldr	r2, [pc, #52]	; (3748 <Reset_Handler+0x9c>)
    3712:	6851      	ldr	r1, [r2, #4]
    3714:	2380      	movs	r3, #128	; 0x80
    3716:	430b      	orrs	r3, r1
    3718:	6053      	str	r3, [r2, #4]
    371a:	4b0c      	ldr	r3, [pc, #48]	; (374c <Reset_Handler+0xa0>)
    371c:	4798      	blx	r3
    371e:	4b0c      	ldr	r3, [pc, #48]	; (3750 <Reset_Handler+0xa4>)
    3720:	4798      	blx	r3
    3722:	e7fe      	b.n	3722 <Reset_Handler+0x76>
    3724:	20000000 	.word	0x20000000
    3728:	00006820 	.word	0x00006820
    372c:	2000008c 	.word	0x2000008c
    3730:	20003f84 	.word	0x20003f84
    3734:	2000008c 	.word	0x2000008c
    3738:	20000004 	.word	0x20000004
    373c:	20000090 	.word	0x20000090
    3740:	e000ed00 	.word	0xe000ed00
    3744:	00000000 	.word	0x00000000
    3748:	41004000 	.word	0x41004000
    374c:	00005d31 	.word	0x00005d31
    3750:	00003ab1 	.word	0x00003ab1

00003754 <_sbrk>:
    3754:	0003      	movs	r3, r0
    3756:	4a06      	ldr	r2, [pc, #24]	; (3770 <_sbrk+0x1c>)
    3758:	6812      	ldr	r2, [r2, #0]
    375a:	2a00      	cmp	r2, #0
    375c:	d102      	bne.n	3764 <_sbrk+0x10>
    375e:	4905      	ldr	r1, [pc, #20]	; (3774 <_sbrk+0x20>)
    3760:	4a03      	ldr	r2, [pc, #12]	; (3770 <_sbrk+0x1c>)
    3762:	6011      	str	r1, [r2, #0]
    3764:	4a02      	ldr	r2, [pc, #8]	; (3770 <_sbrk+0x1c>)
    3766:	6810      	ldr	r0, [r2, #0]
    3768:	18c3      	adds	r3, r0, r3
    376a:	6013      	str	r3, [r2, #0]
    376c:	4770      	bx	lr
    376e:	46c0      	nop			; (mov r8, r8)
    3770:	20003cbc 	.word	0x20003cbc
    3774:	20005f88 	.word	0x20005f88

00003778 <_close>:
    3778:	2001      	movs	r0, #1
    377a:	4240      	negs	r0, r0
    377c:	4770      	bx	lr
    377e:	46c0      	nop			; (mov r8, r8)

00003780 <_fstat>:
    3780:	2380      	movs	r3, #128	; 0x80
    3782:	019b      	lsls	r3, r3, #6
    3784:	604b      	str	r3, [r1, #4]
    3786:	2000      	movs	r0, #0
    3788:	4770      	bx	lr
    378a:	46c0      	nop			; (mov r8, r8)

0000378c <_lseek>:
    378c:	2000      	movs	r0, #0
    378e:	4770      	bx	lr

00003790 <at24cxx_write_continuous>:
    3790:	b5f0      	push	{r4, r5, r6, r7, lr}
    3792:	b085      	sub	sp, #20
    3794:	af00      	add	r7, sp, #0
    3796:	1c8e      	adds	r6, r1, #2
    3798:	000b      	movs	r3, r1
    379a:	3309      	adds	r3, #9
    379c:	08db      	lsrs	r3, r3, #3
    379e:	00db      	lsls	r3, r3, #3
    37a0:	466c      	mov	r4, sp
    37a2:	1ae3      	subs	r3, r4, r3
    37a4:	469d      	mov	sp, r3
    37a6:	466d      	mov	r5, sp
    37a8:	0a03      	lsrs	r3, r0, #8
    37aa:	702b      	strb	r3, [r5, #0]
    37ac:	7068      	strb	r0, [r5, #1]
    37ae:	2900      	cmp	r1, #0
    37b0:	d007      	beq.n	37c2 <at24cxx_write_continuous+0x32>
    37b2:	2300      	movs	r3, #0
    37b4:	18e8      	adds	r0, r5, r3
    37b6:	5cd4      	ldrb	r4, [r2, r3]
    37b8:	7084      	strb	r4, [r0, #2]
    37ba:	3301      	adds	r3, #1
    37bc:	b298      	uxth	r0, r3
    37be:	4281      	cmp	r1, r0
    37c0:	d8f8      	bhi.n	37b4 <at24cxx_write_continuous+0x24>
    37c2:	2350      	movs	r3, #80	; 0x50
    37c4:	80bb      	strh	r3, [r7, #4]
    37c6:	80fe      	strh	r6, [r7, #6]
    37c8:	60bd      	str	r5, [r7, #8]
    37ca:	2300      	movs	r3, #0
    37cc:	733b      	strb	r3, [r7, #12]
    37ce:	737b      	strb	r3, [r7, #13]
    37d0:	73bb      	strb	r3, [r7, #14]
    37d2:	4d05      	ldr	r5, [pc, #20]	; (37e8 <at24cxx_write_continuous+0x58>)
    37d4:	4c05      	ldr	r4, [pc, #20]	; (37ec <at24cxx_write_continuous+0x5c>)
    37d6:	1d39      	adds	r1, r7, #4
    37d8:	0028      	movs	r0, r5
    37da:	47a0      	blx	r4
    37dc:	2800      	cmp	r0, #0
    37de:	d1fa      	bne.n	37d6 <at24cxx_write_continuous+0x46>
    37e0:	46bd      	mov	sp, r7
    37e2:	b005      	add	sp, #20
    37e4:	bdf0      	pop	{r4, r5, r6, r7, pc}
    37e6:	46c0      	nop			; (mov r8, r8)
    37e8:	20003f14 	.word	0x20003f14
    37ec:	00000585 	.word	0x00000585

000037f0 <adc_complete_callback>:

/* ADC Callback Function */
void adc_complete_callback(struct adc_module *const module)
{
	/* Set ADC conversion ended flag */
	adc_read_done = true;
    37f0:	2201      	movs	r2, #1
    37f2:	4b01      	ldr	r3, [pc, #4]	; (37f8 <adc_complete_callback+0x8>)
    37f4:	701a      	strb	r2, [r3, #0]
}
    37f6:	4770      	bx	lr
    37f8:	20003cc0 	.word	0x20003cc0

000037fc <rx_handler>:
}



static void rx_handler(uint8_t instance)
{
    37fc:	b510      	push	{r4, lr}
	// Wait for synch to complete
	#if defined(FEATURE_SERCOM_SYNCBUSY_SCHEME_VERSION_1)
	while (usart_hw->STATUS.reg & SERCOM_USART_STATUS_SYNCBUSY) {
	}
	#elif defined(FEATURE_SERCOM_SYNCBUSY_SCHEME_VERSION_2)
	while (usart_hw->SYNCBUSY.reg) {
    37fe:	4a15      	ldr	r2, [pc, #84]	; (3854 <rx_handler+0x58>)
    3800:	69d3      	ldr	r3, [r2, #28]
    3802:	2b00      	cmp	r3, #0
    3804:	d1fc      	bne.n	3800 <rx_handler+0x4>
	}
	#endif

	// Read and mask interrupt flag register
	interrupt_status = usart_hw->INTFLAG.reg;
    3806:	4b13      	ldr	r3, [pc, #76]	; (3854 <rx_handler+0x58>)
    3808:	7e1b      	ldrb	r3, [r3, #24]
    380a:	b2db      	uxtb	r3, r3
    380c:	4a12      	ldr	r2, [pc, #72]	; (3858 <rx_handler+0x5c>)
    380e:	8013      	strh	r3, [r2, #0]

	if (interrupt_status & SERCOM_USART_INTFLAG_RXC) {
    3810:	075b      	lsls	r3, r3, #29
    3812:	d51e      	bpl.n	3852 <rx_handler+0x56>
		// Check for errors
		error_code = (uint8_t)(usart_hw->STATUS.reg & SERCOM_USART_STATUS_MASK);
    3814:	4b0f      	ldr	r3, [pc, #60]	; (3854 <rx_handler+0x58>)
    3816:	8b5a      	ldrh	r2, [r3, #26]
    3818:	b2d2      	uxtb	r2, r2
    381a:	233f      	movs	r3, #63	; 0x3f
    381c:	4013      	ands	r3, r2
    381e:	490f      	ldr	r1, [pc, #60]	; (385c <rx_handler+0x60>)
    3820:	700b      	strb	r3, [r1, #0]
		if (error_code) {
    3822:	d006      	beq.n	3832 <rx_handler+0x36>
			// Only frame error and buffer overflow should be possible
			if (error_code &
    3824:	2306      	movs	r3, #6
    3826:	4213      	tst	r3, r2
    3828:	d013      	beq.n	3852 <rx_handler+0x56>
			(SERCOM_USART_STATUS_FERR | SERCOM_USART_STATUS_BUFOVF)){
				
				usart_hw->STATUS.reg =
    382a:	2206      	movs	r2, #6
    382c:	4b09      	ldr	r3, [pc, #36]	; (3854 <rx_handler+0x58>)
    382e:	835a      	strh	r2, [r3, #26]
    3830:	e00f      	b.n	3852 <rx_handler+0x56>
			}
			// All is fine, so push the received character into our queue
		}
		else {
			
			data = (usart_hw->DATA.reg & SERCOM_USART_DATA_MASK);
    3832:	4b08      	ldr	r3, [pc, #32]	; (3854 <rx_handler+0x58>)
    3834:	8d1b      	ldrh	r3, [r3, #40]	; 0x28
    3836:	490a      	ldr	r1, [pc, #40]	; (3860 <rx_handler+0x64>)
    3838:	05db      	lsls	r3, r3, #23
    383a:	0ddb      	lsrs	r3, r3, #23
    383c:	800b      	strh	r3, [r1, #0]
			//printf("%c\n\r",data);
			count++;
    383e:	4a09      	ldr	r2, [pc, #36]	; (3864 <rx_handler+0x68>)
    3840:	6813      	ldr	r3, [r2, #0]
    3842:	3301      	adds	r3, #1
    3844:	6013      	str	r3, [r2, #0]
			if (!xQueueSendFromISR(terminal_in_queue, (uint8_t *)&data,NULL))
    3846:	4b08      	ldr	r3, [pc, #32]	; (3868 <rx_handler+0x6c>)
    3848:	6818      	ldr	r0, [r3, #0]
    384a:	2300      	movs	r3, #0
    384c:	2200      	movs	r2, #0
    384e:	4c07      	ldr	r4, [pc, #28]	; (386c <rx_handler+0x70>)
    3850:	47a0      	blx	r4
			}
		}
		} else {
		// Error: only RX interrupt should be enabled
	}
}
    3852:	bd10      	pop	{r4, pc}
    3854:	42000c00 	.word	0x42000c00
    3858:	20003dda 	.word	0x20003dda
    385c:	20003f4c 	.word	0x20003f4c
    3860:	20003f3c 	.word	0x20003f3c
    3864:	20003cc8 	.word	0x20003cc8
    3868:	20003cd4 	.word	0x20003cd4
    386c:	00001349 	.word	0x00001349

00003870 <usart_serial_getchar>:
 * \param[out]    c       Destination for the read character.
 */
static inline void usart_serial_getchar(
		struct usart_module *const module,
		uint8_t *c)
{
    3870:	b570      	push	{r4, r5, r6, lr}
    3872:	b082      	sub	sp, #8
    3874:	0005      	movs	r5, r0
    3876:	000e      	movs	r6, r1
	uint16_t temp = 0;
    3878:	2200      	movs	r2, #0
    387a:	466b      	mov	r3, sp
    387c:	80da      	strh	r2, [r3, #6]

	while(STATUS_OK != usart_read_wait(module, &temp));
    387e:	4c06      	ldr	r4, [pc, #24]	; (3898 <usart_serial_getchar+0x28>)
    3880:	466b      	mov	r3, sp
    3882:	1d99      	adds	r1, r3, #6
    3884:	0028      	movs	r0, r5
    3886:	47a0      	blx	r4
    3888:	2800      	cmp	r0, #0
    388a:	d1f9      	bne.n	3880 <usart_serial_getchar+0x10>

	*c = temp;
    388c:	466b      	mov	r3, sp
    388e:	3306      	adds	r3, #6
    3890:	881b      	ldrh	r3, [r3, #0]
    3892:	7033      	strb	r3, [r6, #0]
}
    3894:	b002      	add	sp, #8
    3896:	bd70      	pop	{r4, r5, r6, pc}
    3898:	00002689 	.word	0x00002689

0000389c <usart_serial_putchar>:
 * \return Status code
 */
static inline enum status_code usart_serial_putchar(
		struct usart_module *const module,
		uint8_t c)
{
    389c:	b570      	push	{r4, r5, r6, lr}
    389e:	0005      	movs	r5, r0
	while(STATUS_OK !=usart_write_wait(module, c));
    38a0:	b28c      	uxth	r4, r1
    38a2:	4e03      	ldr	r6, [pc, #12]	; (38b0 <usart_serial_putchar+0x14>)
    38a4:	0021      	movs	r1, r4
    38a6:	0028      	movs	r0, r5
    38a8:	47b0      	blx	r6
    38aa:	2800      	cmp	r0, #0
    38ac:	d1fa      	bne.n	38a4 <usart_serial_putchar+0x8>

	return STATUS_OK;
}
    38ae:	bd70      	pop	{r4, r5, r6, pc}
    38b0:	0000265d 	.word	0x0000265d

000038b4 <configure_opamp2>:
struct adc_module adc_instance;
struct usart_module usart_instance;

/* Configure OPAMP2 and I/O PORT */
void configure_opamp2(enum opamp_pot_mux gain)
{
    38b4:	b530      	push	{r4, r5, lr}
    38b6:	b087      	sub	sp, #28
    38b8:	0005      	movs	r5, r0
	/* Creates a new configuration structure for the OPAMP2. */
	struct opamp2_config conf;

	/* Initializes OPAMP module. */
	opamp_module_init();
    38ba:	4b14      	ldr	r3, [pc, #80]	; (390c <configure_opamp2+0x58>)
    38bc:	4798      	blx	r3

	/* Fill with the default settings. */
	opamp2_get_config_defaults(&conf);
    38be:	ac01      	add	r4, sp, #4
    38c0:	0020      	movs	r0, r4
    38c2:	4b13      	ldr	r3, [pc, #76]	; (3910 <configure_opamp2+0x5c>)
    38c4:	4798      	blx	r3

	/* Set the the OPAMP2 in "Non-Inverted PGA" mode, gain of 4 */
	conf.negative_input           = OPAMP2_NEG_MUX_TAP2;
    38c6:	2380      	movs	r3, #128	; 0x80
    38c8:	035b      	lsls	r3, r3, #13
    38ca:	9301      	str	r3, [sp, #4]
	conf.positive_input           = OPAMP2_POS_MUX_PIN2;
    38cc:	2200      	movs	r2, #0
    38ce:	6062      	str	r2, [r4, #4]
	conf.r1_connection            = OPAMP2_RES1_MUX_GND;
    38d0:	23c0      	movs	r3, #192	; 0xc0
    38d2:	015b      	lsls	r3, r3, #5
    38d4:	8123      	strh	r3, [r4, #8]
	conf.config_common.potentiometer_selection = gain;
    38d6:	8165      	strh	r5, [r4, #10]
	conf.config_common.r1_enable  = true;
    38d8:	2301      	movs	r3, #1
    38da:	7323      	strb	r3, [r4, #12]
	conf.config_common.r2_out     = true;
    38dc:	73a3      	strb	r3, [r4, #14]
	conf.config_common.analog_out = true;
    38de:	74a3      	strb	r3, [r4, #18]
	/* Sanity check arguments */
	Assert(config);

	/* Default configuration values */
	config->mux_position = SYSTEM_PINMUX_GPIO;
	config->direction    = SYSTEM_PINMUX_PIN_DIR_INPUT;
    38e0:	4669      	mov	r1, sp
    38e2:	704a      	strb	r2, [r1, #1]
	config->input_pull   = SYSTEM_PINMUX_PIN_PULL_UP;
    38e4:	708b      	strb	r3, [r1, #2]
	config->powersave    = false;
    38e6:	70ca      	strb	r2, [r1, #3]

	/* Set up OA2POS pin as input. */
	struct system_pinmux_config opamp2_input_pin_conf;
	system_pinmux_get_config_defaults(&opamp2_input_pin_conf);
	opamp2_input_pin_conf.direction    = SYSTEM_PINMUX_PIN_DIR_INPUT;
	opamp2_input_pin_conf.mux_position = OPAMP_INPUT_MUX;
    38e8:	700b      	strb	r3, [r1, #0]
	system_pinmux_pin_set_config(OPAMP_INPUT_PIN, &opamp2_input_pin_conf);
    38ea:	2006      	movs	r0, #6
    38ec:	4b09      	ldr	r3, [pc, #36]	; (3914 <configure_opamp2+0x60>)
    38ee:	4798      	blx	r3

	/* Initialize and enable the OPAMP2 with the user settings. */
	opamp2_set_config(&conf);
    38f0:	0020      	movs	r0, r4
    38f2:	4b09      	ldr	r3, [pc, #36]	; (3918 <configure_opamp2+0x64>)
    38f4:	4798      	blx	r3
	opamp_enable(OPAMP_2);
    38f6:	2002      	movs	r0, #2
    38f8:	4b08      	ldr	r3, [pc, #32]	; (391c <configure_opamp2+0x68>)
    38fa:	4798      	blx	r3
	
	/* Wait for the output ready. */
	while(!opamp_is_ready(OPAMP_2));
    38fc:	4c08      	ldr	r4, [pc, #32]	; (3920 <configure_opamp2+0x6c>)
    38fe:	2002      	movs	r0, #2
    3900:	47a0      	blx	r4
    3902:	2800      	cmp	r0, #0
    3904:	d0fb      	beq.n	38fe <configure_opamp2+0x4a>
}
    3906:	b007      	add	sp, #28
    3908:	bd30      	pop	{r4, r5, pc}
    390a:	46c0      	nop			; (mov r8, r8)
    390c:	00003071 	.word	0x00003071
    3910:	000030ad 	.word	0x000030ad
    3914:	00003649 	.word	0x00003649
    3918:	000030d5 	.word	0x000030d5
    391c:	00003131 	.word	0x00003131
    3920:	00003165 	.word	0x00003165

00003924 <configure_adc>:

/* Configure ADC */
void configure_adc(void)
{
    3924:	b530      	push	{r4, r5, lr}
    3926:	b08d      	sub	sp, #52	; 0x34
	/* Creates a new configuration structure for the ADC */
	struct adc_config config_adc;

	adc_get_config_defaults(&config_adc);
    3928:	ac01      	add	r4, sp, #4
    392a:	0020      	movs	r0, r4
    392c:	4b11      	ldr	r3, [pc, #68]	; (3974 <configure_adc+0x50>)
    392e:	4798      	blx	r3
	
	/* Setup ADC with OPAMP2 output as ADC input */
	config_adc.clock_prescaler = ADC_CLOCK_PRESCALER_DIV8;
    3930:	2302      	movs	r3, #2
    3932:	70a3      	strb	r3, [r4, #2]
	config_adc.positive_input  = ADC_POSITIVE_INPUT_OPAMP2;//ADC_POSITIVE_INPUT_PIN14;
    3934:	331d      	adds	r3, #29
    3936:	7123      	strb	r3, [r4, #4]
	
	/* Initialize and enable ADC */
	adc_init(&adc_instance, ADC, &config_adc);
    3938:	4d0f      	ldr	r5, [pc, #60]	; (3978 <configure_adc+0x54>)
    393a:	0022      	movs	r2, r4
    393c:	490f      	ldr	r1, [pc, #60]	; (397c <configure_adc+0x58>)
    393e:	0028      	movs	r0, r5
    3940:	4b0f      	ldr	r3, [pc, #60]	; (3980 <configure_adc+0x5c>)
    3942:	4798      	blx	r3
		struct adc_module *const module_inst)
{
	Assert(module_inst);
	Assert(module_inst->hw);

	Adc *const adc_module = module_inst->hw;
    3944:	682a      	ldr	r2, [r5, #0]
	/* Sanity check arguments */
	Assert(module_inst);

	Adc *const adc_module = module_inst->hw;

	if (adc_module->SYNCBUSY.reg) {
    3946:	8c13      	ldrh	r3, [r2, #32]
    3948:	b29b      	uxth	r3, r3

	while (adc_is_syncing(module_inst)) {
    394a:	2b00      	cmp	r3, #0
    394c:	d1fb      	bne.n	3946 <configure_adc+0x22>
 * \param[in] vector Interrupt vector to enable
 */
static inline void system_interrupt_enable(
		const enum system_interrupt_vector vector)
{
	NVIC->ISER[0] = (uint32_t)(1 << ((uint32_t)vector & 0x0000001f));
    394e:	2180      	movs	r1, #128	; 0x80
    3950:	03c9      	lsls	r1, r1, #15
    3952:	4b0c      	ldr	r3, [pc, #48]	; (3984 <configure_adc+0x60>)
    3954:	6019      	str	r1, [r3, #0]
		system_interrupt_enable(SYSTEM_INTERRUPT_MODULE_ADC);
#   endif
#endif

	/* Disbale interrupt */
	adc_module->INTENCLR.reg = ADC_INTENCLR_MASK;
    3956:	2307      	movs	r3, #7
    3958:	7113      	strb	r3, [r2, #4]
	/* Clear interrupt flag */
	adc_module->INTFLAG.reg = ADC_INTFLAG_MASK;
    395a:	7193      	strb	r3, [r2, #6]

	adc_module->CTRLA.reg |= ADC_CTRLA_ENABLE;
    395c:	7811      	ldrb	r1, [r2, #0]
    395e:	3b05      	subs	r3, #5
    3960:	430b      	orrs	r3, r1
    3962:	7013      	strb	r3, [r2, #0]
	struct adc_module *const module_inst)
{
	/* Sanity check arguments */
	Assert(module_inst);

	Adc *const adc_module = module_inst->hw;
    3964:	4b04      	ldr	r3, [pc, #16]	; (3978 <configure_adc+0x54>)
    3966:	681a      	ldr	r2, [r3, #0]

	if (adc_module->SYNCBUSY.reg) {
    3968:	8c13      	ldrh	r3, [r2, #32]
    396a:	b29b      	uxth	r3, r3

	while (adc_is_syncing(module_inst)) {
    396c:	2b00      	cmp	r3, #0
    396e:	d1fb      	bne.n	3968 <configure_adc+0x44>
	adc_enable(&adc_instance);
}
    3970:	b00d      	add	sp, #52	; 0x34
    3972:	bd30      	pop	{r4, r5, pc}
    3974:	00002b3d 	.word	0x00002b3d
    3978:	20003f50 	.word	0x20003f50
    397c:	43000c00 	.word	0x43000c00
    3980:	00002b81 	.word	0x00002b81
    3984:	e000e100 	.word	0xe000e100

00003988 <configure_adc_callbacks>:

/* Enable ADC Callback Function */
void configure_adc_callbacks(void)
{
    3988:	b510      	push	{r4, lr}
	adc_register_callback(&adc_instance,
    398a:	4c05      	ldr	r4, [pc, #20]	; (39a0 <configure_adc_callbacks+0x18>)
    398c:	2200      	movs	r2, #0
    398e:	4905      	ldr	r1, [pc, #20]	; (39a4 <configure_adc_callbacks+0x1c>)
    3990:	0020      	movs	r0, r4
    3992:	4b05      	ldr	r3, [pc, #20]	; (39a8 <configure_adc_callbacks+0x20>)
    3994:	4798      	blx	r3
{
	/* Sanity check arguments */
	Assert(module);

	/* Enable callback */
	module->enabled_callback_mask |= (1 << callback_type);
    3996:	7ee2      	ldrb	r2, [r4, #27]
    3998:	2301      	movs	r3, #1
    399a:	4313      	orrs	r3, r2
    399c:	76e3      	strb	r3, [r4, #27]
			adc_complete_callback, ADC_CALLBACK_READ_BUFFER);
	adc_enable_callback(&adc_instance, ADC_CALLBACK_READ_BUFFER);
}
    399e:	bd10      	pop	{r4, pc}
    39a0:	20003f50 	.word	0x20003f50
    39a4:	000037f1 	.word	0x000037f1
    39a8:	00003011 	.word	0x00003011

000039ac <QueueInit>:
int QueuePut(uint16_t new);
int QueueGet(uint16_t *old);

void QueueInit(void)
{
	QueueIn = QueueOut = 0;
    39ac:	2300      	movs	r3, #0
    39ae:	4a02      	ldr	r2, [pc, #8]	; (39b8 <QueueInit+0xc>)
    39b0:	8013      	strh	r3, [r2, #0]
    39b2:	4a02      	ldr	r2, [pc, #8]	; (39bc <QueueInit+0x10>)
    39b4:	8013      	strh	r3, [r2, #0]
}
    39b6:	4770      	bx	lr
    39b8:	20003f3e 	.word	0x20003f3e
    39bc:	20003f40 	.word	0x20003f40

000039c0 <QueuePut>:

int QueuePut(uint16_t new)
{
    39c0:	b570      	push	{r4, r5, r6, lr}
    39c2:	0005      	movs	r5, r0
	if(QueueIn == (( QueueOut - 1 + QUEUE_SIZE) % QUEUE_SIZE))
    39c4:	4b0b      	ldr	r3, [pc, #44]	; (39f4 <QueuePut+0x34>)
    39c6:	881c      	ldrh	r4, [r3, #0]
    39c8:	4b0b      	ldr	r3, [pc, #44]	; (39f8 <QueuePut+0x38>)
    39ca:	8818      	ldrh	r0, [r3, #0]
    39cc:	3064      	adds	r0, #100	; 0x64
    39ce:	2165      	movs	r1, #101	; 0x65
    39d0:	4b0a      	ldr	r3, [pc, #40]	; (39fc <QueuePut+0x3c>)
    39d2:	4798      	blx	r3
    39d4:	428c      	cmp	r4, r1
    39d6:	d00a      	beq.n	39ee <QueuePut+0x2e>
	{
		return -1; /* Queue Full*/
	}

	Queue[QueueIn] = new;
    39d8:	0062      	lsls	r2, r4, #1
    39da:	4b09      	ldr	r3, [pc, #36]	; (3a00 <QueuePut+0x40>)
    39dc:	52d5      	strh	r5, [r2, r3]

	QueueIn = (QueueIn + 1) % QUEUE_SIZE;
    39de:	1c60      	adds	r0, r4, #1
    39e0:	2165      	movs	r1, #101	; 0x65
    39e2:	4b06      	ldr	r3, [pc, #24]	; (39fc <QueuePut+0x3c>)
    39e4:	4798      	blx	r3
    39e6:	4b03      	ldr	r3, [pc, #12]	; (39f4 <QueuePut+0x34>)
    39e8:	8019      	strh	r1, [r3, #0]

	return 0; // No errors
    39ea:	2000      	movs	r0, #0
    39ec:	e001      	b.n	39f2 <QueuePut+0x32>

int QueuePut(uint16_t new)
{
	if(QueueIn == (( QueueOut - 1 + QUEUE_SIZE) % QUEUE_SIZE))
	{
		return -1; /* Queue Full*/
    39ee:	2001      	movs	r0, #1
    39f0:	4240      	negs	r0, r0
	Queue[QueueIn] = new;

	QueueIn = (QueueIn + 1) % QUEUE_SIZE;

	return 0; // No errors
}
    39f2:	bd70      	pop	{r4, r5, r6, pc}
    39f4:	20003f40 	.word	0x20003f40
    39f8:	20003f3e 	.word	0x20003f3e
    39fc:	00004395 	.word	0x00004395
    3a00:	20003d10 	.word	0x20003d10

00003a04 <configure_i2c_master>:

struct i2c_master_module i2c_master_instance;
#define CONF_I2C_MASTER_MODULE    SERCOM2
void configure_i2c_master(void);
void configure_i2c_master(void)
{
    3a04:	b530      	push	{r4, r5, lr}
    3a06:	b08f      	sub	sp, #60	; 0x3c
static inline void i2c_master_get_config_defaults(
		struct i2c_master_config *const config)
{
	/*Sanity check argument */
	Assert(config);
	config->baud_rate        = I2C_MASTER_BAUD_RATE_100KHZ;
    3a08:	aa01      	add	r2, sp, #4
    3a0a:	2364      	movs	r3, #100	; 0x64
    3a0c:	9301      	str	r3, [sp, #4]
#ifdef FEATURE_I2C_FAST_MODE_PLUS_AND_HIGH_SPEED
	config->baud_rate_high_speed = I2C_MASTER_BAUD_RATE_3400KHZ;
    3a0e:	4b21      	ldr	r3, [pc, #132]	; (3a94 <configure_i2c_master+0x90>)
    3a10:	6053      	str	r3, [r2, #4]
	config->transfer_speed       = I2C_MASTER_SPEED_STANDARD_AND_FAST;
    3a12:	2300      	movs	r3, #0
    3a14:	6093      	str	r3, [r2, #8]
#endif
	config->generator_source = GCLK_GENERATOR_0;
    3a16:	7313      	strb	r3, [r2, #12]
	config->run_in_standby   = false;
    3a18:	7613      	strb	r3, [r2, #24]
	config->start_hold_time  = I2C_MASTER_START_HOLD_TIME_300NS_600NS;
    3a1a:	2180      	movs	r1, #128	; 0x80
    3a1c:	0389      	lsls	r1, r1, #14
    3a1e:	6111      	str	r1, [r2, #16]
	config->buffer_timeout   = 65535;
	config->unknown_bus_state_timeout = 65535;
    3a20:	2101      	movs	r1, #1
    3a22:	4249      	negs	r1, r1
    3a24:	8291      	strh	r1, [r2, #20]
	config->pinmux_pad0      = PINMUX_DEFAULT;
    3a26:	61d3      	str	r3, [r2, #28]
	config->pinmux_pad1      = PINMUX_DEFAULT;
    3a28:	6213      	str	r3, [r2, #32]
	config->scl_low_timeout  = false;
    3a2a:	3125      	adds	r1, #37	; 0x25
    3a2c:	5453      	strb	r3, [r2, r1]
	config->inactive_timeout = I2C_MASTER_INACTIVE_TIMEOUT_DISABLED;
    3a2e:	6293      	str	r3, [r2, #40]	; 0x28
#ifdef FEATURE_I2C_SCL_STRETCH_MODE
	config->scl_stretch_only_after_ack_bit = false;
    3a30:	3108      	adds	r1, #8
    3a32:	5453      	strb	r3, [r2, r1]
#endif
#ifdef FEATURE_I2C_SCL_EXTEND_TIMEOUT
	config->slave_scl_low_extend_timeout   = false;
    3a34:	3101      	adds	r1, #1
    3a36:	5453      	strb	r3, [r2, r1]
	config->master_scl_low_extend_timeout  = false;
    3a38:	3101      	adds	r1, #1
    3a3a:	5453      	strb	r3, [r2, r1]
#endif
	/* The typical value is 215ns */
	config->sda_scl_rise_time_ns = 215;
    3a3c:	33d7      	adds	r3, #215	; 0xd7
    3a3e:	8613      	strh	r3, [r2, #48]	; 0x30

	struct i2c_master_config config_i2c_master;
	i2c_master_get_config_defaults(&config_i2c_master);
	config_i2c_master.buffer_timeout = 10000;
    3a40:	4b15      	ldr	r3, [pc, #84]	; (3a98 <configure_i2c_master+0x94>)
    3a42:	82d3      	strh	r3, [r2, #22]
	i2c_master_init(&i2c_master_instance, CONF_I2C_MASTER_MODULE, &config_i2c_master);
    3a44:	4c15      	ldr	r4, [pc, #84]	; (3a9c <configure_i2c_master+0x98>)
    3a46:	4916      	ldr	r1, [pc, #88]	; (3aa0 <configure_i2c_master+0x9c>)
    3a48:	0020      	movs	r0, r4
    3a4a:	4b16      	ldr	r3, [pc, #88]	; (3aa4 <configure_i2c_master+0xa0>)
    3a4c:	4798      	blx	r3
{
	/* Sanity check of arguments */
	Assert(module);
	Assert(module->hw);

	SercomI2cm *const i2c_module = &(module->hw->I2CM);
    3a4e:	6824      	ldr	r4, [r4, #0]
		const struct i2c_master_module *const module)
{
	/* Sanity check */
	Assert(module);

	while (i2c_master_is_syncing(module)) {
    3a50:	2207      	movs	r2, #7
	SercomI2cm *const i2c_hw = &(module->hw->I2CM);

#if defined(FEATURE_SERCOM_SYNCBUSY_SCHEME_VERSION_1)
	return (i2c_hw->STATUS.reg & SERCOM_I2CM_STATUS_SYNCBUSY);
#elif defined(FEATURE_SERCOM_SYNCBUSY_SCHEME_VERSION_2)
	return (i2c_hw->SYNCBUSY.reg & SERCOM_I2CM_SYNCBUSY_MASK);
    3a52:	69e3      	ldr	r3, [r4, #28]
		const struct i2c_master_module *const module)
{
	/* Sanity check */
	Assert(module);

	while (i2c_master_is_syncing(module)) {
    3a54:	421a      	tst	r2, r3
    3a56:	d1fc      	bne.n	3a52 <configure_i2c_master+0x4e>

	/* Wait for module to sync */
	_i2c_master_wait_for_sync(module);

	/* Enable module */
	i2c_module->CTRLA.reg |= SERCOM_I2CM_CTRLA_ENABLE;
    3a58:	6822      	ldr	r2, [r4, #0]
    3a5a:	2302      	movs	r3, #2
    3a5c:	4313      	orrs	r3, r2
    3a5e:	6023      	str	r3, [r4, #0]

#if I2C_MASTER_CALLBACK_MODE == true
	/* Enable module interrupts */
	system_interrupt_enable(_sercom_get_interrupt_vector(module->hw));
    3a60:	4d0e      	ldr	r5, [pc, #56]	; (3a9c <configure_i2c_master+0x98>)
    3a62:	6828      	ldr	r0, [r5, #0]
    3a64:	4b10      	ldr	r3, [pc, #64]	; (3aa8 <configure_i2c_master+0xa4>)
    3a66:	4798      	blx	r3
    3a68:	231f      	movs	r3, #31
    3a6a:	4018      	ands	r0, r3
    3a6c:	3b1e      	subs	r3, #30
    3a6e:	4083      	lsls	r3, r0
    3a70:	4a0e      	ldr	r2, [pc, #56]	; (3aac <configure_i2c_master+0xa8>)
    3a72:	6013      	str	r3, [r2, #0]
#endif
	/* Start timeout if bus state is unknown */
	while (!(i2c_module->STATUS.reg & SERCOM_I2CM_STATUS_BUSSTATE(1))) {
		timeout_counter++;
		if(timeout_counter >= (module->unknown_bus_state_timeout)) {
    3a74:	88e8      	ldrh	r0, [r5, #6]
	Assert(module->hw);

	SercomI2cm *const i2c_module = &(module->hw->I2CM);

	/* Timeout counter used to force bus state */
	uint32_t timeout_counter = 0;
    3a76:	2300      	movs	r3, #0
#if I2C_MASTER_CALLBACK_MODE == true
	/* Enable module interrupts */
	system_interrupt_enable(_sercom_get_interrupt_vector(module->hw));
#endif
	/* Start timeout if bus state is unknown */
	while (!(i2c_module->STATUS.reg & SERCOM_I2CM_STATUS_BUSSTATE(1))) {
    3a78:	2110      	movs	r1, #16
    3a7a:	e005      	b.n	3a88 <configure_i2c_master+0x84>
		timeout_counter++;
    3a7c:	3301      	adds	r3, #1
		if(timeout_counter >= (module->unknown_bus_state_timeout)) {
    3a7e:	4283      	cmp	r3, r0
    3a80:	d302      	bcc.n	3a88 <configure_i2c_master+0x84>
			/* Timeout, force bus state to idle */
			i2c_module->STATUS.reg = SERCOM_I2CM_STATUS_BUSSTATE(1);
    3a82:	2310      	movs	r3, #16
    3a84:	8363      	strh	r3, [r4, #26]
    3a86:	e002      	b.n	3a8e <configure_i2c_master+0x8a>
#if I2C_MASTER_CALLBACK_MODE == true
	/* Enable module interrupts */
	system_interrupt_enable(_sercom_get_interrupt_vector(module->hw));
#endif
	/* Start timeout if bus state is unknown */
	while (!(i2c_module->STATUS.reg & SERCOM_I2CM_STATUS_BUSSTATE(1))) {
    3a88:	8b62      	ldrh	r2, [r4, #26]
    3a8a:	420a      	tst	r2, r1
    3a8c:	d0f6      	beq.n	3a7c <configure_i2c_master+0x78>
	i2c_master_enable(&i2c_master_instance);
}
    3a8e:	b00f      	add	sp, #60	; 0x3c
    3a90:	bd30      	pop	{r4, r5, pc}
    3a92:	46c0      	nop			; (mov r8, r8)
    3a94:	00000d48 	.word	0x00000d48
    3a98:	00002710 	.word	0x00002710
    3a9c:	20003f14 	.word	0x20003f14
    3aa0:	42000800 	.word	0x42000800
    3aa4:	00000121 	.word	0x00000121
    3aa8:	0000297d 	.word	0x0000297d
    3aac:	e000e100 	.word	0xe000e100

00003ab0 <main>:

/* Main function */
int main(void)
{
    3ab0:	b5f0      	push	{r4, r5, r6, r7, lr}
    3ab2:	b095      	sub	sp, #84	; 0x54
  This function disables IRQ interrupts by setting the I-bit in the CPSR.
  Can only be executed in Privileged modes.
 */
__attribute__( ( always_inline ) ) __STATIC_INLINE void __disable_irq(void)
{
  __ASM volatile ("cpsid i" : : : "memory");
    3ab4:	b672      	cpsid	i
    This function ensures the apparent order of the explicit memory operations before
    and after the instruction, without ensuring their completion.
 */
__attribute__( ( always_inline ) ) __STATIC_INLINE void __DMB(void)
{
  __ASM volatile ("dmb");
    3ab6:	f3bf 8f5f 	dmb	sy
 * Disabled global interrupts in the device, preventing any enabled interrupt
 * handlers from executing.
 */
static inline void system_interrupt_disable_global(void)
{
	cpu_irq_disable();
    3aba:	2400      	movs	r4, #0
    3abc:	2600      	movs	r6, #0
    3abe:	4b59      	ldr	r3, [pc, #356]	; (3c24 <main+0x174>)
    3ac0:	701c      	strb	r4, [r3, #0]
	
	
	system_interrupt_disable_global();
	
	system_init();
    3ac2:	4b59      	ldr	r3, [pc, #356]	; (3c28 <main+0x178>)
    3ac4:	4798      	blx	r3
	delay_init();
    3ac6:	4b59      	ldr	r3, [pc, #356]	; (3c2c <main+0x17c>)
    3ac8:	4798      	blx	r3
	configure_i2c_master();
    3aca:	4b59      	ldr	r3, [pc, #356]	; (3c30 <main+0x180>)
    3acc:	4798      	blx	r3
{
	/* Sanity check arguments */
	Assert(config);

	/* Set default config in the config struct */
	config->data_order       = USART_DATAORDER_LSB;
    3ace:	aa04      	add	r2, sp, #16
    3ad0:	2380      	movs	r3, #128	; 0x80
    3ad2:	05db      	lsls	r3, r3, #23
    3ad4:	9304      	str	r3, [sp, #16]
	config->transfer_mode    = USART_TRANSFER_ASYNCHRONOUSLY;
    3ad6:	6054      	str	r4, [r2, #4]
	config->parity           = USART_PARITY_NONE;
    3ad8:	23ff      	movs	r3, #255	; 0xff
    3ada:	8113      	strh	r3, [r2, #8]
	config->stopbits         = USART_STOPBITS_1;
    3adc:	7294      	strb	r4, [r2, #10]
	config->character_size   = USART_CHARACTER_SIZE_8BIT;
    3ade:	72d4      	strb	r4, [r2, #11]
	config->baudrate         = 9600;
	config->receiver_enable  = true;
    3ae0:	2501      	movs	r5, #1
    3ae2:	3bdb      	subs	r3, #219	; 0xdb
    3ae4:	54d5      	strb	r5, [r2, r3]
	config->transmitter_enable = true;
    3ae6:	3301      	adds	r3, #1
    3ae8:	54d5      	strb	r5, [r2, r3]
	config->clock_polarity_inverted = false;
    3aea:	3301      	adds	r3, #1
    3aec:	54d4      	strb	r4, [r2, r3]
	config->use_external_clock = false;
    3aee:	3301      	adds	r3, #1
    3af0:	54d4      	strb	r4, [r2, r3]
	config->ext_clock_freq   = 0;
    3af2:	6294      	str	r4, [r2, #40]	; 0x28
	config->mux_setting      = USART_RX_1_TX_2_XCK_3;
	config->run_in_standby   = false;
    3af4:	3305      	adds	r3, #5
    3af6:	54d4      	strb	r4, [r2, r3]
	config->generator_source = GCLK_GENERATOR_0;
    3af8:	3301      	adds	r3, #1
    3afa:	54d4      	strb	r4, [r2, r3]
	config->pinmux_pad0      = PINMUX_DEFAULT;
	config->pinmux_pad1      = PINMUX_DEFAULT;
	config->pinmux_pad2      = PINMUX_DEFAULT;
	config->pinmux_pad3      = PINMUX_DEFAULT;
#ifdef FEATURE_USART_OVER_SAMPLE
	config->sample_adjustment     = USART_SAMPLE_ADJUSTMENT_7_8_9;
    3afc:	6154      	str	r4, [r2, #20]
	config->sample_rate           = USART_SAMPLE_RATE_16X_ARITHMETIC;
    3afe:	8214      	strh	r4, [r2, #16]
#endif
#ifdef FEATURE_USART_LIN_SLAVE
	config->lin_slave_enable      = false;
    3b00:	2300      	movs	r3, #0
    3b02:	76d3      	strb	r3, [r2, #27]
	config->lin_header_delay = LIN_MASTER_HEADER_DELAY_0;
	config->lin_break_length = LIN_MASTER_BREAK_LENGTH_13_BIT;
#endif

#ifdef FEATURE_USART_IMMEDIATE_BUFFER_OVERFLOW_NOTIFICATION
	config->immediate_buffer_overflow_notification  = false;
    3b04:	7616      	strb	r6, [r2, #24]
#endif
#ifdef FEATURE_USART_START_FRAME_DECTION
	config->start_frame_detection_enable            = false;
    3b06:	7716      	strb	r6, [r2, #28]
#endif
#ifdef FEATURE_USART_IRDA
	config->encoding_format_enable                  = false;
    3b08:	7656      	strb	r6, [r2, #25]
	config->receive_pulse_length                    = 19;
    3b0a:	2313      	movs	r3, #19
    3b0c:	7693      	strb	r3, [r2, #26]
	config->iso7816_config.inhibit_nack             = ISO7816_INHIBIT_NACK_DISABLE;
	config->iso7816_config.successive_recv_nack     = ISO7816_SUCCESSIVE_RECV_NACK_DISABLE;
	config->iso7816_config.max_iterations           = 7;
#endif
#ifdef FEATURE_USART_COLLISION_DECTION
	config->collision_detection_enable              = false;
    3b0e:	7756      	strb	r6, [r2, #29]
{
	uint8_t instance_index;

	struct usart_config config_usart;
	usart_get_config_defaults(&config_usart);
	config_usart.baudrate    = 115200;
    3b10:	23e1      	movs	r3, #225	; 0xe1
    3b12:	025b      	lsls	r3, r3, #9
    3b14:	6213      	str	r3, [r2, #32]
	config_usart.mux_setting = EDBG_CDC_SERCOM_MUX_SETTING;
    3b16:	2380      	movs	r3, #128	; 0x80
    3b18:	035b      	lsls	r3, r3, #13
    3b1a:	60d3      	str	r3, [r2, #12]
	config_usart.pinmux_pad0 = EDBG_CDC_SERCOM_PINMUX_PAD0;
    3b1c:	4b45      	ldr	r3, [pc, #276]	; (3c34 <main+0x184>)
    3b1e:	6313      	str	r3, [r2, #48]	; 0x30
	config_usart.pinmux_pad1 = EDBG_CDC_SERCOM_PINMUX_PAD1;
    3b20:	4b45      	ldr	r3, [pc, #276]	; (3c38 <main+0x188>)
    3b22:	6353      	str	r3, [r2, #52]	; 0x34
	config_usart.pinmux_pad2 = EDBG_CDC_SERCOM_PINMUX_PAD2;
    3b24:	2301      	movs	r3, #1
    3b26:	425b      	negs	r3, r3
    3b28:	6393      	str	r3, [r2, #56]	; 0x38
	config_usart.pinmux_pad3 = EDBG_CDC_SERCOM_PINMUX_PAD3;
    3b2a:	63d3      	str	r3, [r2, #60]	; 0x3c
static inline void stdio_serial_init(
		struct usart_module *const module,
		usart_inst_t const hw,
		const struct usart_config *const config)
{
	stdio_base = (void *)module;
    3b2c:	4c43      	ldr	r4, [pc, #268]	; (3c3c <main+0x18c>)
    3b2e:	4b44      	ldr	r3, [pc, #272]	; (3c40 <main+0x190>)
    3b30:	601c      	str	r4, [r3, #0]
	ptr_put = (int (*)(void volatile*,char))&usart_serial_putchar;
    3b32:	4944      	ldr	r1, [pc, #272]	; (3c44 <main+0x194>)
    3b34:	4b44      	ldr	r3, [pc, #272]	; (3c48 <main+0x198>)
    3b36:	6019      	str	r1, [r3, #0]
	ptr_get = (void (*)(void volatile*,char*))&usart_serial_getchar;
    3b38:	4944      	ldr	r1, [pc, #272]	; (3c4c <main+0x19c>)
    3b3a:	4b45      	ldr	r3, [pc, #276]	; (3c50 <main+0x1a0>)
    3b3c:	6019      	str	r1, [r3, #0]
static inline bool usart_serial_init(
		struct usart_module *const module,
		usart_inst_t const hw,
		const struct usart_config *const config)
{
	if (usart_init(module, hw, config) == STATUS_OK) {
    3b3e:	4945      	ldr	r1, [pc, #276]	; (3c54 <main+0x1a4>)
    3b40:	0020      	movs	r0, r4
    3b42:	4b45      	ldr	r3, [pc, #276]	; (3c58 <main+0x1a8>)
    3b44:	4798      	blx	r3

	usart_serial_init(module, hw, config);
# if defined(__GNUC__)
	// Specify that stdout and stdin should not be buffered.
	setbuf(stdout, NULL);
    3b46:	4e45      	ldr	r6, [pc, #276]	; (3c5c <main+0x1ac>)
    3b48:	6833      	ldr	r3, [r6, #0]
    3b4a:	6898      	ldr	r0, [r3, #8]
    3b4c:	2100      	movs	r1, #0
    3b4e:	4f44      	ldr	r7, [pc, #272]	; (3c60 <main+0x1b0>)
    3b50:	47b8      	blx	r7
	setbuf(stdin, NULL);
    3b52:	6833      	ldr	r3, [r6, #0]
    3b54:	6858      	ldr	r0, [r3, #4]
    3b56:	2100      	movs	r1, #0
    3b58:	47b8      	blx	r7
	stdio_serial_init(&usart_instance, EDBG_CDC_MODULE, &config_usart);
	
	// Inject our own interrupt handler
	instance_index = _sercom_get_sercom_inst_index(EDBG_CDC_MODULE);
    3b5a:	483e      	ldr	r0, [pc, #248]	; (3c54 <main+0x1a4>)
    3b5c:	4b41      	ldr	r3, [pc, #260]	; (3c64 <main+0x1b4>)
    3b5e:	4798      	blx	r3
	_sercom_set_handler(instance_index, rx_handler);
    3b60:	4941      	ldr	r1, [pc, #260]	; (3c68 <main+0x1b8>)
    3b62:	4b42      	ldr	r3, [pc, #264]	; (3c6c <main+0x1bc>)
    3b64:	4798      	blx	r3
	/* Sanity check arguments */
	Assert(module);
	Assert(module->hw);

	/* Get a pointer to the hardware module instance */
	SercomUsart *const usart_hw = &(module->hw->USART);
    3b66:	6826      	ldr	r6, [r4, #0]

#if USART_CALLBACK_MODE == true
	/* Enable Global interrupt for module */
	system_interrupt_enable(_sercom_get_interrupt_vector(module->hw));
    3b68:	0030      	movs	r0, r6
    3b6a:	4b41      	ldr	r3, [pc, #260]	; (3c70 <main+0x1c0>)
    3b6c:	4798      	blx	r3
 * \param[in] vector Interrupt vector to enable
 */
static inline void system_interrupt_enable(
		const enum system_interrupt_vector vector)
{
	NVIC->ISER[0] = (uint32_t)(1 << ((uint32_t)vector & 0x0000001f));
    3b6e:	231f      	movs	r3, #31
    3b70:	4018      	ands	r0, r3
    3b72:	4085      	lsls	r5, r0
    3b74:	4b3f      	ldr	r3, [pc, #252]	; (3c74 <main+0x1c4>)
    3b76:	601d      	str	r5, [r3, #0]
{
	/* Sanity check arguments */
	Assert(module);
	Assert(module->hw);

	SercomUsart *const usart_hw = &(module->hw->USART);
    3b78:	6823      	ldr	r3, [r4, #0]

#ifdef FEATURE_USART_SYNC_SCHEME_V2
	return (usart_hw->SYNCBUSY.reg);
    3b7a:	69da      	ldr	r2, [r3, #28]
		const struct usart_module *const module)
{
	/* Sanity check */
	Assert(module);

	while (usart_is_syncing(module)) {
    3b7c:	2a00      	cmp	r2, #0
    3b7e:	d1fc      	bne.n	3b7a <main+0xca>

	/* Wait until synchronization is complete */
	_usart_wait_for_sync(module);

	/* Enable USART module */
	usart_hw->CTRLA.reg |= SERCOM_USART_CTRLA_ENABLE;
    3b80:	6832      	ldr	r2, [r6, #0]
    3b82:	2302      	movs	r3, #2
    3b84:	4313      	orrs	r3, r2
    3b86:	6033      	str	r3, [r6, #0]
	/* Sanity check arguments */
	Assert(module);
	Assert(module->hw);

	/* Get a pointer to the hardware module instance */
	SercomUsart *const usart_hw = &(module->hw->USART);
    3b88:	4b2c      	ldr	r3, [pc, #176]	; (3c3c <main+0x18c>)
    3b8a:	681b      	ldr	r3, [r3, #0]
	Assert(module->hw);

	SercomUsart *const usart_hw = &(module->hw->USART);

#ifdef FEATURE_USART_SYNC_SCHEME_V2
	return (usart_hw->SYNCBUSY.reg);
    3b8c:	69da      	ldr	r2, [r3, #28]
		const struct usart_module *const module)
{
	/* Sanity check */
	Assert(module);

	while (usart_is_syncing(module)) {
    3b8e:	2a00      	cmp	r2, #0
    3b90:	d1fc      	bne.n	3b8c <main+0xdc>
			module->receiver_enabled = true;
			break;

		case USART_TRANSCEIVER_TX:
			/* Enable TX */
			usart_hw->CTRLB.reg |= SERCOM_USART_CTRLB_TXEN;
    3b92:	685a      	ldr	r2, [r3, #4]
    3b94:	2180      	movs	r1, #128	; 0x80
    3b96:	0249      	lsls	r1, r1, #9
    3b98:	430a      	orrs	r2, r1
    3b9a:	605a      	str	r2, [r3, #4]
			module->transmitter_enabled = true;
    3b9c:	2101      	movs	r1, #1
    3b9e:	4a27      	ldr	r2, [pc, #156]	; (3c3c <main+0x18c>)
    3ba0:	71d1      	strb	r1, [r2, #7]
	Assert(module->hw);

	SercomUsart *const usart_hw = &(module->hw->USART);

#ifdef FEATURE_USART_SYNC_SCHEME_V2
	return (usart_hw->SYNCBUSY.reg);
    3ba2:	69da      	ldr	r2, [r3, #28]
		const struct usart_module *const module)
{
	/* Sanity check */
	Assert(module);

	while (usart_is_syncing(module)) {
    3ba4:	2a00      	cmp	r2, #0
    3ba6:	d1fc      	bne.n	3ba2 <main+0xf2>
	Assert(module->hw);

	SercomUsart *const usart_hw = &(module->hw->USART);

#ifdef FEATURE_USART_SYNC_SCHEME_V2
	return (usart_hw->SYNCBUSY.reg);
    3ba8:	69da      	ldr	r2, [r3, #28]
		const struct usart_module *const module)
{
	/* Sanity check */
	Assert(module);

	while (usart_is_syncing(module)) {
    3baa:	2a00      	cmp	r2, #0
    3bac:	d1fc      	bne.n	3ba8 <main+0xf8>
	_usart_wait_for_sync(module);

	switch (transceiver_type) {
		case USART_TRANSCEIVER_RX:
			/* Enable RX */
			usart_hw->CTRLB.reg |= SERCOM_USART_CTRLB_RXEN;
    3bae:	685a      	ldr	r2, [r3, #4]
    3bb0:	2180      	movs	r1, #128	; 0x80
    3bb2:	0289      	lsls	r1, r1, #10
    3bb4:	430a      	orrs	r2, r1
    3bb6:	605a      	str	r2, [r3, #4]
			module->receiver_enabled = true;
    3bb8:	2101      	movs	r1, #1
    3bba:	4a20      	ldr	r2, [pc, #128]	; (3c3c <main+0x18c>)
    3bbc:	7191      	strb	r1, [r2, #6]
	Assert(module->hw);

	SercomUsart *const usart_hw = &(module->hw->USART);

#ifdef FEATURE_USART_SYNC_SCHEME_V2
	return (usart_hw->SYNCBUSY.reg);
    3bbe:	69da      	ldr	r2, [r3, #28]
		const struct usart_module *const module)
{
	/* Sanity check */
	Assert(module);

	while (usart_is_syncing(module)) {
    3bc0:	2a00      	cmp	r2, #0
    3bc2:	d1fc      	bne.n	3bbe <main+0x10e>
	usart_enable(&usart_instance);
	usart_enable_transceiver(&usart_instance, USART_TRANSCEIVER_TX);
	usart_enable_transceiver(&usart_instance, USART_TRANSCEIVER_RX);

	// ..and the RX Complete interrupt
	((SercomUsart *)EDBG_CDC_MODULE)->INTENSET.reg = SERCOM_USART_INTFLAG_RXC;
    3bc4:	3204      	adds	r2, #4
    3bc6:	4b23      	ldr	r3, [pc, #140]	; (3c54 <main+0x1a4>)
    3bc8:	759a      	strb	r2, [r3, #22]
	
	system_init();
	delay_init();
	configure_i2c_master();
	configure_usart();
	configure_adc();
    3bca:	4b2b      	ldr	r3, [pc, #172]	; (3c78 <main+0x1c8>)
    3bcc:	4798      	blx	r3
	configure_adc_callbacks();
    3bce:	4b2b      	ldr	r3, [pc, #172]	; (3c7c <main+0x1cc>)
    3bd0:	4798      	blx	r3
// 	tmp1 = at24cxx_read_byte(0);
// 	tmp2 = at24cxx_read_byte(1);
	

	/* Initialize OPAMP2 and ADC */
	configure_opamp2(OPAMP_POT_MUX_8R_8R);
    3bd2:	2080      	movs	r0, #128	; 0x80
    3bd4:	01c0      	lsls	r0, r0, #7
    3bd6:	4b2a      	ldr	r3, [pc, #168]	; (3c80 <main+0x1d0>)
    3bd8:	4798      	blx	r3
	

	
	//display_mutex  = xSemaphoreCreateMutex();
	//terminal_mutex = xSemaphoreCreateMutex();
	terminal_in_queue = xQueueCreate(64, sizeof(uint8_t));
    3bda:	2200      	movs	r2, #0
    3bdc:	2101      	movs	r1, #1
    3bde:	2040      	movs	r0, #64	; 0x40
    3be0:	4b28      	ldr	r3, [pc, #160]	; (3c84 <main+0x1d4>)
    3be2:	4798      	blx	r3
    3be4:	4b28      	ldr	r3, [pc, #160]	; (3c88 <main+0x1d8>)
    3be6:	6018      	str	r0, [r3, #0]

	xTaskCreate(main_task,
    3be8:	2400      	movs	r4, #0
    3bea:	9403      	str	r4, [sp, #12]
    3bec:	9402      	str	r4, [sp, #8]
    3bee:	9401      	str	r4, [sp, #4]
    3bf0:	2302      	movs	r3, #2
    3bf2:	9300      	str	r3, [sp, #0]
    3bf4:	2300      	movs	r3, #0
    3bf6:	2264      	movs	r2, #100	; 0x64
    3bf8:	4924      	ldr	r1, [pc, #144]	; (3c8c <main+0x1dc>)
    3bfa:	4825      	ldr	r0, [pc, #148]	; (3c90 <main+0x1e0>)
    3bfc:	4d25      	ldr	r5, [pc, #148]	; (3c94 <main+0x1e4>)
    3bfe:	47a8      	blx	r5
	NULL,
	MAIN_TASK_PRIORITY,
	NULL);


	xTaskCreate(uart_task,
    3c00:	9403      	str	r4, [sp, #12]
    3c02:	9402      	str	r4, [sp, #8]
    3c04:	9401      	str	r4, [sp, #4]
    3c06:	3401      	adds	r4, #1
    3c08:	9400      	str	r4, [sp, #0]
    3c0a:	2300      	movs	r3, #0
    3c0c:	2264      	movs	r2, #100	; 0x64
    3c0e:	4922      	ldr	r1, [pc, #136]	; (3c98 <main+0x1e8>)
    3c10:	4822      	ldr	r0, [pc, #136]	; (3c9c <main+0x1ec>)
    3c12:	47a8      	blx	r5
 *
 * Enables global interrupts in the device to fire any enabled interrupt handlers.
 */
static inline void system_interrupt_enable_global(void)
{
	cpu_irq_enable();
    3c14:	4b03      	ldr	r3, [pc, #12]	; (3c24 <main+0x174>)
    3c16:	701c      	strb	r4, [r3, #0]
    3c18:	f3bf 8f5f 	dmb	sy
  This function enables IRQ interrupts by clearing the I-bit in the CPSR.
  Can only be executed in Privileged modes.
 */
__attribute__( ( always_inline ) ) __STATIC_INLINE void __enable_irq(void)
{
  __ASM volatile ("cpsie i" : : : "memory");
    3c1c:	b662      	cpsie	i

	/* Enable global interrupts */
	system_interrupt_enable_global();
	
	// ..and let FreeRTOS run tasks!
	vTaskStartScheduler();
    3c1e:	4b20      	ldr	r3, [pc, #128]	; (3ca0 <main+0x1f0>)
    3c20:	4798      	blx	r3
    3c22:	e7fe      	b.n	3c22 <main+0x172>
    3c24:	20000010 	.word	0x20000010
    3c28:	0000367d 	.word	0x0000367d
    3c2c:	00002a09 	.word	0x00002a09
    3c30:	00003a05 	.word	0x00003a05
    3c34:	00160002 	.word	0x00160002
    3c38:	00170002 	.word	0x00170002
    3c3c:	20003ddc 	.word	0x20003ddc
    3c40:	20003cf0 	.word	0x20003cf0
    3c44:	0000389d 	.word	0x0000389d
    3c48:	20003cec 	.word	0x20003cec
    3c4c:	00003871 	.word	0x00003871
    3c50:	20003ce8 	.word	0x20003ce8
    3c54:	42000c00 	.word	0x42000c00
    3c58:	000022f9 	.word	0x000022f9
    3c5c:	20000088 	.word	0x20000088
    3c60:	00005d9f 	.word	0x00005d9f
    3c64:	00000c05 	.word	0x00000c05
    3c68:	000037fd 	.word	0x000037fd
    3c6c:	00002941 	.word	0x00002941
    3c70:	0000297d 	.word	0x0000297d
    3c74:	e000e100 	.word	0xe000e100
    3c78:	00003925 	.word	0x00003925
    3c7c:	00003989 	.word	0x00003989
    3c80:	000038b5 	.word	0x000038b5
    3c84:	0000117d 	.word	0x0000117d
    3c88:	20003cd4 	.word	0x20003cd4
    3c8c:	00006708 	.word	0x00006708
    3c90:	00003ce1 	.word	0x00003ce1
    3c94:	0000166d 	.word	0x0000166d
    3c98:	00006710 	.word	0x00006710
    3c9c:	00003e71 	.word	0x00003e71
    3ca0:	00001859 	.word	0x00001859

00003ca4 <media>:
	}
}


uint16_t media(uint16_t *buffer,uint16_t n_init_camp,uint16_t length_buffer)
{
    3ca4:	b5f8      	push	{r3, r4, r5, r6, r7, lr}
	long tmp = 0;
	for(i=n_init_camp;i<length_buffer;i++)
    3ca6:	4b0c      	ldr	r3, [pc, #48]	; (3cd8 <media+0x34>)
    3ca8:	6019      	str	r1, [r3, #0]
    3caa:	4291      	cmp	r1, r2
    3cac:	d20d      	bcs.n	3cca <media+0x26>
    3cae:	1c4b      	adds	r3, r1, #1
    3cb0:	004c      	lsls	r4, r1, #1
    3cb2:	1904      	adds	r4, r0, r4
    3cb4:	1c57      	adds	r7, r2, #1
    3cb6:	2000      	movs	r0, #0
    3cb8:	4e07      	ldr	r6, [pc, #28]	; (3cd8 <media+0x34>)
	{
		tmp += buffer[i];
    3cba:	8825      	ldrh	r5, [r4, #0]
    3cbc:	1940      	adds	r0, r0, r5


uint16_t media(uint16_t *buffer,uint16_t n_init_camp,uint16_t length_buffer)
{
	long tmp = 0;
	for(i=n_init_camp;i<length_buffer;i++)
    3cbe:	6033      	str	r3, [r6, #0]
    3cc0:	3301      	adds	r3, #1
    3cc2:	3402      	adds	r4, #2
    3cc4:	42bb      	cmp	r3, r7
    3cc6:	d1f8      	bne.n	3cba <media+0x16>
    3cc8:	e000      	b.n	3ccc <media+0x28>
}


uint16_t media(uint16_t *buffer,uint16_t n_init_camp,uint16_t length_buffer)
{
	long tmp = 0;
    3cca:	2000      	movs	r0, #0
	for(i=n_init_camp;i<length_buffer;i++)
	{
		tmp += buffer[i];
	}
	return (uint16_t)(tmp/(length_buffer-n_init_camp));
    3ccc:	1a51      	subs	r1, r2, r1
    3cce:	4b03      	ldr	r3, [pc, #12]	; (3cdc <media+0x38>)
    3cd0:	4798      	blx	r3
    3cd2:	b280      	uxth	r0, r0
}
    3cd4:	bdf8      	pop	{r3, r4, r5, r6, r7, pc}
    3cd6:	46c0      	nop			; (mov r8, r8)
    3cd8:	20003cd0 	.word	0x20003cd0
    3cdc:	000041c9 	.word	0x000041c9

00003ce0 <main_task>:
	} while (true);
	
}

static void main_task(void *params)
{
    3ce0:	b570      	push	{r4, r5, r6, lr}
	int i = 0;
	uint16_t old_result;
	QueueInit();
    3ce2:	4b40      	ldr	r3, [pc, #256]	; (3de4 <main_task+0x104>)
    3ce4:	4798      	blx	r3
	QueuePut(0xAA);
    3ce6:	20aa      	movs	r0, #170	; 0xaa
    3ce8:	4b3f      	ldr	r3, [pc, #252]	; (3de8 <main_task+0x108>)
    3cea:	4798      	blx	r3

	for(;;) {
		
		memset(adc_result_buffer,0,ADC_SAMPLES);
    3cec:	4c3f      	ldr	r4, [pc, #252]	; (3dec <main_task+0x10c>)
    3cee:	4e40      	ldr	r6, [pc, #256]	; (3df0 <main_task+0x110>)
		/* Start ADC conversion */
		adc_read_buffer_job(&adc_instance, adc_result_buffer, n_sample);
    3cf0:	4d40      	ldr	r5, [pc, #256]	; (3df4 <main_task+0x114>)
	QueueInit();
	QueuePut(0xAA);

	for(;;) {
		
		memset(adc_result_buffer,0,ADC_SAMPLES);
    3cf2:	2220      	movs	r2, #32
    3cf4:	2100      	movs	r1, #0
    3cf6:	0020      	movs	r0, r4
    3cf8:	47b0      	blx	r6
		/* Start ADC conversion */
		adc_read_buffer_job(&adc_instance, adc_result_buffer, n_sample);
    3cfa:	882a      	ldrh	r2, [r5, #0]
    3cfc:	0021      	movs	r1, r4
    3cfe:	483e      	ldr	r0, [pc, #248]	; (3df8 <main_task+0x118>)
    3d00:	4b3e      	ldr	r3, [pc, #248]	; (3dfc <main_task+0x11c>)
    3d02:	4798      	blx	r3
		
		if (adc_read_done == true) {
    3d04:	4b3e      	ldr	r3, [pc, #248]	; (3e00 <main_task+0x120>)
    3d06:	781b      	ldrb	r3, [r3, #0]
    3d08:	2b00      	cmp	r3, #0
    3d0a:	d03f      	beq.n	3d8c <main_task+0xac>
			
			adc_read_done = false;
    3d0c:	2200      	movs	r2, #0
    3d0e:	4b3c      	ldr	r3, [pc, #240]	; (3e00 <main_task+0x120>)
    3d10:	701a      	strb	r2, [r3, #0]
			
// 			for(i = ADC_SAMPLES/2 ; i = ADC_SAMPLES; i++){
// 				adc_result_buffer_filtered[i] = adc_result_buffer[i*2];
// 			}
			
			integrale = media(adc_result_buffer,ADC_SAMPLES/2,ADC_SAMPLES);
    3d12:	3220      	adds	r2, #32
    3d14:	2110      	movs	r1, #16
    3d16:	4835      	ldr	r0, [pc, #212]	; (3dec <main_task+0x10c>)
    3d18:	4b3a      	ldr	r3, [pc, #232]	; (3e04 <main_task+0x124>)
    3d1a:	4798      	blx	r3
    3d1c:	4b3a      	ldr	r3, [pc, #232]	; (3e08 <main_task+0x128>)
    3d1e:	8018      	strh	r0, [r3, #0]
			//integrale = media(adc_result_buffer_filtered,n_sample);
			
			

			
			if(integrale < threshold_value)
    3d20:	4b3a      	ldr	r3, [pc, #232]	; (3e0c <main_task+0x12c>)
    3d22:	881b      	ldrh	r3, [r3, #0]
    3d24:	4283      	cmp	r3, r0
    3d26:	d919      	bls.n	3d5c <main_task+0x7c>
			{
				if(pick_count_up < PICK_COUNT_UP_DEFAULT)
    3d28:	4b39      	ldr	r3, [pc, #228]	; (3e10 <main_task+0x130>)
    3d2a:	681b      	ldr	r3, [r3, #0]
    3d2c:	2b27      	cmp	r3, #39	; 0x27
    3d2e:	d803      	bhi.n	3d38 <main_task+0x58>
					pick_count_up++;
    3d30:	3301      	adds	r3, #1
    3d32:	4a37      	ldr	r2, [pc, #220]	; (3e10 <main_task+0x130>)
    3d34:	6013      	str	r3, [r2, #0]
    3d36:	e029      	b.n	3d8c <main_task+0xac>
				else
				{
					pick_count_up = 0;
    3d38:	2200      	movs	r2, #0
    3d3a:	4b35      	ldr	r3, [pc, #212]	; (3e10 <main_task+0x130>)
    3d3c:	601a      	str	r2, [r3, #0]
					pick_count_down = PICK_COUNT_DOWN_DEFAULT;	
    3d3e:	3214      	adds	r2, #20
    3d40:	4b34      	ldr	r3, [pc, #208]	; (3e14 <main_task+0x134>)
    3d42:	601a      	str	r2, [r3, #0]
					alarm_detected = 1;
    3d44:	3a13      	subs	r2, #19
    3d46:	4b34      	ldr	r3, [pc, #208]	; (3e18 <main_task+0x138>)
    3d48:	701a      	strb	r2, [r3, #0]
	PortGroup *const port_base = port_get_group_from_gpio_pin(gpio_pin);
	uint32_t pin_mask  = (1UL << (gpio_pin % 32));

	/* Set the pin to high or low atomically based on the requested level */
	if (level) {
		port_base->OUTSET.reg = pin_mask;
    3d4a:	4b34      	ldr	r3, [pc, #208]	; (3e1c <main_task+0x13c>)
    3d4c:	2280      	movs	r2, #128	; 0x80
    3d4e:	0392      	lsls	r2, r2, #14
    3d50:	619a      	str	r2, [r3, #24]
	} else {
		port_base->OUTCLR.reg = pin_mask;
    3d52:	3380      	adds	r3, #128	; 0x80
    3d54:	2280      	movs	r2, #128	; 0x80
    3d56:	0152      	lsls	r2, r2, #5
    3d58:	615a      	str	r2, [r3, #20]
    3d5a:	e017      	b.n	3d8c <main_task+0xac>
					//delay_ms(3000);
				}
			}
			else
			{
				if(pick_count_down > 0)
    3d5c:	4b2d      	ldr	r3, [pc, #180]	; (3e14 <main_task+0x134>)
    3d5e:	681b      	ldr	r3, [r3, #0]
    3d60:	2b00      	cmp	r3, #0
    3d62:	d003      	beq.n	3d6c <main_task+0x8c>
					pick_count_down--;
    3d64:	3b01      	subs	r3, #1
    3d66:	4a2b      	ldr	r2, [pc, #172]	; (3e14 <main_task+0x134>)
    3d68:	6013      	str	r3, [r2, #0]
    3d6a:	e00f      	b.n	3d8c <main_task+0xac>
				else
				{
					pick_count_down = PICK_COUNT_DOWN_DEFAULT;
    3d6c:	2214      	movs	r2, #20
    3d6e:	4b29      	ldr	r3, [pc, #164]	; (3e14 <main_task+0x134>)
    3d70:	601a      	str	r2, [r3, #0]
					pick_count_up = 0;
    3d72:	2300      	movs	r3, #0
    3d74:	4a26      	ldr	r2, [pc, #152]	; (3e10 <main_task+0x130>)
    3d76:	6013      	str	r3, [r2, #0]
					alarm_detected = 0;
    3d78:	4a27      	ldr	r2, [pc, #156]	; (3e18 <main_task+0x138>)
    3d7a:	7013      	strb	r3, [r2, #0]
    3d7c:	4b27      	ldr	r3, [pc, #156]	; (3e1c <main_task+0x13c>)
    3d7e:	2280      	movs	r2, #128	; 0x80
    3d80:	0392      	lsls	r2, r2, #14
    3d82:	615a      	str	r2, [r3, #20]
	PortGroup *const port_base = port_get_group_from_gpio_pin(gpio_pin);
	uint32_t pin_mask  = (1UL << (gpio_pin % 32));

	/* Set the pin to high or low atomically based on the requested level */
	if (level) {
		port_base->OUTSET.reg = pin_mask;
    3d84:	3380      	adds	r3, #128	; 0x80
    3d86:	2280      	movs	r2, #128	; 0x80
    3d88:	0152      	lsls	r2, r2, #5
    3d8a:	619a      	str	r2, [r3, #24]
// 			}
		}
			

		
		if(change_gain == true)
    3d8c:	4b24      	ldr	r3, [pc, #144]	; (3e20 <main_task+0x140>)
    3d8e:	781b      	ldrb	r3, [r3, #0]
    3d90:	2b00      	cmp	r3, #0
    3d92:	d022      	beq.n	3dda <main_task+0xfa>
		{
			enum opamp_pot_mux temp_gain = OPAMP_POT_MUX_14R_2R;
			switch(analog_gain){
    3d94:	4b23      	ldr	r3, [pc, #140]	; (3e24 <main_task+0x144>)
    3d96:	781a      	ldrb	r2, [r3, #0]
    3d98:	2a08      	cmp	r2, #8
    3d9a:	d818      	bhi.n	3dce <main_task+0xee>
    3d9c:	0093      	lsls	r3, r2, #2
    3d9e:	4a22      	ldr	r2, [pc, #136]	; (3e28 <main_task+0x148>)
    3da0:	58d3      	ldr	r3, [r2, r3]
    3da2:	469f      	mov	pc, r3
				case MUX_14R_2R:temp_gain = OPAMP_POT_MUX_14R_2R;
				break;
				/** Gain = R2/R1 = 1/3 */
				case MUX_12R_4R:temp_gain = OPAMP_POT_MUX_12R_4R;
    3da4:	2080      	movs	r0, #128	; 0x80
    3da6:	0180      	lsls	r0, r0, #6
    3da8:	e012      	b.n	3dd0 <main_task+0xf0>
				break;
				/** Gain = R2/R1 = 1 */
				case MUX_8R_8R:temp_gain = OPAMP_POT_MUX_8R_8R;
    3daa:	2080      	movs	r0, #128	; 0x80
    3dac:	01c0      	lsls	r0, r0, #7
				break;
    3dae:	e00f      	b.n	3dd0 <main_task+0xf0>
				/** Gain = R2/R1 = 1 + 2/3 */
				case MUX_6R_10R:temp_gain = OPAMP_POT_MUX_6R_10R;
    3db0:	20c0      	movs	r0, #192	; 0xc0
    3db2:	01c0      	lsls	r0, r0, #7
				break;
    3db4:	e00c      	b.n	3dd0 <main_task+0xf0>
				/** Gain = R2/R1 = 3 */
				case MUX_4R_12R:temp_gain = OPAMP_POT_MUX_4R_12R;
    3db6:	2080      	movs	r0, #128	; 0x80
    3db8:	0200      	lsls	r0, r0, #8
				break;
    3dba:	e009      	b.n	3dd0 <main_task+0xf0>
				/** Gain = R2/R1 = 4 + 1/3 */
				case MUX_3R_13R:temp_gain = OPAMP_POT_MUX_3R_13R;
    3dbc:	20a0      	movs	r0, #160	; 0xa0
    3dbe:	0200      	lsls	r0, r0, #8
				break;
    3dc0:	e006      	b.n	3dd0 <main_task+0xf0>
				/** Gain = R2/R1 = 7 */
				case MUX_2R_14R:temp_gain = OPAMP_POT_MUX_2R_14R;
    3dc2:	20c0      	movs	r0, #192	; 0xc0
    3dc4:	0200      	lsls	r0, r0, #8
				break;
    3dc6:	e003      	b.n	3dd0 <main_task+0xf0>
				/** Gain = R2/R1 = 15 */
				case MUX_R_15R:temp_gain = OPAMP_POT_MUX_R_15R;
    3dc8:	20e0      	movs	r0, #224	; 0xe0
    3dca:	0200      	lsls	r0, r0, #8
				break;
    3dcc:	e000      	b.n	3dd0 <main_task+0xf0>
			

		
		if(change_gain == true)
		{
			enum opamp_pot_mux temp_gain = OPAMP_POT_MUX_14R_2R;
    3dce:	2000      	movs	r0, #0
				break;
				default:
				break;
			}
			
			configure_opamp2(temp_gain);
    3dd0:	4b16      	ldr	r3, [pc, #88]	; (3e2c <main_task+0x14c>)
    3dd2:	4798      	blx	r3
			
			change_gain = false;
    3dd4:	2200      	movs	r2, #0
    3dd6:	4b12      	ldr	r3, [pc, #72]	; (3e20 <main_task+0x140>)
    3dd8:	701a      	strb	r2, [r3, #0]
		}
		
		vTaskDelay(MAIN_TASK_DELAY);
    3dda:	2032      	movs	r0, #50	; 0x32
    3ddc:	4b14      	ldr	r3, [pc, #80]	; (3e30 <main_task+0x150>)
    3dde:	4798      	blx	r3
	}
    3de0:	e787      	b.n	3cf2 <main_task+0x12>
    3de2:	46c0      	nop			; (mov r8, r8)
    3de4:	000039ad 	.word	0x000039ad
    3de8:	000039c1 	.word	0x000039c1
    3dec:	20003ed4 	.word	0x20003ed4
    3df0:	00005d8f 	.word	0x00005d8f
    3df4:	20000012 	.word	0x20000012
    3df8:	20003f50 	.word	0x20003f50
    3dfc:	00003025 	.word	0x00003025
    3e00:	20003cc0 	.word	0x20003cc0
    3e04:	00003ca5 	.word	0x00003ca5
    3e08:	20003cc2 	.word	0x20003cc2
    3e0c:	20000014 	.word	0x20000014
    3e10:	20003cd8 	.word	0x20003cd8
    3e14:	20000018 	.word	0x20000018
    3e18:	20003cdc 	.word	0x20003cdc
    3e1c:	40002800 	.word	0x40002800
    3e20:	20003ccc 	.word	0x20003ccc
    3e24:	20000011 	.word	0x20000011
    3e28:	000066e4 	.word	0x000066e4
    3e2c:	000038b5 	.word	0x000038b5
    3e30:	00001b05 	.word	0x00001b05

00003e34 <save_configuration_param>:
	}
}


void save_configuration_param(void)
{
    3e34:	b510      	push	{r4, lr}
		//sprintf(piezoboard_parameters.STX_EEPROM,"%s",STX_EEPROM_STR);
		//sprintf(piezoboard_parameters.ETX_EEPROM,"%s",ETX_EEPROM_STR);
		
		piezoboard_parameters.STX_EEPROM = STX_EEPROM_STR;
    3e36:	4a09      	ldr	r2, [pc, #36]	; (3e5c <save_configuration_param+0x28>)
    3e38:	2340      	movs	r3, #64	; 0x40
    3e3a:	7013      	strb	r3, [r2, #0]
		piezoboard_parameters.ETX_EEPROM = ETX_EEPROM_STR;
    3e3c:	3b1d      	subs	r3, #29
    3e3e:	71d3      	strb	r3, [r2, #7]
		
		piezoboard_parameters.analog_gain_preset = analog_gain;
    3e40:	4b07      	ldr	r3, [pc, #28]	; (3e60 <save_configuration_param+0x2c>)
    3e42:	781b      	ldrb	r3, [r3, #0]
    3e44:	7053      	strb	r3, [r2, #1]
		piezoboard_parameters.ncamp_preset = n_sample;
    3e46:	4b07      	ldr	r3, [pc, #28]	; (3e64 <save_configuration_param+0x30>)
    3e48:	881b      	ldrh	r3, [r3, #0]
    3e4a:	8093      	strh	r3, [r2, #4]
		piezoboard_parameters.threshold_preset = threshold_value;
    3e4c:	4b06      	ldr	r3, [pc, #24]	; (3e68 <save_configuration_param+0x34>)
    3e4e:	881b      	ldrh	r3, [r3, #0]
    3e50:	8053      	strh	r3, [r2, #2]
		
		////crc8(&piezoboard_parameters.CRC,piezoboard_parameters.analog_gain_preset);
		////crc8(&piezoboard_parameters.CRC,piezoboard_parameters.ncamp_preset);
		////crc8(&piezoboard_parameters.CRC,piezoboard_parameters.threshold_preset);
		
		at24cxx_write_continuous(0,sizeof(piezoboard_parameters),(uint8_t*)&piezoboard_parameters);
    3e52:	2108      	movs	r1, #8
    3e54:	2000      	movs	r0, #0
    3e56:	4b05      	ldr	r3, [pc, #20]	; (3e6c <save_configuration_param+0x38>)
    3e58:	4798      	blx	r3
}
    3e5a:	bd10      	pop	{r4, pc}
    3e5c:	20003f44 	.word	0x20003f44
    3e60:	20000011 	.word	0x20000011
    3e64:	20000012 	.word	0x20000012
    3e68:	20000014 	.word	0x20000014
    3e6c:	00003791 	.word	0x00003791

00003e70 <uart_task>:
	return (uint16_t)(tmp/(length_buffer-n_init_camp));
}


static void uart_task(void *params)
{
    3e70:	b5f0      	push	{r4, r5, r6, r7, lr}
    3e72:	4647      	mov	r7, r8
    3e74:	b480      	push	{r7}
    3e76:	b084      	sub	sp, #16

	
	//uint32_t packet_length = sizeof(packet);
	//char* temporary_char = &s[0];
	
	 memset(buffer_temp,0,sizeof(packet));
    3e78:	2208      	movs	r2, #8
    3e7a:	2100      	movs	r1, #0
    3e7c:	a801      	add	r0, sp, #4
    3e7e:	4b7b      	ldr	r3, [pc, #492]	; (406c <uart_task+0x1fc>)
    3e80:	4798      	blx	r3
	char current_char;
	char *current_char_ptr = &current_char;
	char r;
	packet *pkt_temp_ptr;
	uint8_t buffer_temp[sizeof(packet)];
	uint32_t buffer_temp_index = 0;
    3e82:	2400      	movs	r4, #0
	 memset(buffer_temp,0,sizeof(packet));
	
	for (;;) {

		// Any characters queued? Handle them!
		while (xQueueReceive(terminal_in_queue, current_char_ptr, 0)) 
    3e84:	4f7a      	ldr	r7, [pc, #488]	; (4070 <uart_task+0x200>)
    3e86:	4e7b      	ldr	r6, [pc, #492]	; (4074 <uart_task+0x204>)
			

			*current_char_ptr = '\0';
		}

		vTaskDelay(UART_TASK_DELAY);
    3e88:	4b7b      	ldr	r3, [pc, #492]	; (4078 <uart_task+0x208>)
    3e8a:	4698      	mov	r8, r3
    3e8c:	e0e1      	b.n	4052 <uart_task+0x1e2>

		// Any characters queued? Handle them!
		while (xQueueReceive(terminal_in_queue, current_char_ptr, 0)) 
		{
			
			r = *current_char_ptr;
    3e8e:	230f      	movs	r3, #15
    3e90:	446b      	add	r3, sp
    3e92:	781b      	ldrb	r3, [r3, #0]
			
			switch(r)
    3e94:	2b40      	cmp	r3, #64	; 0x40
    3e96:	d000      	beq.n	3e9a <uart_task+0x2a>
    3e98:	e0d2      	b.n	4040 <uart_task+0x1d0>
			{
				case '@':
				
					buffer_temp[buffer_temp_index] = r;
    3e9a:	ad01      	add	r5, sp, #4
    3e9c:	552b      	strb	r3, [r5, r4]
					
					buffer_temp_index++;
					
					pkt_temp_ptr = (packet*)&buffer_temp[0];
					pkt = *pkt_temp_ptr;
    3e9e:	2208      	movs	r2, #8
    3ea0:	0029      	movs	r1, r5
    3ea2:	4876      	ldr	r0, [pc, #472]	; (407c <uart_task+0x20c>)
    3ea4:	4b76      	ldr	r3, [pc, #472]	; (4080 <uart_task+0x210>)
    3ea6:	4798      	blx	r3
					
					
					if ((pkt_temp_ptr->STX == STX_STRING) & (pkt_temp_ptr->ETX == ETX_STRING))
    3ea8:	782b      	ldrb	r3, [r5, #0]
    3eaa:	2b23      	cmp	r3, #35	; 0x23
    3eac:	d000      	beq.n	3eb0 <uart_task+0x40>
    3eae:	e0c0      	b.n	4032 <uart_task+0x1c2>
    3eb0:	ab01      	add	r3, sp, #4
    3eb2:	79db      	ldrb	r3, [r3, #7]
    3eb4:	2b40      	cmp	r3, #64	; 0x40
    3eb6:	d000      	beq.n	3eba <uart_task+0x4a>
    3eb8:	e0bb      	b.n	4032 <uart_task+0x1c2>
					{
						switch (pkt_temp_ptr->cmd)
    3eba:	ab01      	add	r3, sp, #4
    3ebc:	785b      	ldrb	r3, [r3, #1]
    3ebe:	2b52      	cmp	r3, #82	; 0x52
    3ec0:	d002      	beq.n	3ec8 <uart_task+0x58>
    3ec2:	2b57      	cmp	r3, #87	; 0x57
    3ec4:	d063      	beq.n	3f8e <uart_task+0x11e>
    3ec6:	e0b4      	b.n	4032 <uart_task+0x1c2>
						{
							case CMD_READ:
							if(pkt_temp_ptr->sub_cmd == sb_cmd_array[ping])
    3ec8:	ab01      	add	r3, sp, #4
    3eca:	789b      	ldrb	r3, [r3, #2]
    3ecc:	4a6d      	ldr	r2, [pc, #436]	; (4084 <uart_task+0x214>)
    3ece:	7812      	ldrb	r2, [r2, #0]
    3ed0:	429a      	cmp	r2, r3
    3ed2:	d10d      	bne.n	3ef0 <uart_task+0x80>
							{
									pkt.sub_cmd = pkt_temp_ptr->sub_cmd;
    3ed4:	4969      	ldr	r1, [pc, #420]	; (407c <uart_task+0x20c>)
    3ed6:	708b      	strb	r3, [r1, #2]
									pkt.payload[0]=0xAA;
    3ed8:	23aa      	movs	r3, #170	; 0xaa
    3eda:	70cb      	strb	r3, [r1, #3]
									pkt.payload[1]=0xBB;
    3edc:	3311      	adds	r3, #17
    3ede:	710b      	strb	r3, [r1, #4]
									usart_write_buffer_wait(&usart_instance,(uint8_t *)&pkt,sizeof(packet));
    3ee0:	2208      	movs	r2, #8
    3ee2:	4869      	ldr	r0, [pc, #420]	; (4088 <uart_task+0x218>)
    3ee4:	4b69      	ldr	r3, [pc, #420]	; (408c <uart_task+0x21c>)
    3ee6:	4798      	blx	r3
									delay_ms(25);
    3ee8:	2019      	movs	r0, #25
    3eea:	4b69      	ldr	r3, [pc, #420]	; (4090 <uart_task+0x220>)
    3eec:	4798      	blx	r3
    3eee:	e0a0      	b.n	4032 <uart_task+0x1c2>
							}
							else if(pkt_temp_ptr->sub_cmd == sb_cmd_array[read_sensor])
    3ef0:	4a64      	ldr	r2, [pc, #400]	; (4084 <uart_task+0x214>)
    3ef2:	7852      	ldrb	r2, [r2, #1]
    3ef4:	429a      	cmp	r2, r3
    3ef6:	d113      	bne.n	3f20 <uart_task+0xb0>
							{
									pkt.sub_cmd = pkt_temp_ptr->sub_cmd;
    3ef8:	4960      	ldr	r1, [pc, #384]	; (407c <uart_task+0x20c>)
    3efa:	708b      	strb	r3, [r1, #2]
									//pkt.payload[0]=(uint8_t)result;
									//pkt.payload[1]=(uint8_t)(result>>8);
									pkt.payload[0]=(uint8_t)integrale;
    3efc:	4b65      	ldr	r3, [pc, #404]	; (4094 <uart_task+0x224>)
    3efe:	881b      	ldrh	r3, [r3, #0]
    3f00:	70cb      	strb	r3, [r1, #3]
									pkt.payload[1]=(uint8_t)(integrale>>8);									
    3f02:	0a1b      	lsrs	r3, r3, #8
    3f04:	710b      	strb	r3, [r1, #4]
									pkt.payload[2]=0x00;
    3f06:	2300      	movs	r3, #0
    3f08:	714b      	strb	r3, [r1, #5]
									pkt.payload[3]=(uint8_t)(alarm_detected);
    3f0a:	4b63      	ldr	r3, [pc, #396]	; (4098 <uart_task+0x228>)
    3f0c:	781b      	ldrb	r3, [r3, #0]
    3f0e:	718b      	strb	r3, [r1, #6]
									usart_write_buffer_wait(&usart_instance,(uint8_t *)&pkt,sizeof(packet));
    3f10:	2208      	movs	r2, #8
    3f12:	485d      	ldr	r0, [pc, #372]	; (4088 <uart_task+0x218>)
    3f14:	4b5d      	ldr	r3, [pc, #372]	; (408c <uart_task+0x21c>)
    3f16:	4798      	blx	r3
									delay_ms(25);
    3f18:	2019      	movs	r0, #25
    3f1a:	4b5d      	ldr	r3, [pc, #372]	; (4090 <uart_task+0x220>)
    3f1c:	4798      	blx	r3
    3f1e:	e088      	b.n	4032 <uart_task+0x1c2>
							}
							else if(pkt_temp_ptr->sub_cmd == sb_cmd_array[get_ncamp])
    3f20:	4a58      	ldr	r2, [pc, #352]	; (4084 <uart_task+0x214>)
    3f22:	7952      	ldrb	r2, [r2, #5]
    3f24:	429a      	cmp	r2, r3
    3f26:	d10e      	bne.n	3f46 <uart_task+0xd6>
							{
								pkt.sub_cmd = pkt_temp_ptr->sub_cmd;
    3f28:	4954      	ldr	r1, [pc, #336]	; (407c <uart_task+0x20c>)
    3f2a:	708b      	strb	r3, [r1, #2]
								//pkt.payload[0]=(uint8_t)result;
								//pkt.payload[1]=(uint8_t)(result>>8);
								pkt.payload[0]=(uint8_t)n_sample;
    3f2c:	4b5b      	ldr	r3, [pc, #364]	; (409c <uart_task+0x22c>)
    3f2e:	881b      	ldrh	r3, [r3, #0]
    3f30:	70cb      	strb	r3, [r1, #3]
								pkt.payload[1]=(uint8_t)(n_sample>>8);
    3f32:	0a1b      	lsrs	r3, r3, #8
    3f34:	710b      	strb	r3, [r1, #4]
								usart_write_buffer_wait(&usart_instance,(uint8_t *)&pkt,sizeof(packet));
    3f36:	2208      	movs	r2, #8
    3f38:	4853      	ldr	r0, [pc, #332]	; (4088 <uart_task+0x218>)
    3f3a:	4b54      	ldr	r3, [pc, #336]	; (408c <uart_task+0x21c>)
    3f3c:	4798      	blx	r3
								delay_ms(25);
    3f3e:	2019      	movs	r0, #25
    3f40:	4b53      	ldr	r3, [pc, #332]	; (4090 <uart_task+0x220>)
    3f42:	4798      	blx	r3
    3f44:	e075      	b.n	4032 <uart_task+0x1c2>
							}
							else if(pkt_temp_ptr->sub_cmd == sb_cmd_array[get_threshold])
    3f46:	4a4f      	ldr	r2, [pc, #316]	; (4084 <uart_task+0x214>)
    3f48:	7992      	ldrb	r2, [r2, #6]
    3f4a:	429a      	cmp	r2, r3
    3f4c:	d10e      	bne.n	3f6c <uart_task+0xfc>
							{
								pkt.sub_cmd = pkt_temp_ptr->sub_cmd;
    3f4e:	494b      	ldr	r1, [pc, #300]	; (407c <uart_task+0x20c>)
    3f50:	708b      	strb	r3, [r1, #2]
								//pkt.payload[0]=(uint8_t)result;
								//pkt.payload[1]=(uint8_t)(result>>8);
								pkt.payload[0]=(uint8_t)threshold_value;
    3f52:	4b53      	ldr	r3, [pc, #332]	; (40a0 <uart_task+0x230>)
    3f54:	881b      	ldrh	r3, [r3, #0]
    3f56:	70cb      	strb	r3, [r1, #3]
								pkt.payload[1]=(uint8_t)(threshold_value>>8);
    3f58:	0a1b      	lsrs	r3, r3, #8
    3f5a:	710b      	strb	r3, [r1, #4]
								usart_write_buffer_wait(&usart_instance,(uint8_t *)&pkt,sizeof(packet));
    3f5c:	2208      	movs	r2, #8
    3f5e:	484a      	ldr	r0, [pc, #296]	; (4088 <uart_task+0x218>)
    3f60:	4b4a      	ldr	r3, [pc, #296]	; (408c <uart_task+0x21c>)
    3f62:	4798      	blx	r3
								delay_ms(25);
    3f64:	2019      	movs	r0, #25
    3f66:	4b4a      	ldr	r3, [pc, #296]	; (4090 <uart_task+0x220>)
    3f68:	4798      	blx	r3
    3f6a:	e062      	b.n	4032 <uart_task+0x1c2>
							}
							else if(pkt_temp_ptr->sub_cmd == sb_cmd_array[get_analog_gain])
    3f6c:	4a45      	ldr	r2, [pc, #276]	; (4084 <uart_task+0x214>)
    3f6e:	79d2      	ldrb	r2, [r2, #7]
    3f70:	429a      	cmp	r2, r3
    3f72:	d15e      	bne.n	4032 <uart_task+0x1c2>
							{
								pkt.sub_cmd = pkt_temp_ptr->sub_cmd;
    3f74:	4941      	ldr	r1, [pc, #260]	; (407c <uart_task+0x20c>)
    3f76:	708b      	strb	r3, [r1, #2]
								//pkt.payload[0]=(uint8_t)result;
								//pkt.payload[1]=(uint8_t)(result>>8);
								pkt.payload[0]=(uint8_t)analog_gain;
    3f78:	4b4a      	ldr	r3, [pc, #296]	; (40a4 <uart_task+0x234>)
    3f7a:	781b      	ldrb	r3, [r3, #0]
    3f7c:	70cb      	strb	r3, [r1, #3]
								usart_write_buffer_wait(&usart_instance,(uint8_t *)&pkt,sizeof(packet));
    3f7e:	2208      	movs	r2, #8
    3f80:	4841      	ldr	r0, [pc, #260]	; (4088 <uart_task+0x218>)
    3f82:	4b42      	ldr	r3, [pc, #264]	; (408c <uart_task+0x21c>)
    3f84:	4798      	blx	r3
								delay_ms(25);
    3f86:	2019      	movs	r0, #25
    3f88:	4b41      	ldr	r3, [pc, #260]	; (4090 <uart_task+0x220>)
    3f8a:	4798      	blx	r3
    3f8c:	e051      	b.n	4032 <uart_task+0x1c2>
// 								usart_write_buffer_wait(&usart_instance,(uint8_t *)&pkt,sizeof(packet));
// 								delay_ms(25);
// 							}
							break;
							case CMD_WRITE:
							if(pkt_temp_ptr->sub_cmd == sb_cmd_array[set_ncamp])
    3f8e:	ab01      	add	r3, sp, #4
    3f90:	789b      	ldrb	r3, [r3, #2]
    3f92:	4a3c      	ldr	r2, [pc, #240]	; (4084 <uart_task+0x214>)
    3f94:	7892      	ldrb	r2, [r2, #2]
    3f96:	429a      	cmp	r2, r3
    3f98:	d111      	bne.n	3fbe <uart_task+0x14e>
							{
								value_rx = (uint16_t)(pkt_temp_ptr->payload[1] << 8 | (pkt_temp_ptr->payload[0]));
    3f9a:	aa01      	add	r2, sp, #4
    3f9c:	7913      	ldrb	r3, [r2, #4]
    3f9e:	021b      	lsls	r3, r3, #8
    3fa0:	78d2      	ldrb	r2, [r2, #3]
    3fa2:	4313      	orrs	r3, r2
    3fa4:	4a40      	ldr	r2, [pc, #256]	; (40a8 <uart_task+0x238>)
    3fa6:	8013      	strh	r3, [r2, #0]
								n_sample = value_rx;
    3fa8:	4a3c      	ldr	r2, [pc, #240]	; (409c <uart_task+0x22c>)
    3faa:	8013      	strh	r3, [r2, #0]
								usart_write_buffer_wait(&usart_instance,(uint8_t *)&pkt,sizeof(packet));
    3fac:	2208      	movs	r2, #8
    3fae:	4933      	ldr	r1, [pc, #204]	; (407c <uart_task+0x20c>)
    3fb0:	4835      	ldr	r0, [pc, #212]	; (4088 <uart_task+0x218>)
    3fb2:	4b36      	ldr	r3, [pc, #216]	; (408c <uart_task+0x21c>)
    3fb4:	4798      	blx	r3
								delay_ms(25);
    3fb6:	2019      	movs	r0, #25
    3fb8:	4b35      	ldr	r3, [pc, #212]	; (4090 <uart_task+0x220>)
    3fba:	4798      	blx	r3
    3fbc:	e039      	b.n	4032 <uart_task+0x1c2>
							}
							else if(pkt_temp_ptr->sub_cmd == sb_cmd_array[set_threshold])
    3fbe:	4a31      	ldr	r2, [pc, #196]	; (4084 <uart_task+0x214>)
    3fc0:	78d2      	ldrb	r2, [r2, #3]
    3fc2:	429a      	cmp	r2, r3
    3fc4:	d10f      	bne.n	3fe6 <uart_task+0x176>
							{
								threshold_value = pkt_temp_ptr->payload[1] << 8 | (pkt_temp_ptr->payload[0]);
    3fc6:	aa01      	add	r2, sp, #4
    3fc8:	7913      	ldrb	r3, [r2, #4]
    3fca:	021b      	lsls	r3, r3, #8
    3fcc:	78d2      	ldrb	r2, [r2, #3]
    3fce:	4313      	orrs	r3, r2
    3fd0:	4a33      	ldr	r2, [pc, #204]	; (40a0 <uart_task+0x230>)
    3fd2:	8013      	strh	r3, [r2, #0]
								usart_write_buffer_wait(&usart_instance,(uint8_t *)&pkt,sizeof(packet));
    3fd4:	2208      	movs	r2, #8
    3fd6:	4929      	ldr	r1, [pc, #164]	; (407c <uart_task+0x20c>)
    3fd8:	482b      	ldr	r0, [pc, #172]	; (4088 <uart_task+0x218>)
    3fda:	4b2c      	ldr	r3, [pc, #176]	; (408c <uart_task+0x21c>)
    3fdc:	4798      	blx	r3
								delay_ms(25);
    3fde:	2019      	movs	r0, #25
    3fe0:	4b2b      	ldr	r3, [pc, #172]	; (4090 <uart_task+0x220>)
    3fe2:	4798      	blx	r3
    3fe4:	e025      	b.n	4032 <uart_task+0x1c2>
							}
							else if(pkt_temp_ptr->sub_cmd == sb_cmd_array[set_analog_gain])
    3fe6:	4a27      	ldr	r2, [pc, #156]	; (4084 <uart_task+0x214>)
    3fe8:	7912      	ldrb	r2, [r2, #4]
    3fea:	429a      	cmp	r2, r3
    3fec:	d113      	bne.n	4016 <uart_task+0x1a6>
							{
								uint8_t temp = pkt_temp_ptr->payload[0];
    3fee:	ab01      	add	r3, sp, #4
    3ff0:	78db      	ldrb	r3, [r3, #3]
								if(analog_gain != temp)
    3ff2:	4a2c      	ldr	r2, [pc, #176]	; (40a4 <uart_task+0x234>)
    3ff4:	7812      	ldrb	r2, [r2, #0]
    3ff6:	429a      	cmp	r2, r3
    3ff8:	d004      	beq.n	4004 <uart_task+0x194>
								{
									analog_gain = temp;
    3ffa:	4a2a      	ldr	r2, [pc, #168]	; (40a4 <uart_task+0x234>)
    3ffc:	7013      	strb	r3, [r2, #0]
									change_gain = true;
    3ffe:	2201      	movs	r2, #1
    4000:	4b2a      	ldr	r3, [pc, #168]	; (40ac <uart_task+0x23c>)
    4002:	701a      	strb	r2, [r3, #0]
								}
								usart_write_buffer_wait(&usart_instance,(uint8_t *)&pkt,sizeof(packet));
    4004:	2208      	movs	r2, #8
    4006:	491d      	ldr	r1, [pc, #116]	; (407c <uart_task+0x20c>)
    4008:	481f      	ldr	r0, [pc, #124]	; (4088 <uart_task+0x218>)
    400a:	4b20      	ldr	r3, [pc, #128]	; (408c <uart_task+0x21c>)
    400c:	4798      	blx	r3
								delay_ms(25);
    400e:	2019      	movs	r0, #25
    4010:	4b1f      	ldr	r3, [pc, #124]	; (4090 <uart_task+0x220>)
    4012:	4798      	blx	r3
    4014:	e00d      	b.n	4032 <uart_task+0x1c2>
							}
							else if (pkt_temp_ptr->sub_cmd == sb_cmd_array[save_param])
    4016:	4a1b      	ldr	r2, [pc, #108]	; (4084 <uart_task+0x214>)
    4018:	7a12      	ldrb	r2, [r2, #8]
    401a:	429a      	cmp	r2, r3
    401c:	d109      	bne.n	4032 <uart_task+0x1c2>
							{
								save_configuration_param();
    401e:	4b24      	ldr	r3, [pc, #144]	; (40b0 <uart_task+0x240>)
    4020:	4798      	blx	r3
								usart_write_buffer_wait(&usart_instance,(uint8_t *)&pkt,sizeof(packet));
    4022:	2208      	movs	r2, #8
    4024:	4915      	ldr	r1, [pc, #84]	; (407c <uart_task+0x20c>)
    4026:	4818      	ldr	r0, [pc, #96]	; (4088 <uart_task+0x218>)
    4028:	4b18      	ldr	r3, [pc, #96]	; (408c <uart_task+0x21c>)
    402a:	4798      	blx	r3
								delay_ms(25);
    402c:	2019      	movs	r0, #25
    402e:	4b18      	ldr	r3, [pc, #96]	; (4090 <uart_task+0x220>)
    4030:	4798      	blx	r3
						
							break;
						}
					}
					
					memset(buffer_temp,0,sizeof(packet));
    4032:	2208      	movs	r2, #8
    4034:	2100      	movs	r1, #0
    4036:	a801      	add	r0, sp, #4
    4038:	4b0c      	ldr	r3, [pc, #48]	; (406c <uart_task+0x1fc>)
    403a:	4798      	blx	r3
					buffer_temp_index = 0;
    403c:	2400      	movs	r4, #0
						
				break;
    403e:	e004      	b.n	404a <uart_task+0x1da>
				default:
					if(buffer_temp_index < sizeof(buffer_temp))
    4040:	2c07      	cmp	r4, #7
    4042:	d802      	bhi.n	404a <uart_task+0x1da>
					{
						buffer_temp[buffer_temp_index] = r;
    4044:	aa01      	add	r2, sp, #4
    4046:	5513      	strb	r3, [r2, r4]
						buffer_temp_index++;
    4048:	3401      	adds	r4, #1
					}
				break;
			}
			

			*current_char_ptr = '\0';
    404a:	2200      	movs	r2, #0
    404c:	230f      	movs	r3, #15
    404e:	446b      	add	r3, sp
    4050:	701a      	strb	r2, [r3, #0]
	 memset(buffer_temp,0,sizeof(packet));
	
	for (;;) {

		// Any characters queued? Handle them!
		while (xQueueReceive(terminal_in_queue, current_char_ptr, 0)) 
    4052:	2300      	movs	r3, #0
    4054:	2200      	movs	r2, #0
    4056:	210f      	movs	r1, #15
    4058:	4469      	add	r1, sp
    405a:	6838      	ldr	r0, [r7, #0]
    405c:	47b0      	blx	r6
    405e:	2800      	cmp	r0, #0
    4060:	d000      	beq.n	4064 <uart_task+0x1f4>
    4062:	e714      	b.n	3e8e <uart_task+0x1e>
			

			*current_char_ptr = '\0';
		}

		vTaskDelay(UART_TASK_DELAY);
    4064:	300a      	adds	r0, #10
    4066:	47c0      	blx	r8
	}
    4068:	e7f3      	b.n	4052 <uart_task+0x1e2>
    406a:	46c0      	nop			; (mov r8, r8)
    406c:	00005d8f 	.word	0x00005d8f
    4070:	20003cd4 	.word	0x20003cd4
    4074:	00001411 	.word	0x00001411
    4078:	00001b05 	.word	0x00001b05
    407c:	20003e10 	.word	0x20003e10
    4080:	00005d7d 	.word	0x00005d7d
    4084:	2000001c 	.word	0x2000001c
    4088:	20003ddc 	.word	0x20003ddc
    408c:	000026f9 	.word	0x000026f9
    4090:	00002a49 	.word	0x00002a49
    4094:	20003cc2 	.word	0x20003cc2
    4098:	20003cdc 	.word	0x20003cdc
    409c:	20000012 	.word	0x20000012
    40a0:	20000014 	.word	0x20000014
    40a4:	20000011 	.word	0x20000011
    40a8:	20003cc4 	.word	0x20003cc4
    40ac:	20003ccc 	.word	0x20003ccc
    40b0:	00003e35 	.word	0x00003e35

000040b4 <__aeabi_uidiv>:
    40b4:	2200      	movs	r2, #0
    40b6:	0843      	lsrs	r3, r0, #1
    40b8:	428b      	cmp	r3, r1
    40ba:	d374      	bcc.n	41a6 <__aeabi_uidiv+0xf2>
    40bc:	0903      	lsrs	r3, r0, #4
    40be:	428b      	cmp	r3, r1
    40c0:	d35f      	bcc.n	4182 <__aeabi_uidiv+0xce>
    40c2:	0a03      	lsrs	r3, r0, #8
    40c4:	428b      	cmp	r3, r1
    40c6:	d344      	bcc.n	4152 <__aeabi_uidiv+0x9e>
    40c8:	0b03      	lsrs	r3, r0, #12
    40ca:	428b      	cmp	r3, r1
    40cc:	d328      	bcc.n	4120 <__aeabi_uidiv+0x6c>
    40ce:	0c03      	lsrs	r3, r0, #16
    40d0:	428b      	cmp	r3, r1
    40d2:	d30d      	bcc.n	40f0 <__aeabi_uidiv+0x3c>
    40d4:	22ff      	movs	r2, #255	; 0xff
    40d6:	0209      	lsls	r1, r1, #8
    40d8:	ba12      	rev	r2, r2
    40da:	0c03      	lsrs	r3, r0, #16
    40dc:	428b      	cmp	r3, r1
    40de:	d302      	bcc.n	40e6 <__aeabi_uidiv+0x32>
    40e0:	1212      	asrs	r2, r2, #8
    40e2:	0209      	lsls	r1, r1, #8
    40e4:	d065      	beq.n	41b2 <__aeabi_uidiv+0xfe>
    40e6:	0b03      	lsrs	r3, r0, #12
    40e8:	428b      	cmp	r3, r1
    40ea:	d319      	bcc.n	4120 <__aeabi_uidiv+0x6c>
    40ec:	e000      	b.n	40f0 <__aeabi_uidiv+0x3c>
    40ee:	0a09      	lsrs	r1, r1, #8
    40f0:	0bc3      	lsrs	r3, r0, #15
    40f2:	428b      	cmp	r3, r1
    40f4:	d301      	bcc.n	40fa <__aeabi_uidiv+0x46>
    40f6:	03cb      	lsls	r3, r1, #15
    40f8:	1ac0      	subs	r0, r0, r3
    40fa:	4152      	adcs	r2, r2
    40fc:	0b83      	lsrs	r3, r0, #14
    40fe:	428b      	cmp	r3, r1
    4100:	d301      	bcc.n	4106 <__aeabi_uidiv+0x52>
    4102:	038b      	lsls	r3, r1, #14
    4104:	1ac0      	subs	r0, r0, r3
    4106:	4152      	adcs	r2, r2
    4108:	0b43      	lsrs	r3, r0, #13
    410a:	428b      	cmp	r3, r1
    410c:	d301      	bcc.n	4112 <__aeabi_uidiv+0x5e>
    410e:	034b      	lsls	r3, r1, #13
    4110:	1ac0      	subs	r0, r0, r3
    4112:	4152      	adcs	r2, r2
    4114:	0b03      	lsrs	r3, r0, #12
    4116:	428b      	cmp	r3, r1
    4118:	d301      	bcc.n	411e <__aeabi_uidiv+0x6a>
    411a:	030b      	lsls	r3, r1, #12
    411c:	1ac0      	subs	r0, r0, r3
    411e:	4152      	adcs	r2, r2
    4120:	0ac3      	lsrs	r3, r0, #11
    4122:	428b      	cmp	r3, r1
    4124:	d301      	bcc.n	412a <__aeabi_uidiv+0x76>
    4126:	02cb      	lsls	r3, r1, #11
    4128:	1ac0      	subs	r0, r0, r3
    412a:	4152      	adcs	r2, r2
    412c:	0a83      	lsrs	r3, r0, #10
    412e:	428b      	cmp	r3, r1
    4130:	d301      	bcc.n	4136 <__aeabi_uidiv+0x82>
    4132:	028b      	lsls	r3, r1, #10
    4134:	1ac0      	subs	r0, r0, r3
    4136:	4152      	adcs	r2, r2
    4138:	0a43      	lsrs	r3, r0, #9
    413a:	428b      	cmp	r3, r1
    413c:	d301      	bcc.n	4142 <__aeabi_uidiv+0x8e>
    413e:	024b      	lsls	r3, r1, #9
    4140:	1ac0      	subs	r0, r0, r3
    4142:	4152      	adcs	r2, r2
    4144:	0a03      	lsrs	r3, r0, #8
    4146:	428b      	cmp	r3, r1
    4148:	d301      	bcc.n	414e <__aeabi_uidiv+0x9a>
    414a:	020b      	lsls	r3, r1, #8
    414c:	1ac0      	subs	r0, r0, r3
    414e:	4152      	adcs	r2, r2
    4150:	d2cd      	bcs.n	40ee <__aeabi_uidiv+0x3a>
    4152:	09c3      	lsrs	r3, r0, #7
    4154:	428b      	cmp	r3, r1
    4156:	d301      	bcc.n	415c <__aeabi_uidiv+0xa8>
    4158:	01cb      	lsls	r3, r1, #7
    415a:	1ac0      	subs	r0, r0, r3
    415c:	4152      	adcs	r2, r2
    415e:	0983      	lsrs	r3, r0, #6
    4160:	428b      	cmp	r3, r1
    4162:	d301      	bcc.n	4168 <__aeabi_uidiv+0xb4>
    4164:	018b      	lsls	r3, r1, #6
    4166:	1ac0      	subs	r0, r0, r3
    4168:	4152      	adcs	r2, r2
    416a:	0943      	lsrs	r3, r0, #5
    416c:	428b      	cmp	r3, r1
    416e:	d301      	bcc.n	4174 <__aeabi_uidiv+0xc0>
    4170:	014b      	lsls	r3, r1, #5
    4172:	1ac0      	subs	r0, r0, r3
    4174:	4152      	adcs	r2, r2
    4176:	0903      	lsrs	r3, r0, #4
    4178:	428b      	cmp	r3, r1
    417a:	d301      	bcc.n	4180 <__aeabi_uidiv+0xcc>
    417c:	010b      	lsls	r3, r1, #4
    417e:	1ac0      	subs	r0, r0, r3
    4180:	4152      	adcs	r2, r2
    4182:	08c3      	lsrs	r3, r0, #3
    4184:	428b      	cmp	r3, r1
    4186:	d301      	bcc.n	418c <__aeabi_uidiv+0xd8>
    4188:	00cb      	lsls	r3, r1, #3
    418a:	1ac0      	subs	r0, r0, r3
    418c:	4152      	adcs	r2, r2
    418e:	0883      	lsrs	r3, r0, #2
    4190:	428b      	cmp	r3, r1
    4192:	d301      	bcc.n	4198 <__aeabi_uidiv+0xe4>
    4194:	008b      	lsls	r3, r1, #2
    4196:	1ac0      	subs	r0, r0, r3
    4198:	4152      	adcs	r2, r2
    419a:	0843      	lsrs	r3, r0, #1
    419c:	428b      	cmp	r3, r1
    419e:	d301      	bcc.n	41a4 <__aeabi_uidiv+0xf0>
    41a0:	004b      	lsls	r3, r1, #1
    41a2:	1ac0      	subs	r0, r0, r3
    41a4:	4152      	adcs	r2, r2
    41a6:	1a41      	subs	r1, r0, r1
    41a8:	d200      	bcs.n	41ac <__aeabi_uidiv+0xf8>
    41aa:	4601      	mov	r1, r0
    41ac:	4152      	adcs	r2, r2
    41ae:	4610      	mov	r0, r2
    41b0:	4770      	bx	lr
    41b2:	e7ff      	b.n	41b4 <__aeabi_uidiv+0x100>
    41b4:	b501      	push	{r0, lr}
    41b6:	2000      	movs	r0, #0
    41b8:	f000 f8f0 	bl	439c <__aeabi_idiv0>
    41bc:	bd02      	pop	{r1, pc}
    41be:	46c0      	nop			; (mov r8, r8)

000041c0 <__aeabi_uidivmod>:
    41c0:	2900      	cmp	r1, #0
    41c2:	d0f7      	beq.n	41b4 <__aeabi_uidiv+0x100>
    41c4:	e776      	b.n	40b4 <__aeabi_uidiv>
    41c6:	4770      	bx	lr

000041c8 <__aeabi_idiv>:
    41c8:	4603      	mov	r3, r0
    41ca:	430b      	orrs	r3, r1
    41cc:	d47f      	bmi.n	42ce <__aeabi_idiv+0x106>
    41ce:	2200      	movs	r2, #0
    41d0:	0843      	lsrs	r3, r0, #1
    41d2:	428b      	cmp	r3, r1
    41d4:	d374      	bcc.n	42c0 <__aeabi_idiv+0xf8>
    41d6:	0903      	lsrs	r3, r0, #4
    41d8:	428b      	cmp	r3, r1
    41da:	d35f      	bcc.n	429c <__aeabi_idiv+0xd4>
    41dc:	0a03      	lsrs	r3, r0, #8
    41de:	428b      	cmp	r3, r1
    41e0:	d344      	bcc.n	426c <__aeabi_idiv+0xa4>
    41e2:	0b03      	lsrs	r3, r0, #12
    41e4:	428b      	cmp	r3, r1
    41e6:	d328      	bcc.n	423a <__aeabi_idiv+0x72>
    41e8:	0c03      	lsrs	r3, r0, #16
    41ea:	428b      	cmp	r3, r1
    41ec:	d30d      	bcc.n	420a <__aeabi_idiv+0x42>
    41ee:	22ff      	movs	r2, #255	; 0xff
    41f0:	0209      	lsls	r1, r1, #8
    41f2:	ba12      	rev	r2, r2
    41f4:	0c03      	lsrs	r3, r0, #16
    41f6:	428b      	cmp	r3, r1
    41f8:	d302      	bcc.n	4200 <__aeabi_idiv+0x38>
    41fa:	1212      	asrs	r2, r2, #8
    41fc:	0209      	lsls	r1, r1, #8
    41fe:	d065      	beq.n	42cc <__aeabi_idiv+0x104>
    4200:	0b03      	lsrs	r3, r0, #12
    4202:	428b      	cmp	r3, r1
    4204:	d319      	bcc.n	423a <__aeabi_idiv+0x72>
    4206:	e000      	b.n	420a <__aeabi_idiv+0x42>
    4208:	0a09      	lsrs	r1, r1, #8
    420a:	0bc3      	lsrs	r3, r0, #15
    420c:	428b      	cmp	r3, r1
    420e:	d301      	bcc.n	4214 <__aeabi_idiv+0x4c>
    4210:	03cb      	lsls	r3, r1, #15
    4212:	1ac0      	subs	r0, r0, r3
    4214:	4152      	adcs	r2, r2
    4216:	0b83      	lsrs	r3, r0, #14
    4218:	428b      	cmp	r3, r1
    421a:	d301      	bcc.n	4220 <__aeabi_idiv+0x58>
    421c:	038b      	lsls	r3, r1, #14
    421e:	1ac0      	subs	r0, r0, r3
    4220:	4152      	adcs	r2, r2
    4222:	0b43      	lsrs	r3, r0, #13
    4224:	428b      	cmp	r3, r1
    4226:	d301      	bcc.n	422c <__aeabi_idiv+0x64>
    4228:	034b      	lsls	r3, r1, #13
    422a:	1ac0      	subs	r0, r0, r3
    422c:	4152      	adcs	r2, r2
    422e:	0b03      	lsrs	r3, r0, #12
    4230:	428b      	cmp	r3, r1
    4232:	d301      	bcc.n	4238 <__aeabi_idiv+0x70>
    4234:	030b      	lsls	r3, r1, #12
    4236:	1ac0      	subs	r0, r0, r3
    4238:	4152      	adcs	r2, r2
    423a:	0ac3      	lsrs	r3, r0, #11
    423c:	428b      	cmp	r3, r1
    423e:	d301      	bcc.n	4244 <__aeabi_idiv+0x7c>
    4240:	02cb      	lsls	r3, r1, #11
    4242:	1ac0      	subs	r0, r0, r3
    4244:	4152      	adcs	r2, r2
    4246:	0a83      	lsrs	r3, r0, #10
    4248:	428b      	cmp	r3, r1
    424a:	d301      	bcc.n	4250 <__aeabi_idiv+0x88>
    424c:	028b      	lsls	r3, r1, #10
    424e:	1ac0      	subs	r0, r0, r3
    4250:	4152      	adcs	r2, r2
    4252:	0a43      	lsrs	r3, r0, #9
    4254:	428b      	cmp	r3, r1
    4256:	d301      	bcc.n	425c <__aeabi_idiv+0x94>
    4258:	024b      	lsls	r3, r1, #9
    425a:	1ac0      	subs	r0, r0, r3
    425c:	4152      	adcs	r2, r2
    425e:	0a03      	lsrs	r3, r0, #8
    4260:	428b      	cmp	r3, r1
    4262:	d301      	bcc.n	4268 <__aeabi_idiv+0xa0>
    4264:	020b      	lsls	r3, r1, #8
    4266:	1ac0      	subs	r0, r0, r3
    4268:	4152      	adcs	r2, r2
    426a:	d2cd      	bcs.n	4208 <__aeabi_idiv+0x40>
    426c:	09c3      	lsrs	r3, r0, #7
    426e:	428b      	cmp	r3, r1
    4270:	d301      	bcc.n	4276 <__aeabi_idiv+0xae>
    4272:	01cb      	lsls	r3, r1, #7
    4274:	1ac0      	subs	r0, r0, r3
    4276:	4152      	adcs	r2, r2
    4278:	0983      	lsrs	r3, r0, #6
    427a:	428b      	cmp	r3, r1
    427c:	d301      	bcc.n	4282 <__aeabi_idiv+0xba>
    427e:	018b      	lsls	r3, r1, #6
    4280:	1ac0      	subs	r0, r0, r3
    4282:	4152      	adcs	r2, r2
    4284:	0943      	lsrs	r3, r0, #5
    4286:	428b      	cmp	r3, r1
    4288:	d301      	bcc.n	428e <__aeabi_idiv+0xc6>
    428a:	014b      	lsls	r3, r1, #5
    428c:	1ac0      	subs	r0, r0, r3
    428e:	4152      	adcs	r2, r2
    4290:	0903      	lsrs	r3, r0, #4
    4292:	428b      	cmp	r3, r1
    4294:	d301      	bcc.n	429a <__aeabi_idiv+0xd2>
    4296:	010b      	lsls	r3, r1, #4
    4298:	1ac0      	subs	r0, r0, r3
    429a:	4152      	adcs	r2, r2
    429c:	08c3      	lsrs	r3, r0, #3
    429e:	428b      	cmp	r3, r1
    42a0:	d301      	bcc.n	42a6 <__aeabi_idiv+0xde>
    42a2:	00cb      	lsls	r3, r1, #3
    42a4:	1ac0      	subs	r0, r0, r3
    42a6:	4152      	adcs	r2, r2
    42a8:	0883      	lsrs	r3, r0, #2
    42aa:	428b      	cmp	r3, r1
    42ac:	d301      	bcc.n	42b2 <__aeabi_idiv+0xea>
    42ae:	008b      	lsls	r3, r1, #2
    42b0:	1ac0      	subs	r0, r0, r3
    42b2:	4152      	adcs	r2, r2
    42b4:	0843      	lsrs	r3, r0, #1
    42b6:	428b      	cmp	r3, r1
    42b8:	d301      	bcc.n	42be <__aeabi_idiv+0xf6>
    42ba:	004b      	lsls	r3, r1, #1
    42bc:	1ac0      	subs	r0, r0, r3
    42be:	4152      	adcs	r2, r2
    42c0:	1a41      	subs	r1, r0, r1
    42c2:	d200      	bcs.n	42c6 <__aeabi_idiv+0xfe>
    42c4:	4601      	mov	r1, r0
    42c6:	4152      	adcs	r2, r2
    42c8:	4610      	mov	r0, r2
    42ca:	4770      	bx	lr
    42cc:	e05d      	b.n	438a <__aeabi_idiv+0x1c2>
    42ce:	0fca      	lsrs	r2, r1, #31
    42d0:	d000      	beq.n	42d4 <__aeabi_idiv+0x10c>
    42d2:	4249      	negs	r1, r1
    42d4:	1003      	asrs	r3, r0, #32
    42d6:	d300      	bcc.n	42da <__aeabi_idiv+0x112>
    42d8:	4240      	negs	r0, r0
    42da:	4053      	eors	r3, r2
    42dc:	2200      	movs	r2, #0
    42de:	469c      	mov	ip, r3
    42e0:	0903      	lsrs	r3, r0, #4
    42e2:	428b      	cmp	r3, r1
    42e4:	d32d      	bcc.n	4342 <__aeabi_idiv+0x17a>
    42e6:	0a03      	lsrs	r3, r0, #8
    42e8:	428b      	cmp	r3, r1
    42ea:	d312      	bcc.n	4312 <__aeabi_idiv+0x14a>
    42ec:	22fc      	movs	r2, #252	; 0xfc
    42ee:	0189      	lsls	r1, r1, #6
    42f0:	ba12      	rev	r2, r2
    42f2:	0a03      	lsrs	r3, r0, #8
    42f4:	428b      	cmp	r3, r1
    42f6:	d30c      	bcc.n	4312 <__aeabi_idiv+0x14a>
    42f8:	0189      	lsls	r1, r1, #6
    42fa:	1192      	asrs	r2, r2, #6
    42fc:	428b      	cmp	r3, r1
    42fe:	d308      	bcc.n	4312 <__aeabi_idiv+0x14a>
    4300:	0189      	lsls	r1, r1, #6
    4302:	1192      	asrs	r2, r2, #6
    4304:	428b      	cmp	r3, r1
    4306:	d304      	bcc.n	4312 <__aeabi_idiv+0x14a>
    4308:	0189      	lsls	r1, r1, #6
    430a:	d03a      	beq.n	4382 <__aeabi_idiv+0x1ba>
    430c:	1192      	asrs	r2, r2, #6
    430e:	e000      	b.n	4312 <__aeabi_idiv+0x14a>
    4310:	0989      	lsrs	r1, r1, #6
    4312:	09c3      	lsrs	r3, r0, #7
    4314:	428b      	cmp	r3, r1
    4316:	d301      	bcc.n	431c <__aeabi_idiv+0x154>
    4318:	01cb      	lsls	r3, r1, #7
    431a:	1ac0      	subs	r0, r0, r3
    431c:	4152      	adcs	r2, r2
    431e:	0983      	lsrs	r3, r0, #6
    4320:	428b      	cmp	r3, r1
    4322:	d301      	bcc.n	4328 <__aeabi_idiv+0x160>
    4324:	018b      	lsls	r3, r1, #6
    4326:	1ac0      	subs	r0, r0, r3
    4328:	4152      	adcs	r2, r2
    432a:	0943      	lsrs	r3, r0, #5
    432c:	428b      	cmp	r3, r1
    432e:	d301      	bcc.n	4334 <__aeabi_idiv+0x16c>
    4330:	014b      	lsls	r3, r1, #5
    4332:	1ac0      	subs	r0, r0, r3
    4334:	4152      	adcs	r2, r2
    4336:	0903      	lsrs	r3, r0, #4
    4338:	428b      	cmp	r3, r1
    433a:	d301      	bcc.n	4340 <__aeabi_idiv+0x178>
    433c:	010b      	lsls	r3, r1, #4
    433e:	1ac0      	subs	r0, r0, r3
    4340:	4152      	adcs	r2, r2
    4342:	08c3      	lsrs	r3, r0, #3
    4344:	428b      	cmp	r3, r1
    4346:	d301      	bcc.n	434c <__aeabi_idiv+0x184>
    4348:	00cb      	lsls	r3, r1, #3
    434a:	1ac0      	subs	r0, r0, r3
    434c:	4152      	adcs	r2, r2
    434e:	0883      	lsrs	r3, r0, #2
    4350:	428b      	cmp	r3, r1
    4352:	d301      	bcc.n	4358 <__aeabi_idiv+0x190>
    4354:	008b      	lsls	r3, r1, #2
    4356:	1ac0      	subs	r0, r0, r3
    4358:	4152      	adcs	r2, r2
    435a:	d2d9      	bcs.n	4310 <__aeabi_idiv+0x148>
    435c:	0843      	lsrs	r3, r0, #1
    435e:	428b      	cmp	r3, r1
    4360:	d301      	bcc.n	4366 <__aeabi_idiv+0x19e>
    4362:	004b      	lsls	r3, r1, #1
    4364:	1ac0      	subs	r0, r0, r3
    4366:	4152      	adcs	r2, r2
    4368:	1a41      	subs	r1, r0, r1
    436a:	d200      	bcs.n	436e <__aeabi_idiv+0x1a6>
    436c:	4601      	mov	r1, r0
    436e:	4663      	mov	r3, ip
    4370:	4152      	adcs	r2, r2
    4372:	105b      	asrs	r3, r3, #1
    4374:	4610      	mov	r0, r2
    4376:	d301      	bcc.n	437c <__aeabi_idiv+0x1b4>
    4378:	4240      	negs	r0, r0
    437a:	2b00      	cmp	r3, #0
    437c:	d500      	bpl.n	4380 <__aeabi_idiv+0x1b8>
    437e:	4249      	negs	r1, r1
    4380:	4770      	bx	lr
    4382:	4663      	mov	r3, ip
    4384:	105b      	asrs	r3, r3, #1
    4386:	d300      	bcc.n	438a <__aeabi_idiv+0x1c2>
    4388:	4240      	negs	r0, r0
    438a:	b501      	push	{r0, lr}
    438c:	2000      	movs	r0, #0
    438e:	f000 f805 	bl	439c <__aeabi_idiv0>
    4392:	bd02      	pop	{r1, pc}

00004394 <__aeabi_idivmod>:
    4394:	2900      	cmp	r1, #0
    4396:	d0f8      	beq.n	438a <__aeabi_idiv+0x1c2>
    4398:	e716      	b.n	41c8 <__aeabi_idiv>
    439a:	4770      	bx	lr

0000439c <__aeabi_idiv0>:
    439c:	4770      	bx	lr
    439e:	46c0      	nop			; (mov r8, r8)

000043a0 <__aeabi_lmul>:
    43a0:	b5f0      	push	{r4, r5, r6, r7, lr}
    43a2:	464f      	mov	r7, r9
    43a4:	4646      	mov	r6, r8
    43a6:	b4c0      	push	{r6, r7}
    43a8:	0416      	lsls	r6, r2, #16
    43aa:	0c36      	lsrs	r6, r6, #16
    43ac:	4699      	mov	r9, r3
    43ae:	0033      	movs	r3, r6
    43b0:	0405      	lsls	r5, r0, #16
    43b2:	0c2c      	lsrs	r4, r5, #16
    43b4:	0c07      	lsrs	r7, r0, #16
    43b6:	0c15      	lsrs	r5, r2, #16
    43b8:	4363      	muls	r3, r4
    43ba:	437e      	muls	r6, r7
    43bc:	436f      	muls	r7, r5
    43be:	4365      	muls	r5, r4
    43c0:	0c1c      	lsrs	r4, r3, #16
    43c2:	19ad      	adds	r5, r5, r6
    43c4:	1964      	adds	r4, r4, r5
    43c6:	469c      	mov	ip, r3
    43c8:	42a6      	cmp	r6, r4
    43ca:	d903      	bls.n	43d4 <__aeabi_lmul+0x34>
    43cc:	2380      	movs	r3, #128	; 0x80
    43ce:	025b      	lsls	r3, r3, #9
    43d0:	4698      	mov	r8, r3
    43d2:	4447      	add	r7, r8
    43d4:	4663      	mov	r3, ip
    43d6:	0c25      	lsrs	r5, r4, #16
    43d8:	19ef      	adds	r7, r5, r7
    43da:	041d      	lsls	r5, r3, #16
    43dc:	464b      	mov	r3, r9
    43de:	434a      	muls	r2, r1
    43e0:	4343      	muls	r3, r0
    43e2:	0c2d      	lsrs	r5, r5, #16
    43e4:	0424      	lsls	r4, r4, #16
    43e6:	1964      	adds	r4, r4, r5
    43e8:	1899      	adds	r1, r3, r2
    43ea:	19c9      	adds	r1, r1, r7
    43ec:	0020      	movs	r0, r4
    43ee:	bc0c      	pop	{r2, r3}
    43f0:	4690      	mov	r8, r2
    43f2:	4699      	mov	r9, r3
    43f4:	bdf0      	pop	{r4, r5, r6, r7, pc}
    43f6:	46c0      	nop			; (mov r8, r8)

000043f8 <__aeabi_dadd>:
    43f8:	b5f8      	push	{r3, r4, r5, r6, r7, lr}
    43fa:	4656      	mov	r6, sl
    43fc:	465f      	mov	r7, fp
    43fe:	464d      	mov	r5, r9
    4400:	4644      	mov	r4, r8
    4402:	b4f0      	push	{r4, r5, r6, r7}
    4404:	000f      	movs	r7, r1
    4406:	0ffd      	lsrs	r5, r7, #31
    4408:	46aa      	mov	sl, r5
    440a:	0309      	lsls	r1, r1, #12
    440c:	007c      	lsls	r4, r7, #1
    440e:	002e      	movs	r6, r5
    4410:	005f      	lsls	r7, r3, #1
    4412:	0f45      	lsrs	r5, r0, #29
    4414:	0a49      	lsrs	r1, r1, #9
    4416:	0d7f      	lsrs	r7, r7, #21
    4418:	4329      	orrs	r1, r5
    441a:	00c5      	lsls	r5, r0, #3
    441c:	0318      	lsls	r0, r3, #12
    441e:	46bc      	mov	ip, r7
    4420:	0a40      	lsrs	r0, r0, #9
    4422:	0f57      	lsrs	r7, r2, #29
    4424:	0d64      	lsrs	r4, r4, #21
    4426:	0fdb      	lsrs	r3, r3, #31
    4428:	4338      	orrs	r0, r7
    442a:	00d2      	lsls	r2, r2, #3
    442c:	459a      	cmp	sl, r3
    442e:	d100      	bne.n	4432 <__aeabi_dadd+0x3a>
    4430:	e0aa      	b.n	4588 <__aeabi_dadd+0x190>
    4432:	4666      	mov	r6, ip
    4434:	1ba6      	subs	r6, r4, r6
    4436:	2e00      	cmp	r6, #0
    4438:	dc00      	bgt.n	443c <__aeabi_dadd+0x44>
    443a:	e0ff      	b.n	463c <__aeabi_dadd+0x244>
    443c:	4663      	mov	r3, ip
    443e:	2b00      	cmp	r3, #0
    4440:	d139      	bne.n	44b6 <__aeabi_dadd+0xbe>
    4442:	0003      	movs	r3, r0
    4444:	4313      	orrs	r3, r2
    4446:	d000      	beq.n	444a <__aeabi_dadd+0x52>
    4448:	e0d9      	b.n	45fe <__aeabi_dadd+0x206>
    444a:	076b      	lsls	r3, r5, #29
    444c:	d009      	beq.n	4462 <__aeabi_dadd+0x6a>
    444e:	230f      	movs	r3, #15
    4450:	402b      	ands	r3, r5
    4452:	2b04      	cmp	r3, #4
    4454:	d005      	beq.n	4462 <__aeabi_dadd+0x6a>
    4456:	1d2b      	adds	r3, r5, #4
    4458:	42ab      	cmp	r3, r5
    445a:	41ad      	sbcs	r5, r5
    445c:	426d      	negs	r5, r5
    445e:	1949      	adds	r1, r1, r5
    4460:	001d      	movs	r5, r3
    4462:	020b      	lsls	r3, r1, #8
    4464:	d400      	bmi.n	4468 <__aeabi_dadd+0x70>
    4466:	e082      	b.n	456e <__aeabi_dadd+0x176>
    4468:	4bca      	ldr	r3, [pc, #808]	; (4794 <__aeabi_dadd+0x39c>)
    446a:	3401      	adds	r4, #1
    446c:	429c      	cmp	r4, r3
    446e:	d100      	bne.n	4472 <__aeabi_dadd+0x7a>
    4470:	e0fe      	b.n	4670 <__aeabi_dadd+0x278>
    4472:	000a      	movs	r2, r1
    4474:	4656      	mov	r6, sl
    4476:	4bc8      	ldr	r3, [pc, #800]	; (4798 <__aeabi_dadd+0x3a0>)
    4478:	08ed      	lsrs	r5, r5, #3
    447a:	401a      	ands	r2, r3
    447c:	0750      	lsls	r0, r2, #29
    447e:	0564      	lsls	r4, r4, #21
    4480:	0252      	lsls	r2, r2, #9
    4482:	4305      	orrs	r5, r0
    4484:	0b12      	lsrs	r2, r2, #12
    4486:	0d64      	lsrs	r4, r4, #21
    4488:	2100      	movs	r1, #0
    448a:	0312      	lsls	r2, r2, #12
    448c:	0d0b      	lsrs	r3, r1, #20
    448e:	051b      	lsls	r3, r3, #20
    4490:	0564      	lsls	r4, r4, #21
    4492:	0b12      	lsrs	r2, r2, #12
    4494:	431a      	orrs	r2, r3
    4496:	0863      	lsrs	r3, r4, #1
    4498:	4cc0      	ldr	r4, [pc, #768]	; (479c <__aeabi_dadd+0x3a4>)
    449a:	07f6      	lsls	r6, r6, #31
    449c:	4014      	ands	r4, r2
    449e:	431c      	orrs	r4, r3
    44a0:	0064      	lsls	r4, r4, #1
    44a2:	0864      	lsrs	r4, r4, #1
    44a4:	4334      	orrs	r4, r6
    44a6:	0028      	movs	r0, r5
    44a8:	0021      	movs	r1, r4
    44aa:	bc3c      	pop	{r2, r3, r4, r5}
    44ac:	4690      	mov	r8, r2
    44ae:	4699      	mov	r9, r3
    44b0:	46a2      	mov	sl, r4
    44b2:	46ab      	mov	fp, r5
    44b4:	bdf8      	pop	{r3, r4, r5, r6, r7, pc}
    44b6:	4bb7      	ldr	r3, [pc, #732]	; (4794 <__aeabi_dadd+0x39c>)
    44b8:	429c      	cmp	r4, r3
    44ba:	d0c6      	beq.n	444a <__aeabi_dadd+0x52>
    44bc:	2380      	movs	r3, #128	; 0x80
    44be:	041b      	lsls	r3, r3, #16
    44c0:	4318      	orrs	r0, r3
    44c2:	2e38      	cmp	r6, #56	; 0x38
    44c4:	dd00      	ble.n	44c8 <__aeabi_dadd+0xd0>
    44c6:	e0eb      	b.n	46a0 <__aeabi_dadd+0x2a8>
    44c8:	2e1f      	cmp	r6, #31
    44ca:	dd00      	ble.n	44ce <__aeabi_dadd+0xd6>
    44cc:	e11e      	b.n	470c <__aeabi_dadd+0x314>
    44ce:	2320      	movs	r3, #32
    44d0:	1b9b      	subs	r3, r3, r6
    44d2:	469c      	mov	ip, r3
    44d4:	0003      	movs	r3, r0
    44d6:	4667      	mov	r7, ip
    44d8:	40bb      	lsls	r3, r7
    44da:	4698      	mov	r8, r3
    44dc:	0013      	movs	r3, r2
    44de:	4647      	mov	r7, r8
    44e0:	40f3      	lsrs	r3, r6
    44e2:	433b      	orrs	r3, r7
    44e4:	4667      	mov	r7, ip
    44e6:	40ba      	lsls	r2, r7
    44e8:	1e57      	subs	r7, r2, #1
    44ea:	41ba      	sbcs	r2, r7
    44ec:	4313      	orrs	r3, r2
    44ee:	0002      	movs	r2, r0
    44f0:	40f2      	lsrs	r2, r6
    44f2:	1aeb      	subs	r3, r5, r3
    44f4:	429d      	cmp	r5, r3
    44f6:	41b6      	sbcs	r6, r6
    44f8:	001d      	movs	r5, r3
    44fa:	1a8a      	subs	r2, r1, r2
    44fc:	4276      	negs	r6, r6
    44fe:	1b91      	subs	r1, r2, r6
    4500:	020b      	lsls	r3, r1, #8
    4502:	d531      	bpl.n	4568 <__aeabi_dadd+0x170>
    4504:	024a      	lsls	r2, r1, #9
    4506:	0a56      	lsrs	r6, r2, #9
    4508:	2e00      	cmp	r6, #0
    450a:	d100      	bne.n	450e <__aeabi_dadd+0x116>
    450c:	e0b4      	b.n	4678 <__aeabi_dadd+0x280>
    450e:	0030      	movs	r0, r6
    4510:	f001 fbf0 	bl	5cf4 <__clzsi2>
    4514:	0003      	movs	r3, r0
    4516:	3b08      	subs	r3, #8
    4518:	2b1f      	cmp	r3, #31
    451a:	dd00      	ble.n	451e <__aeabi_dadd+0x126>
    451c:	e0b5      	b.n	468a <__aeabi_dadd+0x292>
    451e:	2220      	movs	r2, #32
    4520:	0029      	movs	r1, r5
    4522:	1ad2      	subs	r2, r2, r3
    4524:	40d1      	lsrs	r1, r2
    4526:	409e      	lsls	r6, r3
    4528:	000a      	movs	r2, r1
    452a:	409d      	lsls	r5, r3
    452c:	4332      	orrs	r2, r6
    452e:	429c      	cmp	r4, r3
    4530:	dd00      	ble.n	4534 <__aeabi_dadd+0x13c>
    4532:	e0b1      	b.n	4698 <__aeabi_dadd+0x2a0>
    4534:	1b1c      	subs	r4, r3, r4
    4536:	1c63      	adds	r3, r4, #1
    4538:	2b1f      	cmp	r3, #31
    453a:	dd00      	ble.n	453e <__aeabi_dadd+0x146>
    453c:	e0d5      	b.n	46ea <__aeabi_dadd+0x2f2>
    453e:	2120      	movs	r1, #32
    4540:	0014      	movs	r4, r2
    4542:	0028      	movs	r0, r5
    4544:	1ac9      	subs	r1, r1, r3
    4546:	408c      	lsls	r4, r1
    4548:	40d8      	lsrs	r0, r3
    454a:	408d      	lsls	r5, r1
    454c:	4304      	orrs	r4, r0
    454e:	40da      	lsrs	r2, r3
    4550:	1e68      	subs	r0, r5, #1
    4552:	4185      	sbcs	r5, r0
    4554:	0011      	movs	r1, r2
    4556:	4325      	orrs	r5, r4
    4558:	2400      	movs	r4, #0
    455a:	e776      	b.n	444a <__aeabi_dadd+0x52>
    455c:	4641      	mov	r1, r8
    455e:	4331      	orrs	r1, r6
    4560:	d100      	bne.n	4564 <__aeabi_dadd+0x16c>
    4562:	e234      	b.n	49ce <__aeabi_dadd+0x5d6>
    4564:	0031      	movs	r1, r6
    4566:	4645      	mov	r5, r8
    4568:	076b      	lsls	r3, r5, #29
    456a:	d000      	beq.n	456e <__aeabi_dadd+0x176>
    456c:	e76f      	b.n	444e <__aeabi_dadd+0x56>
    456e:	4656      	mov	r6, sl
    4570:	0748      	lsls	r0, r1, #29
    4572:	08ed      	lsrs	r5, r5, #3
    4574:	08c9      	lsrs	r1, r1, #3
    4576:	4305      	orrs	r5, r0
    4578:	4b86      	ldr	r3, [pc, #536]	; (4794 <__aeabi_dadd+0x39c>)
    457a:	429c      	cmp	r4, r3
    457c:	d035      	beq.n	45ea <__aeabi_dadd+0x1f2>
    457e:	030a      	lsls	r2, r1, #12
    4580:	0564      	lsls	r4, r4, #21
    4582:	0b12      	lsrs	r2, r2, #12
    4584:	0d64      	lsrs	r4, r4, #21
    4586:	e77f      	b.n	4488 <__aeabi_dadd+0x90>
    4588:	4663      	mov	r3, ip
    458a:	1ae3      	subs	r3, r4, r3
    458c:	469b      	mov	fp, r3
    458e:	2b00      	cmp	r3, #0
    4590:	dc00      	bgt.n	4594 <__aeabi_dadd+0x19c>
    4592:	e08b      	b.n	46ac <__aeabi_dadd+0x2b4>
    4594:	4667      	mov	r7, ip
    4596:	2f00      	cmp	r7, #0
    4598:	d03c      	beq.n	4614 <__aeabi_dadd+0x21c>
    459a:	4f7e      	ldr	r7, [pc, #504]	; (4794 <__aeabi_dadd+0x39c>)
    459c:	42bc      	cmp	r4, r7
    459e:	d100      	bne.n	45a2 <__aeabi_dadd+0x1aa>
    45a0:	e753      	b.n	444a <__aeabi_dadd+0x52>
    45a2:	2780      	movs	r7, #128	; 0x80
    45a4:	043f      	lsls	r7, r7, #16
    45a6:	4338      	orrs	r0, r7
    45a8:	465b      	mov	r3, fp
    45aa:	2b38      	cmp	r3, #56	; 0x38
    45ac:	dc00      	bgt.n	45b0 <__aeabi_dadd+0x1b8>
    45ae:	e0f7      	b.n	47a0 <__aeabi_dadd+0x3a8>
    45b0:	4302      	orrs	r2, r0
    45b2:	1e50      	subs	r0, r2, #1
    45b4:	4182      	sbcs	r2, r0
    45b6:	2000      	movs	r0, #0
    45b8:	b2d2      	uxtb	r2, r2
    45ba:	1953      	adds	r3, r2, r5
    45bc:	1842      	adds	r2, r0, r1
    45be:	42ab      	cmp	r3, r5
    45c0:	4189      	sbcs	r1, r1
    45c2:	001d      	movs	r5, r3
    45c4:	4249      	negs	r1, r1
    45c6:	1889      	adds	r1, r1, r2
    45c8:	020b      	lsls	r3, r1, #8
    45ca:	d5cd      	bpl.n	4568 <__aeabi_dadd+0x170>
    45cc:	4b71      	ldr	r3, [pc, #452]	; (4794 <__aeabi_dadd+0x39c>)
    45ce:	3401      	adds	r4, #1
    45d0:	429c      	cmp	r4, r3
    45d2:	d100      	bne.n	45d6 <__aeabi_dadd+0x1de>
    45d4:	e13d      	b.n	4852 <__aeabi_dadd+0x45a>
    45d6:	2001      	movs	r0, #1
    45d8:	4a6f      	ldr	r2, [pc, #444]	; (4798 <__aeabi_dadd+0x3a0>)
    45da:	086b      	lsrs	r3, r5, #1
    45dc:	400a      	ands	r2, r1
    45de:	4028      	ands	r0, r5
    45e0:	4318      	orrs	r0, r3
    45e2:	07d5      	lsls	r5, r2, #31
    45e4:	4305      	orrs	r5, r0
    45e6:	0851      	lsrs	r1, r2, #1
    45e8:	e72f      	b.n	444a <__aeabi_dadd+0x52>
    45ea:	002b      	movs	r3, r5
    45ec:	430b      	orrs	r3, r1
    45ee:	d100      	bne.n	45f2 <__aeabi_dadd+0x1fa>
    45f0:	e1cb      	b.n	498a <__aeabi_dadd+0x592>
    45f2:	2380      	movs	r3, #128	; 0x80
    45f4:	031b      	lsls	r3, r3, #12
    45f6:	430b      	orrs	r3, r1
    45f8:	031a      	lsls	r2, r3, #12
    45fa:	0b12      	lsrs	r2, r2, #12
    45fc:	e744      	b.n	4488 <__aeabi_dadd+0x90>
    45fe:	3e01      	subs	r6, #1
    4600:	2e00      	cmp	r6, #0
    4602:	d16d      	bne.n	46e0 <__aeabi_dadd+0x2e8>
    4604:	1aae      	subs	r6, r5, r2
    4606:	42b5      	cmp	r5, r6
    4608:	419b      	sbcs	r3, r3
    460a:	1a09      	subs	r1, r1, r0
    460c:	425b      	negs	r3, r3
    460e:	1ac9      	subs	r1, r1, r3
    4610:	0035      	movs	r5, r6
    4612:	e775      	b.n	4500 <__aeabi_dadd+0x108>
    4614:	0007      	movs	r7, r0
    4616:	4317      	orrs	r7, r2
    4618:	d100      	bne.n	461c <__aeabi_dadd+0x224>
    461a:	e716      	b.n	444a <__aeabi_dadd+0x52>
    461c:	2301      	movs	r3, #1
    461e:	425b      	negs	r3, r3
    4620:	469c      	mov	ip, r3
    4622:	44e3      	add	fp, ip
    4624:	465b      	mov	r3, fp
    4626:	2b00      	cmp	r3, #0
    4628:	d000      	beq.n	462c <__aeabi_dadd+0x234>
    462a:	e0e0      	b.n	47ee <__aeabi_dadd+0x3f6>
    462c:	18aa      	adds	r2, r5, r2
    462e:	42aa      	cmp	r2, r5
    4630:	419b      	sbcs	r3, r3
    4632:	1809      	adds	r1, r1, r0
    4634:	425b      	negs	r3, r3
    4636:	1859      	adds	r1, r3, r1
    4638:	0015      	movs	r5, r2
    463a:	e7c5      	b.n	45c8 <__aeabi_dadd+0x1d0>
    463c:	2e00      	cmp	r6, #0
    463e:	d175      	bne.n	472c <__aeabi_dadd+0x334>
    4640:	1c66      	adds	r6, r4, #1
    4642:	0576      	lsls	r6, r6, #21
    4644:	0d76      	lsrs	r6, r6, #21
    4646:	2e01      	cmp	r6, #1
    4648:	dc00      	bgt.n	464c <__aeabi_dadd+0x254>
    464a:	e0f3      	b.n	4834 <__aeabi_dadd+0x43c>
    464c:	1aae      	subs	r6, r5, r2
    464e:	46b0      	mov	r8, r6
    4650:	4545      	cmp	r5, r8
    4652:	41bf      	sbcs	r7, r7
    4654:	1a0e      	subs	r6, r1, r0
    4656:	427f      	negs	r7, r7
    4658:	1bf6      	subs	r6, r6, r7
    465a:	0237      	lsls	r7, r6, #8
    465c:	d400      	bmi.n	4660 <__aeabi_dadd+0x268>
    465e:	e08f      	b.n	4780 <__aeabi_dadd+0x388>
    4660:	1b55      	subs	r5, r2, r5
    4662:	42aa      	cmp	r2, r5
    4664:	41b6      	sbcs	r6, r6
    4666:	1a41      	subs	r1, r0, r1
    4668:	4276      	negs	r6, r6
    466a:	1b8e      	subs	r6, r1, r6
    466c:	469a      	mov	sl, r3
    466e:	e74b      	b.n	4508 <__aeabi_dadd+0x110>
    4670:	4656      	mov	r6, sl
    4672:	2200      	movs	r2, #0
    4674:	2500      	movs	r5, #0
    4676:	e707      	b.n	4488 <__aeabi_dadd+0x90>
    4678:	0028      	movs	r0, r5
    467a:	f001 fb3b 	bl	5cf4 <__clzsi2>
    467e:	3020      	adds	r0, #32
    4680:	0003      	movs	r3, r0
    4682:	3b08      	subs	r3, #8
    4684:	2b1f      	cmp	r3, #31
    4686:	dc00      	bgt.n	468a <__aeabi_dadd+0x292>
    4688:	e749      	b.n	451e <__aeabi_dadd+0x126>
    468a:	002a      	movs	r2, r5
    468c:	3828      	subs	r0, #40	; 0x28
    468e:	4082      	lsls	r2, r0
    4690:	2500      	movs	r5, #0
    4692:	429c      	cmp	r4, r3
    4694:	dc00      	bgt.n	4698 <__aeabi_dadd+0x2a0>
    4696:	e74d      	b.n	4534 <__aeabi_dadd+0x13c>
    4698:	493f      	ldr	r1, [pc, #252]	; (4798 <__aeabi_dadd+0x3a0>)
    469a:	1ae4      	subs	r4, r4, r3
    469c:	4011      	ands	r1, r2
    469e:	e6d4      	b.n	444a <__aeabi_dadd+0x52>
    46a0:	4302      	orrs	r2, r0
    46a2:	1e50      	subs	r0, r2, #1
    46a4:	4182      	sbcs	r2, r0
    46a6:	b2d3      	uxtb	r3, r2
    46a8:	2200      	movs	r2, #0
    46aa:	e722      	b.n	44f2 <__aeabi_dadd+0xfa>
    46ac:	2b00      	cmp	r3, #0
    46ae:	d000      	beq.n	46b2 <__aeabi_dadd+0x2ba>
    46b0:	e0f3      	b.n	489a <__aeabi_dadd+0x4a2>
    46b2:	1c63      	adds	r3, r4, #1
    46b4:	469c      	mov	ip, r3
    46b6:	055b      	lsls	r3, r3, #21
    46b8:	0d5b      	lsrs	r3, r3, #21
    46ba:	2b01      	cmp	r3, #1
    46bc:	dc00      	bgt.n	46c0 <__aeabi_dadd+0x2c8>
    46be:	e09f      	b.n	4800 <__aeabi_dadd+0x408>
    46c0:	4b34      	ldr	r3, [pc, #208]	; (4794 <__aeabi_dadd+0x39c>)
    46c2:	459c      	cmp	ip, r3
    46c4:	d100      	bne.n	46c8 <__aeabi_dadd+0x2d0>
    46c6:	e0c3      	b.n	4850 <__aeabi_dadd+0x458>
    46c8:	18aa      	adds	r2, r5, r2
    46ca:	1809      	adds	r1, r1, r0
    46cc:	42aa      	cmp	r2, r5
    46ce:	4180      	sbcs	r0, r0
    46d0:	4240      	negs	r0, r0
    46d2:	1841      	adds	r1, r0, r1
    46d4:	07cd      	lsls	r5, r1, #31
    46d6:	0852      	lsrs	r2, r2, #1
    46d8:	4315      	orrs	r5, r2
    46da:	0849      	lsrs	r1, r1, #1
    46dc:	4664      	mov	r4, ip
    46de:	e6b4      	b.n	444a <__aeabi_dadd+0x52>
    46e0:	4b2c      	ldr	r3, [pc, #176]	; (4794 <__aeabi_dadd+0x39c>)
    46e2:	429c      	cmp	r4, r3
    46e4:	d000      	beq.n	46e8 <__aeabi_dadd+0x2f0>
    46e6:	e6ec      	b.n	44c2 <__aeabi_dadd+0xca>
    46e8:	e6af      	b.n	444a <__aeabi_dadd+0x52>
    46ea:	0011      	movs	r1, r2
    46ec:	3c1f      	subs	r4, #31
    46ee:	40e1      	lsrs	r1, r4
    46f0:	000c      	movs	r4, r1
    46f2:	2b20      	cmp	r3, #32
    46f4:	d100      	bne.n	46f8 <__aeabi_dadd+0x300>
    46f6:	e07f      	b.n	47f8 <__aeabi_dadd+0x400>
    46f8:	2140      	movs	r1, #64	; 0x40
    46fa:	1acb      	subs	r3, r1, r3
    46fc:	409a      	lsls	r2, r3
    46fe:	4315      	orrs	r5, r2
    4700:	1e6a      	subs	r2, r5, #1
    4702:	4195      	sbcs	r5, r2
    4704:	2100      	movs	r1, #0
    4706:	4325      	orrs	r5, r4
    4708:	2400      	movs	r4, #0
    470a:	e72d      	b.n	4568 <__aeabi_dadd+0x170>
    470c:	0033      	movs	r3, r6
    470e:	0007      	movs	r7, r0
    4710:	3b20      	subs	r3, #32
    4712:	40df      	lsrs	r7, r3
    4714:	003b      	movs	r3, r7
    4716:	2e20      	cmp	r6, #32
    4718:	d070      	beq.n	47fc <__aeabi_dadd+0x404>
    471a:	2740      	movs	r7, #64	; 0x40
    471c:	1bbe      	subs	r6, r7, r6
    471e:	40b0      	lsls	r0, r6
    4720:	4302      	orrs	r2, r0
    4722:	1e50      	subs	r0, r2, #1
    4724:	4182      	sbcs	r2, r0
    4726:	4313      	orrs	r3, r2
    4728:	2200      	movs	r2, #0
    472a:	e6e2      	b.n	44f2 <__aeabi_dadd+0xfa>
    472c:	2c00      	cmp	r4, #0
    472e:	d04f      	beq.n	47d0 <__aeabi_dadd+0x3d8>
    4730:	4c18      	ldr	r4, [pc, #96]	; (4794 <__aeabi_dadd+0x39c>)
    4732:	45a4      	cmp	ip, r4
    4734:	d100      	bne.n	4738 <__aeabi_dadd+0x340>
    4736:	e0ab      	b.n	4890 <__aeabi_dadd+0x498>
    4738:	2480      	movs	r4, #128	; 0x80
    473a:	0424      	lsls	r4, r4, #16
    473c:	4276      	negs	r6, r6
    473e:	4321      	orrs	r1, r4
    4740:	2e38      	cmp	r6, #56	; 0x38
    4742:	dd00      	ble.n	4746 <__aeabi_dadd+0x34e>
    4744:	e0df      	b.n	4906 <__aeabi_dadd+0x50e>
    4746:	2e1f      	cmp	r6, #31
    4748:	dd00      	ble.n	474c <__aeabi_dadd+0x354>
    474a:	e143      	b.n	49d4 <__aeabi_dadd+0x5dc>
    474c:	2720      	movs	r7, #32
    474e:	1bbc      	subs	r4, r7, r6
    4750:	46a1      	mov	r9, r4
    4752:	000c      	movs	r4, r1
    4754:	464f      	mov	r7, r9
    4756:	40bc      	lsls	r4, r7
    4758:	46a0      	mov	r8, r4
    475a:	002c      	movs	r4, r5
    475c:	4647      	mov	r7, r8
    475e:	40f4      	lsrs	r4, r6
    4760:	433c      	orrs	r4, r7
    4762:	464f      	mov	r7, r9
    4764:	40bd      	lsls	r5, r7
    4766:	1e6f      	subs	r7, r5, #1
    4768:	41bd      	sbcs	r5, r7
    476a:	40f1      	lsrs	r1, r6
    476c:	432c      	orrs	r4, r5
    476e:	1b15      	subs	r5, r2, r4
    4770:	42aa      	cmp	r2, r5
    4772:	4192      	sbcs	r2, r2
    4774:	1a41      	subs	r1, r0, r1
    4776:	4252      	negs	r2, r2
    4778:	1a89      	subs	r1, r1, r2
    477a:	4664      	mov	r4, ip
    477c:	469a      	mov	sl, r3
    477e:	e6bf      	b.n	4500 <__aeabi_dadd+0x108>
    4780:	4641      	mov	r1, r8
    4782:	4645      	mov	r5, r8
    4784:	4331      	orrs	r1, r6
    4786:	d000      	beq.n	478a <__aeabi_dadd+0x392>
    4788:	e6be      	b.n	4508 <__aeabi_dadd+0x110>
    478a:	2600      	movs	r6, #0
    478c:	2400      	movs	r4, #0
    478e:	2500      	movs	r5, #0
    4790:	e6f2      	b.n	4578 <__aeabi_dadd+0x180>
    4792:	46c0      	nop			; (mov r8, r8)
    4794:	000007ff 	.word	0x000007ff
    4798:	ff7fffff 	.word	0xff7fffff
    479c:	800fffff 	.word	0x800fffff
    47a0:	2b1f      	cmp	r3, #31
    47a2:	dc59      	bgt.n	4858 <__aeabi_dadd+0x460>
    47a4:	2720      	movs	r7, #32
    47a6:	1aff      	subs	r7, r7, r3
    47a8:	46bc      	mov	ip, r7
    47aa:	0007      	movs	r7, r0
    47ac:	4663      	mov	r3, ip
    47ae:	409f      	lsls	r7, r3
    47b0:	465b      	mov	r3, fp
    47b2:	46b9      	mov	r9, r7
    47b4:	0017      	movs	r7, r2
    47b6:	40df      	lsrs	r7, r3
    47b8:	46b8      	mov	r8, r7
    47ba:	464f      	mov	r7, r9
    47bc:	4643      	mov	r3, r8
    47be:	431f      	orrs	r7, r3
    47c0:	4663      	mov	r3, ip
    47c2:	409a      	lsls	r2, r3
    47c4:	1e53      	subs	r3, r2, #1
    47c6:	419a      	sbcs	r2, r3
    47c8:	465b      	mov	r3, fp
    47ca:	433a      	orrs	r2, r7
    47cc:	40d8      	lsrs	r0, r3
    47ce:	e6f4      	b.n	45ba <__aeabi_dadd+0x1c2>
    47d0:	000c      	movs	r4, r1
    47d2:	432c      	orrs	r4, r5
    47d4:	d05c      	beq.n	4890 <__aeabi_dadd+0x498>
    47d6:	43f6      	mvns	r6, r6
    47d8:	2e00      	cmp	r6, #0
    47da:	d155      	bne.n	4888 <__aeabi_dadd+0x490>
    47dc:	1b55      	subs	r5, r2, r5
    47de:	42aa      	cmp	r2, r5
    47e0:	41a4      	sbcs	r4, r4
    47e2:	1a41      	subs	r1, r0, r1
    47e4:	4264      	negs	r4, r4
    47e6:	1b09      	subs	r1, r1, r4
    47e8:	469a      	mov	sl, r3
    47ea:	4664      	mov	r4, ip
    47ec:	e688      	b.n	4500 <__aeabi_dadd+0x108>
    47ee:	4f96      	ldr	r7, [pc, #600]	; (4a48 <__aeabi_dadd+0x650>)
    47f0:	42bc      	cmp	r4, r7
    47f2:	d000      	beq.n	47f6 <__aeabi_dadd+0x3fe>
    47f4:	e6d8      	b.n	45a8 <__aeabi_dadd+0x1b0>
    47f6:	e628      	b.n	444a <__aeabi_dadd+0x52>
    47f8:	2200      	movs	r2, #0
    47fa:	e780      	b.n	46fe <__aeabi_dadd+0x306>
    47fc:	2000      	movs	r0, #0
    47fe:	e78f      	b.n	4720 <__aeabi_dadd+0x328>
    4800:	000b      	movs	r3, r1
    4802:	432b      	orrs	r3, r5
    4804:	2c00      	cmp	r4, #0
    4806:	d000      	beq.n	480a <__aeabi_dadd+0x412>
    4808:	e0c2      	b.n	4990 <__aeabi_dadd+0x598>
    480a:	2b00      	cmp	r3, #0
    480c:	d100      	bne.n	4810 <__aeabi_dadd+0x418>
    480e:	e101      	b.n	4a14 <__aeabi_dadd+0x61c>
    4810:	0003      	movs	r3, r0
    4812:	4313      	orrs	r3, r2
    4814:	d100      	bne.n	4818 <__aeabi_dadd+0x420>
    4816:	e618      	b.n	444a <__aeabi_dadd+0x52>
    4818:	18ab      	adds	r3, r5, r2
    481a:	42ab      	cmp	r3, r5
    481c:	41b6      	sbcs	r6, r6
    481e:	1809      	adds	r1, r1, r0
    4820:	4276      	negs	r6, r6
    4822:	1871      	adds	r1, r6, r1
    4824:	020a      	lsls	r2, r1, #8
    4826:	d400      	bmi.n	482a <__aeabi_dadd+0x432>
    4828:	e109      	b.n	4a3e <__aeabi_dadd+0x646>
    482a:	4a88      	ldr	r2, [pc, #544]	; (4a4c <__aeabi_dadd+0x654>)
    482c:	001d      	movs	r5, r3
    482e:	4011      	ands	r1, r2
    4830:	4664      	mov	r4, ip
    4832:	e60a      	b.n	444a <__aeabi_dadd+0x52>
    4834:	2c00      	cmp	r4, #0
    4836:	d15b      	bne.n	48f0 <__aeabi_dadd+0x4f8>
    4838:	000e      	movs	r6, r1
    483a:	432e      	orrs	r6, r5
    483c:	d000      	beq.n	4840 <__aeabi_dadd+0x448>
    483e:	e08a      	b.n	4956 <__aeabi_dadd+0x55e>
    4840:	0001      	movs	r1, r0
    4842:	4311      	orrs	r1, r2
    4844:	d100      	bne.n	4848 <__aeabi_dadd+0x450>
    4846:	e0c2      	b.n	49ce <__aeabi_dadd+0x5d6>
    4848:	0001      	movs	r1, r0
    484a:	0015      	movs	r5, r2
    484c:	469a      	mov	sl, r3
    484e:	e5fc      	b.n	444a <__aeabi_dadd+0x52>
    4850:	4664      	mov	r4, ip
    4852:	2100      	movs	r1, #0
    4854:	2500      	movs	r5, #0
    4856:	e68f      	b.n	4578 <__aeabi_dadd+0x180>
    4858:	2320      	movs	r3, #32
    485a:	425b      	negs	r3, r3
    485c:	469c      	mov	ip, r3
    485e:	44dc      	add	ip, fp
    4860:	4663      	mov	r3, ip
    4862:	0007      	movs	r7, r0
    4864:	40df      	lsrs	r7, r3
    4866:	465b      	mov	r3, fp
    4868:	46bc      	mov	ip, r7
    486a:	2b20      	cmp	r3, #32
    486c:	d100      	bne.n	4870 <__aeabi_dadd+0x478>
    486e:	e0ac      	b.n	49ca <__aeabi_dadd+0x5d2>
    4870:	2340      	movs	r3, #64	; 0x40
    4872:	465f      	mov	r7, fp
    4874:	1bdb      	subs	r3, r3, r7
    4876:	4098      	lsls	r0, r3
    4878:	4302      	orrs	r2, r0
    487a:	1e50      	subs	r0, r2, #1
    487c:	4182      	sbcs	r2, r0
    487e:	4663      	mov	r3, ip
    4880:	4313      	orrs	r3, r2
    4882:	001a      	movs	r2, r3
    4884:	2000      	movs	r0, #0
    4886:	e698      	b.n	45ba <__aeabi_dadd+0x1c2>
    4888:	4c6f      	ldr	r4, [pc, #444]	; (4a48 <__aeabi_dadd+0x650>)
    488a:	45a4      	cmp	ip, r4
    488c:	d000      	beq.n	4890 <__aeabi_dadd+0x498>
    488e:	e757      	b.n	4740 <__aeabi_dadd+0x348>
    4890:	0001      	movs	r1, r0
    4892:	0015      	movs	r5, r2
    4894:	4664      	mov	r4, ip
    4896:	469a      	mov	sl, r3
    4898:	e5d7      	b.n	444a <__aeabi_dadd+0x52>
    489a:	2c00      	cmp	r4, #0
    489c:	d139      	bne.n	4912 <__aeabi_dadd+0x51a>
    489e:	000c      	movs	r4, r1
    48a0:	432c      	orrs	r4, r5
    48a2:	d06e      	beq.n	4982 <__aeabi_dadd+0x58a>
    48a4:	43db      	mvns	r3, r3
    48a6:	2b00      	cmp	r3, #0
    48a8:	d01a      	beq.n	48e0 <__aeabi_dadd+0x4e8>
    48aa:	4c67      	ldr	r4, [pc, #412]	; (4a48 <__aeabi_dadd+0x650>)
    48ac:	45a4      	cmp	ip, r4
    48ae:	d068      	beq.n	4982 <__aeabi_dadd+0x58a>
    48b0:	2b38      	cmp	r3, #56	; 0x38
    48b2:	dd00      	ble.n	48b6 <__aeabi_dadd+0x4be>
    48b4:	e0a4      	b.n	4a00 <__aeabi_dadd+0x608>
    48b6:	2b1f      	cmp	r3, #31
    48b8:	dd00      	ble.n	48bc <__aeabi_dadd+0x4c4>
    48ba:	e0ae      	b.n	4a1a <__aeabi_dadd+0x622>
    48bc:	2420      	movs	r4, #32
    48be:	000f      	movs	r7, r1
    48c0:	1ae4      	subs	r4, r4, r3
    48c2:	40a7      	lsls	r7, r4
    48c4:	46b9      	mov	r9, r7
    48c6:	002f      	movs	r7, r5
    48c8:	40df      	lsrs	r7, r3
    48ca:	46b8      	mov	r8, r7
    48cc:	46a3      	mov	fp, r4
    48ce:	464f      	mov	r7, r9
    48d0:	4644      	mov	r4, r8
    48d2:	4327      	orrs	r7, r4
    48d4:	465c      	mov	r4, fp
    48d6:	40a5      	lsls	r5, r4
    48d8:	1e6c      	subs	r4, r5, #1
    48da:	41a5      	sbcs	r5, r4
    48dc:	40d9      	lsrs	r1, r3
    48de:	433d      	orrs	r5, r7
    48e0:	18ad      	adds	r5, r5, r2
    48e2:	4295      	cmp	r5, r2
    48e4:	419b      	sbcs	r3, r3
    48e6:	1809      	adds	r1, r1, r0
    48e8:	425b      	negs	r3, r3
    48ea:	1859      	adds	r1, r3, r1
    48ec:	4664      	mov	r4, ip
    48ee:	e66b      	b.n	45c8 <__aeabi_dadd+0x1d0>
    48f0:	000c      	movs	r4, r1
    48f2:	432c      	orrs	r4, r5
    48f4:	d115      	bne.n	4922 <__aeabi_dadd+0x52a>
    48f6:	0001      	movs	r1, r0
    48f8:	4311      	orrs	r1, r2
    48fa:	d07b      	beq.n	49f4 <__aeabi_dadd+0x5fc>
    48fc:	0001      	movs	r1, r0
    48fe:	0015      	movs	r5, r2
    4900:	469a      	mov	sl, r3
    4902:	4c51      	ldr	r4, [pc, #324]	; (4a48 <__aeabi_dadd+0x650>)
    4904:	e5a1      	b.n	444a <__aeabi_dadd+0x52>
    4906:	430d      	orrs	r5, r1
    4908:	1e69      	subs	r1, r5, #1
    490a:	418d      	sbcs	r5, r1
    490c:	2100      	movs	r1, #0
    490e:	b2ec      	uxtb	r4, r5
    4910:	e72d      	b.n	476e <__aeabi_dadd+0x376>
    4912:	4c4d      	ldr	r4, [pc, #308]	; (4a48 <__aeabi_dadd+0x650>)
    4914:	45a4      	cmp	ip, r4
    4916:	d034      	beq.n	4982 <__aeabi_dadd+0x58a>
    4918:	2480      	movs	r4, #128	; 0x80
    491a:	0424      	lsls	r4, r4, #16
    491c:	425b      	negs	r3, r3
    491e:	4321      	orrs	r1, r4
    4920:	e7c6      	b.n	48b0 <__aeabi_dadd+0x4b8>
    4922:	0004      	movs	r4, r0
    4924:	4314      	orrs	r4, r2
    4926:	d04e      	beq.n	49c6 <__aeabi_dadd+0x5ce>
    4928:	08ed      	lsrs	r5, r5, #3
    492a:	074c      	lsls	r4, r1, #29
    492c:	432c      	orrs	r4, r5
    492e:	2580      	movs	r5, #128	; 0x80
    4930:	08c9      	lsrs	r1, r1, #3
    4932:	032d      	lsls	r5, r5, #12
    4934:	4229      	tst	r1, r5
    4936:	d008      	beq.n	494a <__aeabi_dadd+0x552>
    4938:	08c6      	lsrs	r6, r0, #3
    493a:	422e      	tst	r6, r5
    493c:	d105      	bne.n	494a <__aeabi_dadd+0x552>
    493e:	08d2      	lsrs	r2, r2, #3
    4940:	0741      	lsls	r1, r0, #29
    4942:	4311      	orrs	r1, r2
    4944:	000c      	movs	r4, r1
    4946:	469a      	mov	sl, r3
    4948:	0031      	movs	r1, r6
    494a:	0f62      	lsrs	r2, r4, #29
    494c:	00c9      	lsls	r1, r1, #3
    494e:	00e5      	lsls	r5, r4, #3
    4950:	4311      	orrs	r1, r2
    4952:	4c3d      	ldr	r4, [pc, #244]	; (4a48 <__aeabi_dadd+0x650>)
    4954:	e579      	b.n	444a <__aeabi_dadd+0x52>
    4956:	0006      	movs	r6, r0
    4958:	4316      	orrs	r6, r2
    495a:	d100      	bne.n	495e <__aeabi_dadd+0x566>
    495c:	e575      	b.n	444a <__aeabi_dadd+0x52>
    495e:	1aae      	subs	r6, r5, r2
    4960:	46b0      	mov	r8, r6
    4962:	4545      	cmp	r5, r8
    4964:	41bf      	sbcs	r7, r7
    4966:	1a0e      	subs	r6, r1, r0
    4968:	427f      	negs	r7, r7
    496a:	1bf6      	subs	r6, r6, r7
    496c:	0237      	lsls	r7, r6, #8
    496e:	d400      	bmi.n	4972 <__aeabi_dadd+0x57a>
    4970:	e5f4      	b.n	455c <__aeabi_dadd+0x164>
    4972:	1b55      	subs	r5, r2, r5
    4974:	42aa      	cmp	r2, r5
    4976:	41b6      	sbcs	r6, r6
    4978:	1a41      	subs	r1, r0, r1
    497a:	4276      	negs	r6, r6
    497c:	1b89      	subs	r1, r1, r6
    497e:	469a      	mov	sl, r3
    4980:	e563      	b.n	444a <__aeabi_dadd+0x52>
    4982:	0001      	movs	r1, r0
    4984:	0015      	movs	r5, r2
    4986:	4664      	mov	r4, ip
    4988:	e55f      	b.n	444a <__aeabi_dadd+0x52>
    498a:	2200      	movs	r2, #0
    498c:	2500      	movs	r5, #0
    498e:	e57b      	b.n	4488 <__aeabi_dadd+0x90>
    4990:	2b00      	cmp	r3, #0
    4992:	d03b      	beq.n	4a0c <__aeabi_dadd+0x614>
    4994:	0003      	movs	r3, r0
    4996:	4313      	orrs	r3, r2
    4998:	d015      	beq.n	49c6 <__aeabi_dadd+0x5ce>
    499a:	08ed      	lsrs	r5, r5, #3
    499c:	074b      	lsls	r3, r1, #29
    499e:	432b      	orrs	r3, r5
    49a0:	2580      	movs	r5, #128	; 0x80
    49a2:	08c9      	lsrs	r1, r1, #3
    49a4:	032d      	lsls	r5, r5, #12
    49a6:	4229      	tst	r1, r5
    49a8:	d007      	beq.n	49ba <__aeabi_dadd+0x5c2>
    49aa:	08c4      	lsrs	r4, r0, #3
    49ac:	422c      	tst	r4, r5
    49ae:	d104      	bne.n	49ba <__aeabi_dadd+0x5c2>
    49b0:	0741      	lsls	r1, r0, #29
    49b2:	000b      	movs	r3, r1
    49b4:	0021      	movs	r1, r4
    49b6:	08d2      	lsrs	r2, r2, #3
    49b8:	4313      	orrs	r3, r2
    49ba:	00c9      	lsls	r1, r1, #3
    49bc:	0f5a      	lsrs	r2, r3, #29
    49be:	4311      	orrs	r1, r2
    49c0:	00dd      	lsls	r5, r3, #3
    49c2:	4c21      	ldr	r4, [pc, #132]	; (4a48 <__aeabi_dadd+0x650>)
    49c4:	e541      	b.n	444a <__aeabi_dadd+0x52>
    49c6:	4c20      	ldr	r4, [pc, #128]	; (4a48 <__aeabi_dadd+0x650>)
    49c8:	e53f      	b.n	444a <__aeabi_dadd+0x52>
    49ca:	2000      	movs	r0, #0
    49cc:	e754      	b.n	4878 <__aeabi_dadd+0x480>
    49ce:	2600      	movs	r6, #0
    49d0:	2500      	movs	r5, #0
    49d2:	e5d1      	b.n	4578 <__aeabi_dadd+0x180>
    49d4:	0034      	movs	r4, r6
    49d6:	000f      	movs	r7, r1
    49d8:	3c20      	subs	r4, #32
    49da:	40e7      	lsrs	r7, r4
    49dc:	003c      	movs	r4, r7
    49de:	2e20      	cmp	r6, #32
    49e0:	d02b      	beq.n	4a3a <__aeabi_dadd+0x642>
    49e2:	2740      	movs	r7, #64	; 0x40
    49e4:	1bbe      	subs	r6, r7, r6
    49e6:	40b1      	lsls	r1, r6
    49e8:	430d      	orrs	r5, r1
    49ea:	1e69      	subs	r1, r5, #1
    49ec:	418d      	sbcs	r5, r1
    49ee:	2100      	movs	r1, #0
    49f0:	432c      	orrs	r4, r5
    49f2:	e6bc      	b.n	476e <__aeabi_dadd+0x376>
    49f4:	2180      	movs	r1, #128	; 0x80
    49f6:	2600      	movs	r6, #0
    49f8:	0309      	lsls	r1, r1, #12
    49fa:	4c13      	ldr	r4, [pc, #76]	; (4a48 <__aeabi_dadd+0x650>)
    49fc:	2500      	movs	r5, #0
    49fe:	e5bb      	b.n	4578 <__aeabi_dadd+0x180>
    4a00:	430d      	orrs	r5, r1
    4a02:	1e69      	subs	r1, r5, #1
    4a04:	418d      	sbcs	r5, r1
    4a06:	2100      	movs	r1, #0
    4a08:	b2ed      	uxtb	r5, r5
    4a0a:	e769      	b.n	48e0 <__aeabi_dadd+0x4e8>
    4a0c:	0001      	movs	r1, r0
    4a0e:	0015      	movs	r5, r2
    4a10:	4c0d      	ldr	r4, [pc, #52]	; (4a48 <__aeabi_dadd+0x650>)
    4a12:	e51a      	b.n	444a <__aeabi_dadd+0x52>
    4a14:	0001      	movs	r1, r0
    4a16:	0015      	movs	r5, r2
    4a18:	e517      	b.n	444a <__aeabi_dadd+0x52>
    4a1a:	001c      	movs	r4, r3
    4a1c:	000f      	movs	r7, r1
    4a1e:	3c20      	subs	r4, #32
    4a20:	40e7      	lsrs	r7, r4
    4a22:	003c      	movs	r4, r7
    4a24:	2b20      	cmp	r3, #32
    4a26:	d00c      	beq.n	4a42 <__aeabi_dadd+0x64a>
    4a28:	2740      	movs	r7, #64	; 0x40
    4a2a:	1afb      	subs	r3, r7, r3
    4a2c:	4099      	lsls	r1, r3
    4a2e:	430d      	orrs	r5, r1
    4a30:	1e69      	subs	r1, r5, #1
    4a32:	418d      	sbcs	r5, r1
    4a34:	2100      	movs	r1, #0
    4a36:	4325      	orrs	r5, r4
    4a38:	e752      	b.n	48e0 <__aeabi_dadd+0x4e8>
    4a3a:	2100      	movs	r1, #0
    4a3c:	e7d4      	b.n	49e8 <__aeabi_dadd+0x5f0>
    4a3e:	001d      	movs	r5, r3
    4a40:	e592      	b.n	4568 <__aeabi_dadd+0x170>
    4a42:	2100      	movs	r1, #0
    4a44:	e7f3      	b.n	4a2e <__aeabi_dadd+0x636>
    4a46:	46c0      	nop			; (mov r8, r8)
    4a48:	000007ff 	.word	0x000007ff
    4a4c:	ff7fffff 	.word	0xff7fffff

00004a50 <__aeabi_ddiv>:
    4a50:	b5f0      	push	{r4, r5, r6, r7, lr}
    4a52:	4656      	mov	r6, sl
    4a54:	464d      	mov	r5, r9
    4a56:	4644      	mov	r4, r8
    4a58:	465f      	mov	r7, fp
    4a5a:	b4f0      	push	{r4, r5, r6, r7}
    4a5c:	001d      	movs	r5, r3
    4a5e:	030e      	lsls	r6, r1, #12
    4a60:	004c      	lsls	r4, r1, #1
    4a62:	0fcb      	lsrs	r3, r1, #31
    4a64:	b087      	sub	sp, #28
    4a66:	0007      	movs	r7, r0
    4a68:	4692      	mov	sl, r2
    4a6a:	4681      	mov	r9, r0
    4a6c:	0b36      	lsrs	r6, r6, #12
    4a6e:	0d64      	lsrs	r4, r4, #21
    4a70:	4698      	mov	r8, r3
    4a72:	d06a      	beq.n	4b4a <__aeabi_ddiv+0xfa>
    4a74:	4b6d      	ldr	r3, [pc, #436]	; (4c2c <__aeabi_ddiv+0x1dc>)
    4a76:	429c      	cmp	r4, r3
    4a78:	d035      	beq.n	4ae6 <__aeabi_ddiv+0x96>
    4a7a:	2280      	movs	r2, #128	; 0x80
    4a7c:	0f43      	lsrs	r3, r0, #29
    4a7e:	0412      	lsls	r2, r2, #16
    4a80:	4313      	orrs	r3, r2
    4a82:	00f6      	lsls	r6, r6, #3
    4a84:	431e      	orrs	r6, r3
    4a86:	00c3      	lsls	r3, r0, #3
    4a88:	4699      	mov	r9, r3
    4a8a:	4b69      	ldr	r3, [pc, #420]	; (4c30 <__aeabi_ddiv+0x1e0>)
    4a8c:	2700      	movs	r7, #0
    4a8e:	469c      	mov	ip, r3
    4a90:	2300      	movs	r3, #0
    4a92:	4464      	add	r4, ip
    4a94:	9302      	str	r3, [sp, #8]
    4a96:	032b      	lsls	r3, r5, #12
    4a98:	0068      	lsls	r0, r5, #1
    4a9a:	0b1b      	lsrs	r3, r3, #12
    4a9c:	0fed      	lsrs	r5, r5, #31
    4a9e:	4651      	mov	r1, sl
    4aa0:	469b      	mov	fp, r3
    4aa2:	0d40      	lsrs	r0, r0, #21
    4aa4:	9500      	str	r5, [sp, #0]
    4aa6:	d100      	bne.n	4aaa <__aeabi_ddiv+0x5a>
    4aa8:	e078      	b.n	4b9c <__aeabi_ddiv+0x14c>
    4aaa:	4b60      	ldr	r3, [pc, #384]	; (4c2c <__aeabi_ddiv+0x1dc>)
    4aac:	4298      	cmp	r0, r3
    4aae:	d06c      	beq.n	4b8a <__aeabi_ddiv+0x13a>
    4ab0:	465b      	mov	r3, fp
    4ab2:	00da      	lsls	r2, r3, #3
    4ab4:	0f4b      	lsrs	r3, r1, #29
    4ab6:	2180      	movs	r1, #128	; 0x80
    4ab8:	0409      	lsls	r1, r1, #16
    4aba:	430b      	orrs	r3, r1
    4abc:	4313      	orrs	r3, r2
    4abe:	469b      	mov	fp, r3
    4ac0:	4653      	mov	r3, sl
    4ac2:	00d9      	lsls	r1, r3, #3
    4ac4:	4b5a      	ldr	r3, [pc, #360]	; (4c30 <__aeabi_ddiv+0x1e0>)
    4ac6:	469c      	mov	ip, r3
    4ac8:	2300      	movs	r3, #0
    4aca:	4460      	add	r0, ip
    4acc:	4642      	mov	r2, r8
    4ace:	1a20      	subs	r0, r4, r0
    4ad0:	406a      	eors	r2, r5
    4ad2:	4692      	mov	sl, r2
    4ad4:	9001      	str	r0, [sp, #4]
    4ad6:	431f      	orrs	r7, r3
    4ad8:	2f0f      	cmp	r7, #15
    4ada:	d900      	bls.n	4ade <__aeabi_ddiv+0x8e>
    4adc:	e0b0      	b.n	4c40 <__aeabi_ddiv+0x1f0>
    4ade:	4855      	ldr	r0, [pc, #340]	; (4c34 <__aeabi_ddiv+0x1e4>)
    4ae0:	00bf      	lsls	r7, r7, #2
    4ae2:	59c0      	ldr	r0, [r0, r7]
    4ae4:	4687      	mov	pc, r0
    4ae6:	4337      	orrs	r7, r6
    4ae8:	d000      	beq.n	4aec <__aeabi_ddiv+0x9c>
    4aea:	e088      	b.n	4bfe <__aeabi_ddiv+0x1ae>
    4aec:	2300      	movs	r3, #0
    4aee:	4699      	mov	r9, r3
    4af0:	3302      	adds	r3, #2
    4af2:	2708      	movs	r7, #8
    4af4:	2600      	movs	r6, #0
    4af6:	9302      	str	r3, [sp, #8]
    4af8:	e7cd      	b.n	4a96 <__aeabi_ddiv+0x46>
    4afa:	4643      	mov	r3, r8
    4afc:	46b3      	mov	fp, r6
    4afe:	4649      	mov	r1, r9
    4b00:	9300      	str	r3, [sp, #0]
    4b02:	9b02      	ldr	r3, [sp, #8]
    4b04:	9a00      	ldr	r2, [sp, #0]
    4b06:	4692      	mov	sl, r2
    4b08:	2b02      	cmp	r3, #2
    4b0a:	d000      	beq.n	4b0e <__aeabi_ddiv+0xbe>
    4b0c:	e1bf      	b.n	4e8e <__aeabi_ddiv+0x43e>
    4b0e:	2100      	movs	r1, #0
    4b10:	4653      	mov	r3, sl
    4b12:	2201      	movs	r2, #1
    4b14:	2600      	movs	r6, #0
    4b16:	4689      	mov	r9, r1
    4b18:	401a      	ands	r2, r3
    4b1a:	4b44      	ldr	r3, [pc, #272]	; (4c2c <__aeabi_ddiv+0x1dc>)
    4b1c:	2100      	movs	r1, #0
    4b1e:	0336      	lsls	r6, r6, #12
    4b20:	0d0c      	lsrs	r4, r1, #20
    4b22:	0524      	lsls	r4, r4, #20
    4b24:	0b36      	lsrs	r6, r6, #12
    4b26:	4326      	orrs	r6, r4
    4b28:	4c43      	ldr	r4, [pc, #268]	; (4c38 <__aeabi_ddiv+0x1e8>)
    4b2a:	051b      	lsls	r3, r3, #20
    4b2c:	4026      	ands	r6, r4
    4b2e:	431e      	orrs	r6, r3
    4b30:	0076      	lsls	r6, r6, #1
    4b32:	07d2      	lsls	r2, r2, #31
    4b34:	0876      	lsrs	r6, r6, #1
    4b36:	4316      	orrs	r6, r2
    4b38:	4648      	mov	r0, r9
    4b3a:	0031      	movs	r1, r6
    4b3c:	b007      	add	sp, #28
    4b3e:	bc3c      	pop	{r2, r3, r4, r5}
    4b40:	4690      	mov	r8, r2
    4b42:	4699      	mov	r9, r3
    4b44:	46a2      	mov	sl, r4
    4b46:	46ab      	mov	fp, r5
    4b48:	bdf0      	pop	{r4, r5, r6, r7, pc}
    4b4a:	0033      	movs	r3, r6
    4b4c:	4303      	orrs	r3, r0
    4b4e:	d04f      	beq.n	4bf0 <__aeabi_ddiv+0x1a0>
    4b50:	2e00      	cmp	r6, #0
    4b52:	d100      	bne.n	4b56 <__aeabi_ddiv+0x106>
    4b54:	e1bc      	b.n	4ed0 <__aeabi_ddiv+0x480>
    4b56:	0030      	movs	r0, r6
    4b58:	f001 f8cc 	bl	5cf4 <__clzsi2>
    4b5c:	0003      	movs	r3, r0
    4b5e:	3b0b      	subs	r3, #11
    4b60:	2b1c      	cmp	r3, #28
    4b62:	dd00      	ble.n	4b66 <__aeabi_ddiv+0x116>
    4b64:	e1ad      	b.n	4ec2 <__aeabi_ddiv+0x472>
    4b66:	221d      	movs	r2, #29
    4b68:	0001      	movs	r1, r0
    4b6a:	1ad3      	subs	r3, r2, r3
    4b6c:	3908      	subs	r1, #8
    4b6e:	003a      	movs	r2, r7
    4b70:	408f      	lsls	r7, r1
    4b72:	408e      	lsls	r6, r1
    4b74:	40da      	lsrs	r2, r3
    4b76:	46b9      	mov	r9, r7
    4b78:	4316      	orrs	r6, r2
    4b7a:	4b30      	ldr	r3, [pc, #192]	; (4c3c <__aeabi_ddiv+0x1ec>)
    4b7c:	2700      	movs	r7, #0
    4b7e:	469c      	mov	ip, r3
    4b80:	2300      	movs	r3, #0
    4b82:	4460      	add	r0, ip
    4b84:	4244      	negs	r4, r0
    4b86:	9302      	str	r3, [sp, #8]
    4b88:	e785      	b.n	4a96 <__aeabi_ddiv+0x46>
    4b8a:	4653      	mov	r3, sl
    4b8c:	465a      	mov	r2, fp
    4b8e:	4313      	orrs	r3, r2
    4b90:	d12c      	bne.n	4bec <__aeabi_ddiv+0x19c>
    4b92:	2300      	movs	r3, #0
    4b94:	2100      	movs	r1, #0
    4b96:	469b      	mov	fp, r3
    4b98:	3302      	adds	r3, #2
    4b9a:	e797      	b.n	4acc <__aeabi_ddiv+0x7c>
    4b9c:	430b      	orrs	r3, r1
    4b9e:	d020      	beq.n	4be2 <__aeabi_ddiv+0x192>
    4ba0:	465b      	mov	r3, fp
    4ba2:	2b00      	cmp	r3, #0
    4ba4:	d100      	bne.n	4ba8 <__aeabi_ddiv+0x158>
    4ba6:	e19e      	b.n	4ee6 <__aeabi_ddiv+0x496>
    4ba8:	4658      	mov	r0, fp
    4baa:	f001 f8a3 	bl	5cf4 <__clzsi2>
    4bae:	0003      	movs	r3, r0
    4bb0:	3b0b      	subs	r3, #11
    4bb2:	2b1c      	cmp	r3, #28
    4bb4:	dd00      	ble.n	4bb8 <__aeabi_ddiv+0x168>
    4bb6:	e18f      	b.n	4ed8 <__aeabi_ddiv+0x488>
    4bb8:	0002      	movs	r2, r0
    4bba:	4659      	mov	r1, fp
    4bbc:	3a08      	subs	r2, #8
    4bbe:	4091      	lsls	r1, r2
    4bc0:	468b      	mov	fp, r1
    4bc2:	211d      	movs	r1, #29
    4bc4:	1acb      	subs	r3, r1, r3
    4bc6:	4651      	mov	r1, sl
    4bc8:	40d9      	lsrs	r1, r3
    4bca:	000b      	movs	r3, r1
    4bcc:	4659      	mov	r1, fp
    4bce:	430b      	orrs	r3, r1
    4bd0:	4651      	mov	r1, sl
    4bd2:	469b      	mov	fp, r3
    4bd4:	4091      	lsls	r1, r2
    4bd6:	4b19      	ldr	r3, [pc, #100]	; (4c3c <__aeabi_ddiv+0x1ec>)
    4bd8:	469c      	mov	ip, r3
    4bda:	4460      	add	r0, ip
    4bdc:	4240      	negs	r0, r0
    4bde:	2300      	movs	r3, #0
    4be0:	e774      	b.n	4acc <__aeabi_ddiv+0x7c>
    4be2:	2300      	movs	r3, #0
    4be4:	2100      	movs	r1, #0
    4be6:	469b      	mov	fp, r3
    4be8:	3301      	adds	r3, #1
    4bea:	e76f      	b.n	4acc <__aeabi_ddiv+0x7c>
    4bec:	2303      	movs	r3, #3
    4bee:	e76d      	b.n	4acc <__aeabi_ddiv+0x7c>
    4bf0:	2300      	movs	r3, #0
    4bf2:	4699      	mov	r9, r3
    4bf4:	3301      	adds	r3, #1
    4bf6:	2704      	movs	r7, #4
    4bf8:	2600      	movs	r6, #0
    4bfa:	9302      	str	r3, [sp, #8]
    4bfc:	e74b      	b.n	4a96 <__aeabi_ddiv+0x46>
    4bfe:	2303      	movs	r3, #3
    4c00:	270c      	movs	r7, #12
    4c02:	9302      	str	r3, [sp, #8]
    4c04:	e747      	b.n	4a96 <__aeabi_ddiv+0x46>
    4c06:	2201      	movs	r2, #1
    4c08:	1ad5      	subs	r5, r2, r3
    4c0a:	2d38      	cmp	r5, #56	; 0x38
    4c0c:	dc00      	bgt.n	4c10 <__aeabi_ddiv+0x1c0>
    4c0e:	e1b0      	b.n	4f72 <__aeabi_ddiv+0x522>
    4c10:	4653      	mov	r3, sl
    4c12:	401a      	ands	r2, r3
    4c14:	2100      	movs	r1, #0
    4c16:	2300      	movs	r3, #0
    4c18:	2600      	movs	r6, #0
    4c1a:	4689      	mov	r9, r1
    4c1c:	e77e      	b.n	4b1c <__aeabi_ddiv+0xcc>
    4c1e:	2300      	movs	r3, #0
    4c20:	2680      	movs	r6, #128	; 0x80
    4c22:	4699      	mov	r9, r3
    4c24:	2200      	movs	r2, #0
    4c26:	0336      	lsls	r6, r6, #12
    4c28:	4b00      	ldr	r3, [pc, #0]	; (4c2c <__aeabi_ddiv+0x1dc>)
    4c2a:	e777      	b.n	4b1c <__aeabi_ddiv+0xcc>
    4c2c:	000007ff 	.word	0x000007ff
    4c30:	fffffc01 	.word	0xfffffc01
    4c34:	00006718 	.word	0x00006718
    4c38:	800fffff 	.word	0x800fffff
    4c3c:	000003f3 	.word	0x000003f3
    4c40:	455e      	cmp	r6, fp
    4c42:	d900      	bls.n	4c46 <__aeabi_ddiv+0x1f6>
    4c44:	e172      	b.n	4f2c <__aeabi_ddiv+0x4dc>
    4c46:	d100      	bne.n	4c4a <__aeabi_ddiv+0x1fa>
    4c48:	e16d      	b.n	4f26 <__aeabi_ddiv+0x4d6>
    4c4a:	9b01      	ldr	r3, [sp, #4]
    4c4c:	464d      	mov	r5, r9
    4c4e:	3b01      	subs	r3, #1
    4c50:	9301      	str	r3, [sp, #4]
    4c52:	2300      	movs	r3, #0
    4c54:	0034      	movs	r4, r6
    4c56:	9302      	str	r3, [sp, #8]
    4c58:	465b      	mov	r3, fp
    4c5a:	021e      	lsls	r6, r3, #8
    4c5c:	0e0b      	lsrs	r3, r1, #24
    4c5e:	431e      	orrs	r6, r3
    4c60:	020b      	lsls	r3, r1, #8
    4c62:	9303      	str	r3, [sp, #12]
    4c64:	0c33      	lsrs	r3, r6, #16
    4c66:	4699      	mov	r9, r3
    4c68:	0433      	lsls	r3, r6, #16
    4c6a:	0c1b      	lsrs	r3, r3, #16
    4c6c:	4649      	mov	r1, r9
    4c6e:	0020      	movs	r0, r4
    4c70:	9300      	str	r3, [sp, #0]
    4c72:	f7ff fa1f 	bl	40b4 <__aeabi_uidiv>
    4c76:	9b00      	ldr	r3, [sp, #0]
    4c78:	0037      	movs	r7, r6
    4c7a:	4343      	muls	r3, r0
    4c7c:	0006      	movs	r6, r0
    4c7e:	4649      	mov	r1, r9
    4c80:	0020      	movs	r0, r4
    4c82:	4698      	mov	r8, r3
    4c84:	f7ff fa9c 	bl	41c0 <__aeabi_uidivmod>
    4c88:	0c2c      	lsrs	r4, r5, #16
    4c8a:	0409      	lsls	r1, r1, #16
    4c8c:	430c      	orrs	r4, r1
    4c8e:	45a0      	cmp	r8, r4
    4c90:	d909      	bls.n	4ca6 <__aeabi_ddiv+0x256>
    4c92:	19e4      	adds	r4, r4, r7
    4c94:	1e73      	subs	r3, r6, #1
    4c96:	42a7      	cmp	r7, r4
    4c98:	d900      	bls.n	4c9c <__aeabi_ddiv+0x24c>
    4c9a:	e15c      	b.n	4f56 <__aeabi_ddiv+0x506>
    4c9c:	45a0      	cmp	r8, r4
    4c9e:	d800      	bhi.n	4ca2 <__aeabi_ddiv+0x252>
    4ca0:	e159      	b.n	4f56 <__aeabi_ddiv+0x506>
    4ca2:	3e02      	subs	r6, #2
    4ca4:	19e4      	adds	r4, r4, r7
    4ca6:	4643      	mov	r3, r8
    4ca8:	1ae4      	subs	r4, r4, r3
    4caa:	4649      	mov	r1, r9
    4cac:	0020      	movs	r0, r4
    4cae:	f7ff fa01 	bl	40b4 <__aeabi_uidiv>
    4cb2:	0003      	movs	r3, r0
    4cb4:	9a00      	ldr	r2, [sp, #0]
    4cb6:	4680      	mov	r8, r0
    4cb8:	4353      	muls	r3, r2
    4cba:	4649      	mov	r1, r9
    4cbc:	0020      	movs	r0, r4
    4cbe:	469b      	mov	fp, r3
    4cc0:	f7ff fa7e 	bl	41c0 <__aeabi_uidivmod>
    4cc4:	042a      	lsls	r2, r5, #16
    4cc6:	0409      	lsls	r1, r1, #16
    4cc8:	0c12      	lsrs	r2, r2, #16
    4cca:	430a      	orrs	r2, r1
    4ccc:	4593      	cmp	fp, r2
    4cce:	d90d      	bls.n	4cec <__aeabi_ddiv+0x29c>
    4cd0:	4643      	mov	r3, r8
    4cd2:	19d2      	adds	r2, r2, r7
    4cd4:	3b01      	subs	r3, #1
    4cd6:	4297      	cmp	r7, r2
    4cd8:	d900      	bls.n	4cdc <__aeabi_ddiv+0x28c>
    4cda:	e13a      	b.n	4f52 <__aeabi_ddiv+0x502>
    4cdc:	4593      	cmp	fp, r2
    4cde:	d800      	bhi.n	4ce2 <__aeabi_ddiv+0x292>
    4ce0:	e137      	b.n	4f52 <__aeabi_ddiv+0x502>
    4ce2:	2302      	movs	r3, #2
    4ce4:	425b      	negs	r3, r3
    4ce6:	469c      	mov	ip, r3
    4ce8:	19d2      	adds	r2, r2, r7
    4cea:	44e0      	add	r8, ip
    4cec:	465b      	mov	r3, fp
    4cee:	1ad2      	subs	r2, r2, r3
    4cf0:	4643      	mov	r3, r8
    4cf2:	0436      	lsls	r6, r6, #16
    4cf4:	4333      	orrs	r3, r6
    4cf6:	469b      	mov	fp, r3
    4cf8:	9903      	ldr	r1, [sp, #12]
    4cfa:	0c18      	lsrs	r0, r3, #16
    4cfc:	0c0b      	lsrs	r3, r1, #16
    4cfe:	001d      	movs	r5, r3
    4d00:	9305      	str	r3, [sp, #20]
    4d02:	0409      	lsls	r1, r1, #16
    4d04:	465b      	mov	r3, fp
    4d06:	0c09      	lsrs	r1, r1, #16
    4d08:	000c      	movs	r4, r1
    4d0a:	041b      	lsls	r3, r3, #16
    4d0c:	0c1b      	lsrs	r3, r3, #16
    4d0e:	4344      	muls	r4, r0
    4d10:	9104      	str	r1, [sp, #16]
    4d12:	4359      	muls	r1, r3
    4d14:	436b      	muls	r3, r5
    4d16:	4368      	muls	r0, r5
    4d18:	191b      	adds	r3, r3, r4
    4d1a:	0c0d      	lsrs	r5, r1, #16
    4d1c:	18eb      	adds	r3, r5, r3
    4d1e:	429c      	cmp	r4, r3
    4d20:	d903      	bls.n	4d2a <__aeabi_ddiv+0x2da>
    4d22:	2480      	movs	r4, #128	; 0x80
    4d24:	0264      	lsls	r4, r4, #9
    4d26:	46a4      	mov	ip, r4
    4d28:	4460      	add	r0, ip
    4d2a:	0c1c      	lsrs	r4, r3, #16
    4d2c:	0409      	lsls	r1, r1, #16
    4d2e:	041b      	lsls	r3, r3, #16
    4d30:	0c09      	lsrs	r1, r1, #16
    4d32:	1820      	adds	r0, r4, r0
    4d34:	185d      	adds	r5, r3, r1
    4d36:	4282      	cmp	r2, r0
    4d38:	d200      	bcs.n	4d3c <__aeabi_ddiv+0x2ec>
    4d3a:	e0de      	b.n	4efa <__aeabi_ddiv+0x4aa>
    4d3c:	d100      	bne.n	4d40 <__aeabi_ddiv+0x2f0>
    4d3e:	e0d7      	b.n	4ef0 <__aeabi_ddiv+0x4a0>
    4d40:	1a16      	subs	r6, r2, r0
    4d42:	9b02      	ldr	r3, [sp, #8]
    4d44:	469c      	mov	ip, r3
    4d46:	1b5d      	subs	r5, r3, r5
    4d48:	45ac      	cmp	ip, r5
    4d4a:	419b      	sbcs	r3, r3
    4d4c:	425b      	negs	r3, r3
    4d4e:	1af6      	subs	r6, r6, r3
    4d50:	42b7      	cmp	r7, r6
    4d52:	d100      	bne.n	4d56 <__aeabi_ddiv+0x306>
    4d54:	e106      	b.n	4f64 <__aeabi_ddiv+0x514>
    4d56:	4649      	mov	r1, r9
    4d58:	0030      	movs	r0, r6
    4d5a:	f7ff f9ab 	bl	40b4 <__aeabi_uidiv>
    4d5e:	9b00      	ldr	r3, [sp, #0]
    4d60:	0004      	movs	r4, r0
    4d62:	4343      	muls	r3, r0
    4d64:	4649      	mov	r1, r9
    4d66:	0030      	movs	r0, r6
    4d68:	4698      	mov	r8, r3
    4d6a:	f7ff fa29 	bl	41c0 <__aeabi_uidivmod>
    4d6e:	0c2e      	lsrs	r6, r5, #16
    4d70:	0409      	lsls	r1, r1, #16
    4d72:	430e      	orrs	r6, r1
    4d74:	45b0      	cmp	r8, r6
    4d76:	d909      	bls.n	4d8c <__aeabi_ddiv+0x33c>
    4d78:	19f6      	adds	r6, r6, r7
    4d7a:	1e63      	subs	r3, r4, #1
    4d7c:	42b7      	cmp	r7, r6
    4d7e:	d900      	bls.n	4d82 <__aeabi_ddiv+0x332>
    4d80:	e0f3      	b.n	4f6a <__aeabi_ddiv+0x51a>
    4d82:	45b0      	cmp	r8, r6
    4d84:	d800      	bhi.n	4d88 <__aeabi_ddiv+0x338>
    4d86:	e0f0      	b.n	4f6a <__aeabi_ddiv+0x51a>
    4d88:	3c02      	subs	r4, #2
    4d8a:	19f6      	adds	r6, r6, r7
    4d8c:	4643      	mov	r3, r8
    4d8e:	1af3      	subs	r3, r6, r3
    4d90:	4649      	mov	r1, r9
    4d92:	0018      	movs	r0, r3
    4d94:	9302      	str	r3, [sp, #8]
    4d96:	f7ff f98d 	bl	40b4 <__aeabi_uidiv>
    4d9a:	9b00      	ldr	r3, [sp, #0]
    4d9c:	0006      	movs	r6, r0
    4d9e:	4343      	muls	r3, r0
    4da0:	4649      	mov	r1, r9
    4da2:	9802      	ldr	r0, [sp, #8]
    4da4:	4698      	mov	r8, r3
    4da6:	f7ff fa0b 	bl	41c0 <__aeabi_uidivmod>
    4daa:	042d      	lsls	r5, r5, #16
    4dac:	0409      	lsls	r1, r1, #16
    4dae:	0c2d      	lsrs	r5, r5, #16
    4db0:	430d      	orrs	r5, r1
    4db2:	45a8      	cmp	r8, r5
    4db4:	d909      	bls.n	4dca <__aeabi_ddiv+0x37a>
    4db6:	19ed      	adds	r5, r5, r7
    4db8:	1e73      	subs	r3, r6, #1
    4dba:	42af      	cmp	r7, r5
    4dbc:	d900      	bls.n	4dc0 <__aeabi_ddiv+0x370>
    4dbe:	e0d6      	b.n	4f6e <__aeabi_ddiv+0x51e>
    4dc0:	45a8      	cmp	r8, r5
    4dc2:	d800      	bhi.n	4dc6 <__aeabi_ddiv+0x376>
    4dc4:	e0d3      	b.n	4f6e <__aeabi_ddiv+0x51e>
    4dc6:	3e02      	subs	r6, #2
    4dc8:	19ed      	adds	r5, r5, r7
    4dca:	0424      	lsls	r4, r4, #16
    4dcc:	0021      	movs	r1, r4
    4dce:	4643      	mov	r3, r8
    4dd0:	4331      	orrs	r1, r6
    4dd2:	9e04      	ldr	r6, [sp, #16]
    4dd4:	9a05      	ldr	r2, [sp, #20]
    4dd6:	0030      	movs	r0, r6
    4dd8:	1aed      	subs	r5, r5, r3
    4dda:	040b      	lsls	r3, r1, #16
    4ddc:	0c0c      	lsrs	r4, r1, #16
    4dde:	0c1b      	lsrs	r3, r3, #16
    4de0:	4358      	muls	r0, r3
    4de2:	4366      	muls	r6, r4
    4de4:	4353      	muls	r3, r2
    4de6:	4354      	muls	r4, r2
    4de8:	199a      	adds	r2, r3, r6
    4dea:	0c03      	lsrs	r3, r0, #16
    4dec:	189b      	adds	r3, r3, r2
    4dee:	429e      	cmp	r6, r3
    4df0:	d903      	bls.n	4dfa <__aeabi_ddiv+0x3aa>
    4df2:	2280      	movs	r2, #128	; 0x80
    4df4:	0252      	lsls	r2, r2, #9
    4df6:	4694      	mov	ip, r2
    4df8:	4464      	add	r4, ip
    4dfa:	0c1a      	lsrs	r2, r3, #16
    4dfc:	0400      	lsls	r0, r0, #16
    4dfe:	041b      	lsls	r3, r3, #16
    4e00:	0c00      	lsrs	r0, r0, #16
    4e02:	1914      	adds	r4, r2, r4
    4e04:	181b      	adds	r3, r3, r0
    4e06:	42a5      	cmp	r5, r4
    4e08:	d350      	bcc.n	4eac <__aeabi_ddiv+0x45c>
    4e0a:	d04d      	beq.n	4ea8 <__aeabi_ddiv+0x458>
    4e0c:	2301      	movs	r3, #1
    4e0e:	4319      	orrs	r1, r3
    4e10:	4a96      	ldr	r2, [pc, #600]	; (506c <__aeabi_ddiv+0x61c>)
    4e12:	9b01      	ldr	r3, [sp, #4]
    4e14:	4694      	mov	ip, r2
    4e16:	4463      	add	r3, ip
    4e18:	2b00      	cmp	r3, #0
    4e1a:	dc00      	bgt.n	4e1e <__aeabi_ddiv+0x3ce>
    4e1c:	e6f3      	b.n	4c06 <__aeabi_ddiv+0x1b6>
    4e1e:	074a      	lsls	r2, r1, #29
    4e20:	d009      	beq.n	4e36 <__aeabi_ddiv+0x3e6>
    4e22:	220f      	movs	r2, #15
    4e24:	400a      	ands	r2, r1
    4e26:	2a04      	cmp	r2, #4
    4e28:	d005      	beq.n	4e36 <__aeabi_ddiv+0x3e6>
    4e2a:	1d0a      	adds	r2, r1, #4
    4e2c:	428a      	cmp	r2, r1
    4e2e:	4189      	sbcs	r1, r1
    4e30:	4249      	negs	r1, r1
    4e32:	448b      	add	fp, r1
    4e34:	0011      	movs	r1, r2
    4e36:	465a      	mov	r2, fp
    4e38:	01d2      	lsls	r2, r2, #7
    4e3a:	d508      	bpl.n	4e4e <__aeabi_ddiv+0x3fe>
    4e3c:	465a      	mov	r2, fp
    4e3e:	4b8c      	ldr	r3, [pc, #560]	; (5070 <__aeabi_ddiv+0x620>)
    4e40:	401a      	ands	r2, r3
    4e42:	4693      	mov	fp, r2
    4e44:	2280      	movs	r2, #128	; 0x80
    4e46:	00d2      	lsls	r2, r2, #3
    4e48:	4694      	mov	ip, r2
    4e4a:	9b01      	ldr	r3, [sp, #4]
    4e4c:	4463      	add	r3, ip
    4e4e:	4a89      	ldr	r2, [pc, #548]	; (5074 <__aeabi_ddiv+0x624>)
    4e50:	4293      	cmp	r3, r2
    4e52:	dd00      	ble.n	4e56 <__aeabi_ddiv+0x406>
    4e54:	e65b      	b.n	4b0e <__aeabi_ddiv+0xbe>
    4e56:	465a      	mov	r2, fp
    4e58:	08c9      	lsrs	r1, r1, #3
    4e5a:	0750      	lsls	r0, r2, #29
    4e5c:	4308      	orrs	r0, r1
    4e5e:	0256      	lsls	r6, r2, #9
    4e60:	4651      	mov	r1, sl
    4e62:	2201      	movs	r2, #1
    4e64:	055b      	lsls	r3, r3, #21
    4e66:	4681      	mov	r9, r0
    4e68:	0b36      	lsrs	r6, r6, #12
    4e6a:	0d5b      	lsrs	r3, r3, #21
    4e6c:	400a      	ands	r2, r1
    4e6e:	e655      	b.n	4b1c <__aeabi_ddiv+0xcc>
    4e70:	2380      	movs	r3, #128	; 0x80
    4e72:	031b      	lsls	r3, r3, #12
    4e74:	421e      	tst	r6, r3
    4e76:	d011      	beq.n	4e9c <__aeabi_ddiv+0x44c>
    4e78:	465a      	mov	r2, fp
    4e7a:	421a      	tst	r2, r3
    4e7c:	d10e      	bne.n	4e9c <__aeabi_ddiv+0x44c>
    4e7e:	465e      	mov	r6, fp
    4e80:	431e      	orrs	r6, r3
    4e82:	0336      	lsls	r6, r6, #12
    4e84:	0b36      	lsrs	r6, r6, #12
    4e86:	002a      	movs	r2, r5
    4e88:	4689      	mov	r9, r1
    4e8a:	4b7b      	ldr	r3, [pc, #492]	; (5078 <__aeabi_ddiv+0x628>)
    4e8c:	e646      	b.n	4b1c <__aeabi_ddiv+0xcc>
    4e8e:	2b03      	cmp	r3, #3
    4e90:	d100      	bne.n	4e94 <__aeabi_ddiv+0x444>
    4e92:	e0e1      	b.n	5058 <__aeabi_ddiv+0x608>
    4e94:	2b01      	cmp	r3, #1
    4e96:	d1bb      	bne.n	4e10 <__aeabi_ddiv+0x3c0>
    4e98:	401a      	ands	r2, r3
    4e9a:	e6bb      	b.n	4c14 <__aeabi_ddiv+0x1c4>
    4e9c:	431e      	orrs	r6, r3
    4e9e:	0336      	lsls	r6, r6, #12
    4ea0:	0b36      	lsrs	r6, r6, #12
    4ea2:	4642      	mov	r2, r8
    4ea4:	4b74      	ldr	r3, [pc, #464]	; (5078 <__aeabi_ddiv+0x628>)
    4ea6:	e639      	b.n	4b1c <__aeabi_ddiv+0xcc>
    4ea8:	2b00      	cmp	r3, #0
    4eaa:	d0b1      	beq.n	4e10 <__aeabi_ddiv+0x3c0>
    4eac:	197d      	adds	r5, r7, r5
    4eae:	1e4a      	subs	r2, r1, #1
    4eb0:	42af      	cmp	r7, r5
    4eb2:	d952      	bls.n	4f5a <__aeabi_ddiv+0x50a>
    4eb4:	0011      	movs	r1, r2
    4eb6:	42a5      	cmp	r5, r4
    4eb8:	d1a8      	bne.n	4e0c <__aeabi_ddiv+0x3bc>
    4eba:	9a03      	ldr	r2, [sp, #12]
    4ebc:	429a      	cmp	r2, r3
    4ebe:	d1a5      	bne.n	4e0c <__aeabi_ddiv+0x3bc>
    4ec0:	e7a6      	b.n	4e10 <__aeabi_ddiv+0x3c0>
    4ec2:	0003      	movs	r3, r0
    4ec4:	003e      	movs	r6, r7
    4ec6:	3b28      	subs	r3, #40	; 0x28
    4ec8:	409e      	lsls	r6, r3
    4eca:	2300      	movs	r3, #0
    4ecc:	4699      	mov	r9, r3
    4ece:	e654      	b.n	4b7a <__aeabi_ddiv+0x12a>
    4ed0:	f000 ff10 	bl	5cf4 <__clzsi2>
    4ed4:	3020      	adds	r0, #32
    4ed6:	e641      	b.n	4b5c <__aeabi_ddiv+0x10c>
    4ed8:	0003      	movs	r3, r0
    4eda:	4652      	mov	r2, sl
    4edc:	3b28      	subs	r3, #40	; 0x28
    4ede:	409a      	lsls	r2, r3
    4ee0:	2100      	movs	r1, #0
    4ee2:	4693      	mov	fp, r2
    4ee4:	e677      	b.n	4bd6 <__aeabi_ddiv+0x186>
    4ee6:	4650      	mov	r0, sl
    4ee8:	f000 ff04 	bl	5cf4 <__clzsi2>
    4eec:	3020      	adds	r0, #32
    4eee:	e65e      	b.n	4bae <__aeabi_ddiv+0x15e>
    4ef0:	9b02      	ldr	r3, [sp, #8]
    4ef2:	2600      	movs	r6, #0
    4ef4:	42ab      	cmp	r3, r5
    4ef6:	d300      	bcc.n	4efa <__aeabi_ddiv+0x4aa>
    4ef8:	e723      	b.n	4d42 <__aeabi_ddiv+0x2f2>
    4efa:	9e03      	ldr	r6, [sp, #12]
    4efc:	9902      	ldr	r1, [sp, #8]
    4efe:	46b4      	mov	ip, r6
    4f00:	4461      	add	r1, ip
    4f02:	4688      	mov	r8, r1
    4f04:	45b0      	cmp	r8, r6
    4f06:	41b6      	sbcs	r6, r6
    4f08:	465b      	mov	r3, fp
    4f0a:	4276      	negs	r6, r6
    4f0c:	19f6      	adds	r6, r6, r7
    4f0e:	18b2      	adds	r2, r6, r2
    4f10:	3b01      	subs	r3, #1
    4f12:	9102      	str	r1, [sp, #8]
    4f14:	4297      	cmp	r7, r2
    4f16:	d213      	bcs.n	4f40 <__aeabi_ddiv+0x4f0>
    4f18:	4290      	cmp	r0, r2
    4f1a:	d84f      	bhi.n	4fbc <__aeabi_ddiv+0x56c>
    4f1c:	d100      	bne.n	4f20 <__aeabi_ddiv+0x4d0>
    4f1e:	e08e      	b.n	503e <__aeabi_ddiv+0x5ee>
    4f20:	1a16      	subs	r6, r2, r0
    4f22:	469b      	mov	fp, r3
    4f24:	e70d      	b.n	4d42 <__aeabi_ddiv+0x2f2>
    4f26:	4589      	cmp	r9, r1
    4f28:	d200      	bcs.n	4f2c <__aeabi_ddiv+0x4dc>
    4f2a:	e68e      	b.n	4c4a <__aeabi_ddiv+0x1fa>
    4f2c:	0874      	lsrs	r4, r6, #1
    4f2e:	464b      	mov	r3, r9
    4f30:	07f6      	lsls	r6, r6, #31
    4f32:	0035      	movs	r5, r6
    4f34:	085b      	lsrs	r3, r3, #1
    4f36:	431d      	orrs	r5, r3
    4f38:	464b      	mov	r3, r9
    4f3a:	07db      	lsls	r3, r3, #31
    4f3c:	9302      	str	r3, [sp, #8]
    4f3e:	e68b      	b.n	4c58 <__aeabi_ddiv+0x208>
    4f40:	4297      	cmp	r7, r2
    4f42:	d1ed      	bne.n	4f20 <__aeabi_ddiv+0x4d0>
    4f44:	9903      	ldr	r1, [sp, #12]
    4f46:	9c02      	ldr	r4, [sp, #8]
    4f48:	42a1      	cmp	r1, r4
    4f4a:	d9e5      	bls.n	4f18 <__aeabi_ddiv+0x4c8>
    4f4c:	1a3e      	subs	r6, r7, r0
    4f4e:	469b      	mov	fp, r3
    4f50:	e6f7      	b.n	4d42 <__aeabi_ddiv+0x2f2>
    4f52:	4698      	mov	r8, r3
    4f54:	e6ca      	b.n	4cec <__aeabi_ddiv+0x29c>
    4f56:	001e      	movs	r6, r3
    4f58:	e6a5      	b.n	4ca6 <__aeabi_ddiv+0x256>
    4f5a:	42ac      	cmp	r4, r5
    4f5c:	d83e      	bhi.n	4fdc <__aeabi_ddiv+0x58c>
    4f5e:	d074      	beq.n	504a <__aeabi_ddiv+0x5fa>
    4f60:	0011      	movs	r1, r2
    4f62:	e753      	b.n	4e0c <__aeabi_ddiv+0x3bc>
    4f64:	2101      	movs	r1, #1
    4f66:	4249      	negs	r1, r1
    4f68:	e752      	b.n	4e10 <__aeabi_ddiv+0x3c0>
    4f6a:	001c      	movs	r4, r3
    4f6c:	e70e      	b.n	4d8c <__aeabi_ddiv+0x33c>
    4f6e:	001e      	movs	r6, r3
    4f70:	e72b      	b.n	4dca <__aeabi_ddiv+0x37a>
    4f72:	2d1f      	cmp	r5, #31
    4f74:	dc3c      	bgt.n	4ff0 <__aeabi_ddiv+0x5a0>
    4f76:	2320      	movs	r3, #32
    4f78:	000a      	movs	r2, r1
    4f7a:	4658      	mov	r0, fp
    4f7c:	1b5b      	subs	r3, r3, r5
    4f7e:	4098      	lsls	r0, r3
    4f80:	40ea      	lsrs	r2, r5
    4f82:	4099      	lsls	r1, r3
    4f84:	4302      	orrs	r2, r0
    4f86:	1e48      	subs	r0, r1, #1
    4f88:	4181      	sbcs	r1, r0
    4f8a:	465e      	mov	r6, fp
    4f8c:	4311      	orrs	r1, r2
    4f8e:	40ee      	lsrs	r6, r5
    4f90:	074b      	lsls	r3, r1, #29
    4f92:	d009      	beq.n	4fa8 <__aeabi_ddiv+0x558>
    4f94:	230f      	movs	r3, #15
    4f96:	400b      	ands	r3, r1
    4f98:	2b04      	cmp	r3, #4
    4f9a:	d005      	beq.n	4fa8 <__aeabi_ddiv+0x558>
    4f9c:	000b      	movs	r3, r1
    4f9e:	1d19      	adds	r1, r3, #4
    4fa0:	4299      	cmp	r1, r3
    4fa2:	419b      	sbcs	r3, r3
    4fa4:	425b      	negs	r3, r3
    4fa6:	18f6      	adds	r6, r6, r3
    4fa8:	0233      	lsls	r3, r6, #8
    4faa:	d53c      	bpl.n	5026 <__aeabi_ddiv+0x5d6>
    4fac:	4653      	mov	r3, sl
    4fae:	2201      	movs	r2, #1
    4fb0:	2100      	movs	r1, #0
    4fb2:	401a      	ands	r2, r3
    4fb4:	2600      	movs	r6, #0
    4fb6:	2301      	movs	r3, #1
    4fb8:	4689      	mov	r9, r1
    4fba:	e5af      	b.n	4b1c <__aeabi_ddiv+0xcc>
    4fbc:	2302      	movs	r3, #2
    4fbe:	425b      	negs	r3, r3
    4fc0:	469c      	mov	ip, r3
    4fc2:	9c03      	ldr	r4, [sp, #12]
    4fc4:	44e3      	add	fp, ip
    4fc6:	46a4      	mov	ip, r4
    4fc8:	9b02      	ldr	r3, [sp, #8]
    4fca:	4463      	add	r3, ip
    4fcc:	4698      	mov	r8, r3
    4fce:	45a0      	cmp	r8, r4
    4fd0:	41b6      	sbcs	r6, r6
    4fd2:	4276      	negs	r6, r6
    4fd4:	19f6      	adds	r6, r6, r7
    4fd6:	9302      	str	r3, [sp, #8]
    4fd8:	18b2      	adds	r2, r6, r2
    4fda:	e6b1      	b.n	4d40 <__aeabi_ddiv+0x2f0>
    4fdc:	9803      	ldr	r0, [sp, #12]
    4fde:	1e8a      	subs	r2, r1, #2
    4fe0:	0041      	lsls	r1, r0, #1
    4fe2:	4281      	cmp	r1, r0
    4fe4:	41b6      	sbcs	r6, r6
    4fe6:	4276      	negs	r6, r6
    4fe8:	19f6      	adds	r6, r6, r7
    4fea:	19ad      	adds	r5, r5, r6
    4fec:	9103      	str	r1, [sp, #12]
    4fee:	e761      	b.n	4eb4 <__aeabi_ddiv+0x464>
    4ff0:	221f      	movs	r2, #31
    4ff2:	4252      	negs	r2, r2
    4ff4:	1ad3      	subs	r3, r2, r3
    4ff6:	465a      	mov	r2, fp
    4ff8:	40da      	lsrs	r2, r3
    4ffa:	0013      	movs	r3, r2
    4ffc:	2d20      	cmp	r5, #32
    4ffe:	d029      	beq.n	5054 <__aeabi_ddiv+0x604>
    5000:	2240      	movs	r2, #64	; 0x40
    5002:	4658      	mov	r0, fp
    5004:	1b55      	subs	r5, r2, r5
    5006:	40a8      	lsls	r0, r5
    5008:	4301      	orrs	r1, r0
    500a:	1e48      	subs	r0, r1, #1
    500c:	4181      	sbcs	r1, r0
    500e:	2007      	movs	r0, #7
    5010:	430b      	orrs	r3, r1
    5012:	4018      	ands	r0, r3
    5014:	2600      	movs	r6, #0
    5016:	2800      	cmp	r0, #0
    5018:	d009      	beq.n	502e <__aeabi_ddiv+0x5de>
    501a:	220f      	movs	r2, #15
    501c:	2600      	movs	r6, #0
    501e:	401a      	ands	r2, r3
    5020:	0019      	movs	r1, r3
    5022:	2a04      	cmp	r2, #4
    5024:	d1bb      	bne.n	4f9e <__aeabi_ddiv+0x54e>
    5026:	000b      	movs	r3, r1
    5028:	0770      	lsls	r0, r6, #29
    502a:	0276      	lsls	r6, r6, #9
    502c:	0b36      	lsrs	r6, r6, #12
    502e:	08db      	lsrs	r3, r3, #3
    5030:	4303      	orrs	r3, r0
    5032:	4699      	mov	r9, r3
    5034:	2201      	movs	r2, #1
    5036:	4653      	mov	r3, sl
    5038:	401a      	ands	r2, r3
    503a:	2300      	movs	r3, #0
    503c:	e56e      	b.n	4b1c <__aeabi_ddiv+0xcc>
    503e:	9902      	ldr	r1, [sp, #8]
    5040:	428d      	cmp	r5, r1
    5042:	d8bb      	bhi.n	4fbc <__aeabi_ddiv+0x56c>
    5044:	469b      	mov	fp, r3
    5046:	2600      	movs	r6, #0
    5048:	e67b      	b.n	4d42 <__aeabi_ddiv+0x2f2>
    504a:	9803      	ldr	r0, [sp, #12]
    504c:	4298      	cmp	r0, r3
    504e:	d3c5      	bcc.n	4fdc <__aeabi_ddiv+0x58c>
    5050:	0011      	movs	r1, r2
    5052:	e732      	b.n	4eba <__aeabi_ddiv+0x46a>
    5054:	2000      	movs	r0, #0
    5056:	e7d7      	b.n	5008 <__aeabi_ddiv+0x5b8>
    5058:	2680      	movs	r6, #128	; 0x80
    505a:	465b      	mov	r3, fp
    505c:	0336      	lsls	r6, r6, #12
    505e:	431e      	orrs	r6, r3
    5060:	0336      	lsls	r6, r6, #12
    5062:	0b36      	lsrs	r6, r6, #12
    5064:	9a00      	ldr	r2, [sp, #0]
    5066:	4689      	mov	r9, r1
    5068:	4b03      	ldr	r3, [pc, #12]	; (5078 <__aeabi_ddiv+0x628>)
    506a:	e557      	b.n	4b1c <__aeabi_ddiv+0xcc>
    506c:	000003ff 	.word	0x000003ff
    5070:	feffffff 	.word	0xfeffffff
    5074:	000007fe 	.word	0x000007fe
    5078:	000007ff 	.word	0x000007ff

0000507c <__aeabi_dmul>:
    507c:	b5f0      	push	{r4, r5, r6, r7, lr}
    507e:	465f      	mov	r7, fp
    5080:	4656      	mov	r6, sl
    5082:	464d      	mov	r5, r9
    5084:	4644      	mov	r4, r8
    5086:	b4f0      	push	{r4, r5, r6, r7}
    5088:	030d      	lsls	r5, r1, #12
    508a:	4699      	mov	r9, r3
    508c:	004e      	lsls	r6, r1, #1
    508e:	0b2b      	lsrs	r3, r5, #12
    5090:	b087      	sub	sp, #28
    5092:	0007      	movs	r7, r0
    5094:	4692      	mov	sl, r2
    5096:	4680      	mov	r8, r0
    5098:	469b      	mov	fp, r3
    509a:	0d76      	lsrs	r6, r6, #21
    509c:	0fcc      	lsrs	r4, r1, #31
    509e:	2e00      	cmp	r6, #0
    50a0:	d069      	beq.n	5176 <__aeabi_dmul+0xfa>
    50a2:	4b6d      	ldr	r3, [pc, #436]	; (5258 <__aeabi_dmul+0x1dc>)
    50a4:	429e      	cmp	r6, r3
    50a6:	d035      	beq.n	5114 <__aeabi_dmul+0x98>
    50a8:	465b      	mov	r3, fp
    50aa:	2280      	movs	r2, #128	; 0x80
    50ac:	00dd      	lsls	r5, r3, #3
    50ae:	0412      	lsls	r2, r2, #16
    50b0:	0f43      	lsrs	r3, r0, #29
    50b2:	4313      	orrs	r3, r2
    50b4:	432b      	orrs	r3, r5
    50b6:	469b      	mov	fp, r3
    50b8:	00c3      	lsls	r3, r0, #3
    50ba:	4698      	mov	r8, r3
    50bc:	4b67      	ldr	r3, [pc, #412]	; (525c <__aeabi_dmul+0x1e0>)
    50be:	2700      	movs	r7, #0
    50c0:	469c      	mov	ip, r3
    50c2:	2300      	movs	r3, #0
    50c4:	4466      	add	r6, ip
    50c6:	9301      	str	r3, [sp, #4]
    50c8:	464a      	mov	r2, r9
    50ca:	0315      	lsls	r5, r2, #12
    50cc:	0050      	lsls	r0, r2, #1
    50ce:	0fd2      	lsrs	r2, r2, #31
    50d0:	4653      	mov	r3, sl
    50d2:	0b2d      	lsrs	r5, r5, #12
    50d4:	0d40      	lsrs	r0, r0, #21
    50d6:	4691      	mov	r9, r2
    50d8:	d100      	bne.n	50dc <__aeabi_dmul+0x60>
    50da:	e076      	b.n	51ca <__aeabi_dmul+0x14e>
    50dc:	4a5e      	ldr	r2, [pc, #376]	; (5258 <__aeabi_dmul+0x1dc>)
    50de:	4290      	cmp	r0, r2
    50e0:	d06c      	beq.n	51bc <__aeabi_dmul+0x140>
    50e2:	2280      	movs	r2, #128	; 0x80
    50e4:	0f5b      	lsrs	r3, r3, #29
    50e6:	0412      	lsls	r2, r2, #16
    50e8:	4313      	orrs	r3, r2
    50ea:	4a5c      	ldr	r2, [pc, #368]	; (525c <__aeabi_dmul+0x1e0>)
    50ec:	00ed      	lsls	r5, r5, #3
    50ee:	4694      	mov	ip, r2
    50f0:	431d      	orrs	r5, r3
    50f2:	4653      	mov	r3, sl
    50f4:	2200      	movs	r2, #0
    50f6:	00db      	lsls	r3, r3, #3
    50f8:	4460      	add	r0, ip
    50fa:	4649      	mov	r1, r9
    50fc:	1836      	adds	r6, r6, r0
    50fe:	1c70      	adds	r0, r6, #1
    5100:	4061      	eors	r1, r4
    5102:	9002      	str	r0, [sp, #8]
    5104:	4317      	orrs	r7, r2
    5106:	2f0f      	cmp	r7, #15
    5108:	d900      	bls.n	510c <__aeabi_dmul+0x90>
    510a:	e0af      	b.n	526c <__aeabi_dmul+0x1f0>
    510c:	4854      	ldr	r0, [pc, #336]	; (5260 <__aeabi_dmul+0x1e4>)
    510e:	00bf      	lsls	r7, r7, #2
    5110:	59c7      	ldr	r7, [r0, r7]
    5112:	46bf      	mov	pc, r7
    5114:	465b      	mov	r3, fp
    5116:	431f      	orrs	r7, r3
    5118:	d000      	beq.n	511c <__aeabi_dmul+0xa0>
    511a:	e088      	b.n	522e <__aeabi_dmul+0x1b2>
    511c:	2300      	movs	r3, #0
    511e:	469b      	mov	fp, r3
    5120:	4698      	mov	r8, r3
    5122:	3302      	adds	r3, #2
    5124:	2708      	movs	r7, #8
    5126:	9301      	str	r3, [sp, #4]
    5128:	e7ce      	b.n	50c8 <__aeabi_dmul+0x4c>
    512a:	4649      	mov	r1, r9
    512c:	2a02      	cmp	r2, #2
    512e:	d06a      	beq.n	5206 <__aeabi_dmul+0x18a>
    5130:	2a03      	cmp	r2, #3
    5132:	d100      	bne.n	5136 <__aeabi_dmul+0xba>
    5134:	e209      	b.n	554a <__aeabi_dmul+0x4ce>
    5136:	2a01      	cmp	r2, #1
    5138:	d000      	beq.n	513c <__aeabi_dmul+0xc0>
    513a:	e1bb      	b.n	54b4 <__aeabi_dmul+0x438>
    513c:	4011      	ands	r1, r2
    513e:	2200      	movs	r2, #0
    5140:	2300      	movs	r3, #0
    5142:	2500      	movs	r5, #0
    5144:	4690      	mov	r8, r2
    5146:	b2cc      	uxtb	r4, r1
    5148:	2100      	movs	r1, #0
    514a:	032d      	lsls	r5, r5, #12
    514c:	0d0a      	lsrs	r2, r1, #20
    514e:	0512      	lsls	r2, r2, #20
    5150:	0b2d      	lsrs	r5, r5, #12
    5152:	4315      	orrs	r5, r2
    5154:	4a43      	ldr	r2, [pc, #268]	; (5264 <__aeabi_dmul+0x1e8>)
    5156:	051b      	lsls	r3, r3, #20
    5158:	4015      	ands	r5, r2
    515a:	431d      	orrs	r5, r3
    515c:	006d      	lsls	r5, r5, #1
    515e:	07e4      	lsls	r4, r4, #31
    5160:	086d      	lsrs	r5, r5, #1
    5162:	4325      	orrs	r5, r4
    5164:	4640      	mov	r0, r8
    5166:	0029      	movs	r1, r5
    5168:	b007      	add	sp, #28
    516a:	bc3c      	pop	{r2, r3, r4, r5}
    516c:	4690      	mov	r8, r2
    516e:	4699      	mov	r9, r3
    5170:	46a2      	mov	sl, r4
    5172:	46ab      	mov	fp, r5
    5174:	bdf0      	pop	{r4, r5, r6, r7, pc}
    5176:	4303      	orrs	r3, r0
    5178:	d052      	beq.n	5220 <__aeabi_dmul+0x1a4>
    517a:	465b      	mov	r3, fp
    517c:	2b00      	cmp	r3, #0
    517e:	d100      	bne.n	5182 <__aeabi_dmul+0x106>
    5180:	e18a      	b.n	5498 <__aeabi_dmul+0x41c>
    5182:	4658      	mov	r0, fp
    5184:	f000 fdb6 	bl	5cf4 <__clzsi2>
    5188:	0003      	movs	r3, r0
    518a:	3b0b      	subs	r3, #11
    518c:	2b1c      	cmp	r3, #28
    518e:	dd00      	ble.n	5192 <__aeabi_dmul+0x116>
    5190:	e17b      	b.n	548a <__aeabi_dmul+0x40e>
    5192:	221d      	movs	r2, #29
    5194:	1ad3      	subs	r3, r2, r3
    5196:	003a      	movs	r2, r7
    5198:	0001      	movs	r1, r0
    519a:	465d      	mov	r5, fp
    519c:	40da      	lsrs	r2, r3
    519e:	3908      	subs	r1, #8
    51a0:	408d      	lsls	r5, r1
    51a2:	0013      	movs	r3, r2
    51a4:	408f      	lsls	r7, r1
    51a6:	432b      	orrs	r3, r5
    51a8:	469b      	mov	fp, r3
    51aa:	46b8      	mov	r8, r7
    51ac:	4b2e      	ldr	r3, [pc, #184]	; (5268 <__aeabi_dmul+0x1ec>)
    51ae:	2700      	movs	r7, #0
    51b0:	469c      	mov	ip, r3
    51b2:	2300      	movs	r3, #0
    51b4:	4460      	add	r0, ip
    51b6:	4246      	negs	r6, r0
    51b8:	9301      	str	r3, [sp, #4]
    51ba:	e785      	b.n	50c8 <__aeabi_dmul+0x4c>
    51bc:	4652      	mov	r2, sl
    51be:	432a      	orrs	r2, r5
    51c0:	d12c      	bne.n	521c <__aeabi_dmul+0x1a0>
    51c2:	2500      	movs	r5, #0
    51c4:	2300      	movs	r3, #0
    51c6:	2202      	movs	r2, #2
    51c8:	e797      	b.n	50fa <__aeabi_dmul+0x7e>
    51ca:	4652      	mov	r2, sl
    51cc:	432a      	orrs	r2, r5
    51ce:	d021      	beq.n	5214 <__aeabi_dmul+0x198>
    51d0:	2d00      	cmp	r5, #0
    51d2:	d100      	bne.n	51d6 <__aeabi_dmul+0x15a>
    51d4:	e154      	b.n	5480 <__aeabi_dmul+0x404>
    51d6:	0028      	movs	r0, r5
    51d8:	f000 fd8c 	bl	5cf4 <__clzsi2>
    51dc:	0003      	movs	r3, r0
    51de:	3b0b      	subs	r3, #11
    51e0:	2b1c      	cmp	r3, #28
    51e2:	dd00      	ble.n	51e6 <__aeabi_dmul+0x16a>
    51e4:	e146      	b.n	5474 <__aeabi_dmul+0x3f8>
    51e6:	211d      	movs	r1, #29
    51e8:	1acb      	subs	r3, r1, r3
    51ea:	4651      	mov	r1, sl
    51ec:	0002      	movs	r2, r0
    51ee:	40d9      	lsrs	r1, r3
    51f0:	4653      	mov	r3, sl
    51f2:	3a08      	subs	r2, #8
    51f4:	4095      	lsls	r5, r2
    51f6:	4093      	lsls	r3, r2
    51f8:	430d      	orrs	r5, r1
    51fa:	4a1b      	ldr	r2, [pc, #108]	; (5268 <__aeabi_dmul+0x1ec>)
    51fc:	4694      	mov	ip, r2
    51fe:	4460      	add	r0, ip
    5200:	4240      	negs	r0, r0
    5202:	2200      	movs	r2, #0
    5204:	e779      	b.n	50fa <__aeabi_dmul+0x7e>
    5206:	2401      	movs	r4, #1
    5208:	2200      	movs	r2, #0
    520a:	400c      	ands	r4, r1
    520c:	4b12      	ldr	r3, [pc, #72]	; (5258 <__aeabi_dmul+0x1dc>)
    520e:	2500      	movs	r5, #0
    5210:	4690      	mov	r8, r2
    5212:	e799      	b.n	5148 <__aeabi_dmul+0xcc>
    5214:	2500      	movs	r5, #0
    5216:	2300      	movs	r3, #0
    5218:	2201      	movs	r2, #1
    521a:	e76e      	b.n	50fa <__aeabi_dmul+0x7e>
    521c:	2203      	movs	r2, #3
    521e:	e76c      	b.n	50fa <__aeabi_dmul+0x7e>
    5220:	2300      	movs	r3, #0
    5222:	469b      	mov	fp, r3
    5224:	4698      	mov	r8, r3
    5226:	3301      	adds	r3, #1
    5228:	2704      	movs	r7, #4
    522a:	9301      	str	r3, [sp, #4]
    522c:	e74c      	b.n	50c8 <__aeabi_dmul+0x4c>
    522e:	2303      	movs	r3, #3
    5230:	270c      	movs	r7, #12
    5232:	9301      	str	r3, [sp, #4]
    5234:	e748      	b.n	50c8 <__aeabi_dmul+0x4c>
    5236:	2300      	movs	r3, #0
    5238:	2580      	movs	r5, #128	; 0x80
    523a:	4698      	mov	r8, r3
    523c:	2400      	movs	r4, #0
    523e:	032d      	lsls	r5, r5, #12
    5240:	4b05      	ldr	r3, [pc, #20]	; (5258 <__aeabi_dmul+0x1dc>)
    5242:	e781      	b.n	5148 <__aeabi_dmul+0xcc>
    5244:	465d      	mov	r5, fp
    5246:	4643      	mov	r3, r8
    5248:	9a01      	ldr	r2, [sp, #4]
    524a:	e76f      	b.n	512c <__aeabi_dmul+0xb0>
    524c:	465d      	mov	r5, fp
    524e:	4643      	mov	r3, r8
    5250:	0021      	movs	r1, r4
    5252:	9a01      	ldr	r2, [sp, #4]
    5254:	e76a      	b.n	512c <__aeabi_dmul+0xb0>
    5256:	46c0      	nop			; (mov r8, r8)
    5258:	000007ff 	.word	0x000007ff
    525c:	fffffc01 	.word	0xfffffc01
    5260:	00006758 	.word	0x00006758
    5264:	800fffff 	.word	0x800fffff
    5268:	000003f3 	.word	0x000003f3
    526c:	4642      	mov	r2, r8
    526e:	0c12      	lsrs	r2, r2, #16
    5270:	4691      	mov	r9, r2
    5272:	0c1a      	lsrs	r2, r3, #16
    5274:	4694      	mov	ip, r2
    5276:	4642      	mov	r2, r8
    5278:	0417      	lsls	r7, r2, #16
    527a:	464a      	mov	r2, r9
    527c:	041b      	lsls	r3, r3, #16
    527e:	0c1b      	lsrs	r3, r3, #16
    5280:	435a      	muls	r2, r3
    5282:	4660      	mov	r0, ip
    5284:	4690      	mov	r8, r2
    5286:	464a      	mov	r2, r9
    5288:	4342      	muls	r2, r0
    528a:	0010      	movs	r0, r2
    528c:	9203      	str	r2, [sp, #12]
    528e:	4662      	mov	r2, ip
    5290:	001c      	movs	r4, r3
    5292:	0c3f      	lsrs	r7, r7, #16
    5294:	437a      	muls	r2, r7
    5296:	437c      	muls	r4, r7
    5298:	4442      	add	r2, r8
    529a:	9201      	str	r2, [sp, #4]
    529c:	0c22      	lsrs	r2, r4, #16
    529e:	4692      	mov	sl, r2
    52a0:	9a01      	ldr	r2, [sp, #4]
    52a2:	4452      	add	r2, sl
    52a4:	4590      	cmp	r8, r2
    52a6:	d906      	bls.n	52b6 <__aeabi_dmul+0x23a>
    52a8:	4682      	mov	sl, r0
    52aa:	2080      	movs	r0, #128	; 0x80
    52ac:	0240      	lsls	r0, r0, #9
    52ae:	4680      	mov	r8, r0
    52b0:	44c2      	add	sl, r8
    52b2:	4650      	mov	r0, sl
    52b4:	9003      	str	r0, [sp, #12]
    52b6:	0c10      	lsrs	r0, r2, #16
    52b8:	9004      	str	r0, [sp, #16]
    52ba:	4648      	mov	r0, r9
    52bc:	0424      	lsls	r4, r4, #16
    52be:	0c24      	lsrs	r4, r4, #16
    52c0:	0412      	lsls	r2, r2, #16
    52c2:	1912      	adds	r2, r2, r4
    52c4:	9205      	str	r2, [sp, #20]
    52c6:	0c2a      	lsrs	r2, r5, #16
    52c8:	042d      	lsls	r5, r5, #16
    52ca:	0c2d      	lsrs	r5, r5, #16
    52cc:	4368      	muls	r0, r5
    52ce:	002c      	movs	r4, r5
    52d0:	4682      	mov	sl, r0
    52d2:	4648      	mov	r0, r9
    52d4:	437c      	muls	r4, r7
    52d6:	4350      	muls	r0, r2
    52d8:	4681      	mov	r9, r0
    52da:	0c20      	lsrs	r0, r4, #16
    52dc:	4680      	mov	r8, r0
    52de:	4357      	muls	r7, r2
    52e0:	4457      	add	r7, sl
    52e2:	4447      	add	r7, r8
    52e4:	45ba      	cmp	sl, r7
    52e6:	d903      	bls.n	52f0 <__aeabi_dmul+0x274>
    52e8:	2080      	movs	r0, #128	; 0x80
    52ea:	0240      	lsls	r0, r0, #9
    52ec:	4680      	mov	r8, r0
    52ee:	44c1      	add	r9, r8
    52f0:	0c38      	lsrs	r0, r7, #16
    52f2:	043f      	lsls	r7, r7, #16
    52f4:	46b8      	mov	r8, r7
    52f6:	4448      	add	r0, r9
    52f8:	0424      	lsls	r4, r4, #16
    52fa:	0c24      	lsrs	r4, r4, #16
    52fc:	9001      	str	r0, [sp, #4]
    52fe:	9804      	ldr	r0, [sp, #16]
    5300:	44a0      	add	r8, r4
    5302:	4440      	add	r0, r8
    5304:	9004      	str	r0, [sp, #16]
    5306:	4658      	mov	r0, fp
    5308:	0c00      	lsrs	r0, r0, #16
    530a:	4681      	mov	r9, r0
    530c:	4658      	mov	r0, fp
    530e:	0404      	lsls	r4, r0, #16
    5310:	0c20      	lsrs	r0, r4, #16
    5312:	4682      	mov	sl, r0
    5314:	0007      	movs	r7, r0
    5316:	4648      	mov	r0, r9
    5318:	435f      	muls	r7, r3
    531a:	464c      	mov	r4, r9
    531c:	4343      	muls	r3, r0
    531e:	4660      	mov	r0, ip
    5320:	4360      	muls	r0, r4
    5322:	4664      	mov	r4, ip
    5324:	4683      	mov	fp, r0
    5326:	4650      	mov	r0, sl
    5328:	4344      	muls	r4, r0
    532a:	0c38      	lsrs	r0, r7, #16
    532c:	4684      	mov	ip, r0
    532e:	18e4      	adds	r4, r4, r3
    5330:	4464      	add	r4, ip
    5332:	42a3      	cmp	r3, r4
    5334:	d903      	bls.n	533e <__aeabi_dmul+0x2c2>
    5336:	2380      	movs	r3, #128	; 0x80
    5338:	025b      	lsls	r3, r3, #9
    533a:	469c      	mov	ip, r3
    533c:	44e3      	add	fp, ip
    533e:	4648      	mov	r0, r9
    5340:	043f      	lsls	r7, r7, #16
    5342:	0c23      	lsrs	r3, r4, #16
    5344:	0c3f      	lsrs	r7, r7, #16
    5346:	0424      	lsls	r4, r4, #16
    5348:	19e4      	adds	r4, r4, r7
    534a:	4657      	mov	r7, sl
    534c:	4368      	muls	r0, r5
    534e:	436f      	muls	r7, r5
    5350:	4684      	mov	ip, r0
    5352:	464d      	mov	r5, r9
    5354:	4650      	mov	r0, sl
    5356:	4355      	muls	r5, r2
    5358:	4342      	muls	r2, r0
    535a:	0c38      	lsrs	r0, r7, #16
    535c:	4681      	mov	r9, r0
    535e:	4462      	add	r2, ip
    5360:	444a      	add	r2, r9
    5362:	445b      	add	r3, fp
    5364:	4594      	cmp	ip, r2
    5366:	d903      	bls.n	5370 <__aeabi_dmul+0x2f4>
    5368:	2080      	movs	r0, #128	; 0x80
    536a:	0240      	lsls	r0, r0, #9
    536c:	4684      	mov	ip, r0
    536e:	4465      	add	r5, ip
    5370:	9803      	ldr	r0, [sp, #12]
    5372:	043f      	lsls	r7, r7, #16
    5374:	4683      	mov	fp, r0
    5376:	9804      	ldr	r0, [sp, #16]
    5378:	0c3f      	lsrs	r7, r7, #16
    537a:	4684      	mov	ip, r0
    537c:	44e3      	add	fp, ip
    537e:	45c3      	cmp	fp, r8
    5380:	4180      	sbcs	r0, r0
    5382:	4240      	negs	r0, r0
    5384:	4682      	mov	sl, r0
    5386:	0410      	lsls	r0, r2, #16
    5388:	4684      	mov	ip, r0
    538a:	9801      	ldr	r0, [sp, #4]
    538c:	4467      	add	r7, ip
    538e:	4684      	mov	ip, r0
    5390:	4467      	add	r7, ip
    5392:	44a3      	add	fp, r4
    5394:	46bc      	mov	ip, r7
    5396:	45a3      	cmp	fp, r4
    5398:	41a4      	sbcs	r4, r4
    539a:	4699      	mov	r9, r3
    539c:	44d4      	add	ip, sl
    539e:	4264      	negs	r4, r4
    53a0:	4287      	cmp	r7, r0
    53a2:	41bf      	sbcs	r7, r7
    53a4:	45d4      	cmp	ip, sl
    53a6:	4180      	sbcs	r0, r0
    53a8:	44e1      	add	r9, ip
    53aa:	46a0      	mov	r8, r4
    53ac:	4599      	cmp	r9, r3
    53ae:	419b      	sbcs	r3, r3
    53b0:	427f      	negs	r7, r7
    53b2:	4240      	negs	r0, r0
    53b4:	44c8      	add	r8, r9
    53b6:	4307      	orrs	r7, r0
    53b8:	0c12      	lsrs	r2, r2, #16
    53ba:	18ba      	adds	r2, r7, r2
    53bc:	45a0      	cmp	r8, r4
    53be:	41a4      	sbcs	r4, r4
    53c0:	425f      	negs	r7, r3
    53c2:	003b      	movs	r3, r7
    53c4:	4264      	negs	r4, r4
    53c6:	4323      	orrs	r3, r4
    53c8:	18d7      	adds	r7, r2, r3
    53ca:	4643      	mov	r3, r8
    53cc:	197d      	adds	r5, r7, r5
    53ce:	0ddb      	lsrs	r3, r3, #23
    53d0:	026d      	lsls	r5, r5, #9
    53d2:	431d      	orrs	r5, r3
    53d4:	465b      	mov	r3, fp
    53d6:	025a      	lsls	r2, r3, #9
    53d8:	9b05      	ldr	r3, [sp, #20]
    53da:	431a      	orrs	r2, r3
    53dc:	1e53      	subs	r3, r2, #1
    53de:	419a      	sbcs	r2, r3
    53e0:	465b      	mov	r3, fp
    53e2:	0ddb      	lsrs	r3, r3, #23
    53e4:	431a      	orrs	r2, r3
    53e6:	4643      	mov	r3, r8
    53e8:	025b      	lsls	r3, r3, #9
    53ea:	4313      	orrs	r3, r2
    53ec:	01ea      	lsls	r2, r5, #7
    53ee:	d507      	bpl.n	5400 <__aeabi_dmul+0x384>
    53f0:	2201      	movs	r2, #1
    53f2:	085c      	lsrs	r4, r3, #1
    53f4:	4013      	ands	r3, r2
    53f6:	4323      	orrs	r3, r4
    53f8:	07ea      	lsls	r2, r5, #31
    53fa:	9e02      	ldr	r6, [sp, #8]
    53fc:	4313      	orrs	r3, r2
    53fe:	086d      	lsrs	r5, r5, #1
    5400:	4a57      	ldr	r2, [pc, #348]	; (5560 <__aeabi_dmul+0x4e4>)
    5402:	18b2      	adds	r2, r6, r2
    5404:	2a00      	cmp	r2, #0
    5406:	dd4b      	ble.n	54a0 <__aeabi_dmul+0x424>
    5408:	0758      	lsls	r0, r3, #29
    540a:	d009      	beq.n	5420 <__aeabi_dmul+0x3a4>
    540c:	200f      	movs	r0, #15
    540e:	4018      	ands	r0, r3
    5410:	2804      	cmp	r0, #4
    5412:	d005      	beq.n	5420 <__aeabi_dmul+0x3a4>
    5414:	1d18      	adds	r0, r3, #4
    5416:	4298      	cmp	r0, r3
    5418:	419b      	sbcs	r3, r3
    541a:	425b      	negs	r3, r3
    541c:	18ed      	adds	r5, r5, r3
    541e:	0003      	movs	r3, r0
    5420:	01e8      	lsls	r0, r5, #7
    5422:	d504      	bpl.n	542e <__aeabi_dmul+0x3b2>
    5424:	4a4f      	ldr	r2, [pc, #316]	; (5564 <__aeabi_dmul+0x4e8>)
    5426:	4015      	ands	r5, r2
    5428:	2280      	movs	r2, #128	; 0x80
    542a:	00d2      	lsls	r2, r2, #3
    542c:	18b2      	adds	r2, r6, r2
    542e:	484e      	ldr	r0, [pc, #312]	; (5568 <__aeabi_dmul+0x4ec>)
    5430:	4282      	cmp	r2, r0
    5432:	dd00      	ble.n	5436 <__aeabi_dmul+0x3ba>
    5434:	e6e7      	b.n	5206 <__aeabi_dmul+0x18a>
    5436:	2401      	movs	r4, #1
    5438:	08db      	lsrs	r3, r3, #3
    543a:	0768      	lsls	r0, r5, #29
    543c:	4318      	orrs	r0, r3
    543e:	026d      	lsls	r5, r5, #9
    5440:	0553      	lsls	r3, r2, #21
    5442:	4680      	mov	r8, r0
    5444:	0b2d      	lsrs	r5, r5, #12
    5446:	0d5b      	lsrs	r3, r3, #21
    5448:	400c      	ands	r4, r1
    544a:	e67d      	b.n	5148 <__aeabi_dmul+0xcc>
    544c:	2280      	movs	r2, #128	; 0x80
    544e:	4659      	mov	r1, fp
    5450:	0312      	lsls	r2, r2, #12
    5452:	4211      	tst	r1, r2
    5454:	d008      	beq.n	5468 <__aeabi_dmul+0x3ec>
    5456:	4215      	tst	r5, r2
    5458:	d106      	bne.n	5468 <__aeabi_dmul+0x3ec>
    545a:	4315      	orrs	r5, r2
    545c:	032d      	lsls	r5, r5, #12
    545e:	4698      	mov	r8, r3
    5460:	0b2d      	lsrs	r5, r5, #12
    5462:	464c      	mov	r4, r9
    5464:	4b41      	ldr	r3, [pc, #260]	; (556c <__aeabi_dmul+0x4f0>)
    5466:	e66f      	b.n	5148 <__aeabi_dmul+0xcc>
    5468:	465d      	mov	r5, fp
    546a:	4315      	orrs	r5, r2
    546c:	032d      	lsls	r5, r5, #12
    546e:	0b2d      	lsrs	r5, r5, #12
    5470:	4b3e      	ldr	r3, [pc, #248]	; (556c <__aeabi_dmul+0x4f0>)
    5472:	e669      	b.n	5148 <__aeabi_dmul+0xcc>
    5474:	0003      	movs	r3, r0
    5476:	4655      	mov	r5, sl
    5478:	3b28      	subs	r3, #40	; 0x28
    547a:	409d      	lsls	r5, r3
    547c:	2300      	movs	r3, #0
    547e:	e6bc      	b.n	51fa <__aeabi_dmul+0x17e>
    5480:	4650      	mov	r0, sl
    5482:	f000 fc37 	bl	5cf4 <__clzsi2>
    5486:	3020      	adds	r0, #32
    5488:	e6a8      	b.n	51dc <__aeabi_dmul+0x160>
    548a:	0003      	movs	r3, r0
    548c:	3b28      	subs	r3, #40	; 0x28
    548e:	409f      	lsls	r7, r3
    5490:	2300      	movs	r3, #0
    5492:	46bb      	mov	fp, r7
    5494:	4698      	mov	r8, r3
    5496:	e689      	b.n	51ac <__aeabi_dmul+0x130>
    5498:	f000 fc2c 	bl	5cf4 <__clzsi2>
    549c:	3020      	adds	r0, #32
    549e:	e673      	b.n	5188 <__aeabi_dmul+0x10c>
    54a0:	2401      	movs	r4, #1
    54a2:	1aa6      	subs	r6, r4, r2
    54a4:	2e38      	cmp	r6, #56	; 0x38
    54a6:	dd07      	ble.n	54b8 <__aeabi_dmul+0x43c>
    54a8:	2200      	movs	r2, #0
    54aa:	400c      	ands	r4, r1
    54ac:	2300      	movs	r3, #0
    54ae:	2500      	movs	r5, #0
    54b0:	4690      	mov	r8, r2
    54b2:	e649      	b.n	5148 <__aeabi_dmul+0xcc>
    54b4:	9e02      	ldr	r6, [sp, #8]
    54b6:	e7a3      	b.n	5400 <__aeabi_dmul+0x384>
    54b8:	2e1f      	cmp	r6, #31
    54ba:	dc20      	bgt.n	54fe <__aeabi_dmul+0x482>
    54bc:	2220      	movs	r2, #32
    54be:	002c      	movs	r4, r5
    54c0:	0018      	movs	r0, r3
    54c2:	1b92      	subs	r2, r2, r6
    54c4:	40f0      	lsrs	r0, r6
    54c6:	4094      	lsls	r4, r2
    54c8:	4093      	lsls	r3, r2
    54ca:	4304      	orrs	r4, r0
    54cc:	1e58      	subs	r0, r3, #1
    54ce:	4183      	sbcs	r3, r0
    54d0:	431c      	orrs	r4, r3
    54d2:	40f5      	lsrs	r5, r6
    54d4:	0763      	lsls	r3, r4, #29
    54d6:	d009      	beq.n	54ec <__aeabi_dmul+0x470>
    54d8:	230f      	movs	r3, #15
    54da:	4023      	ands	r3, r4
    54dc:	2b04      	cmp	r3, #4
    54de:	d005      	beq.n	54ec <__aeabi_dmul+0x470>
    54e0:	0023      	movs	r3, r4
    54e2:	1d1c      	adds	r4, r3, #4
    54e4:	429c      	cmp	r4, r3
    54e6:	4192      	sbcs	r2, r2
    54e8:	4252      	negs	r2, r2
    54ea:	18ad      	adds	r5, r5, r2
    54ec:	022b      	lsls	r3, r5, #8
    54ee:	d51f      	bpl.n	5530 <__aeabi_dmul+0x4b4>
    54f0:	2401      	movs	r4, #1
    54f2:	2200      	movs	r2, #0
    54f4:	400c      	ands	r4, r1
    54f6:	2301      	movs	r3, #1
    54f8:	2500      	movs	r5, #0
    54fa:	4690      	mov	r8, r2
    54fc:	e624      	b.n	5148 <__aeabi_dmul+0xcc>
    54fe:	201f      	movs	r0, #31
    5500:	002c      	movs	r4, r5
    5502:	4240      	negs	r0, r0
    5504:	1a82      	subs	r2, r0, r2
    5506:	40d4      	lsrs	r4, r2
    5508:	2e20      	cmp	r6, #32
    550a:	d01c      	beq.n	5546 <__aeabi_dmul+0x4ca>
    550c:	2240      	movs	r2, #64	; 0x40
    550e:	1b96      	subs	r6, r2, r6
    5510:	40b5      	lsls	r5, r6
    5512:	432b      	orrs	r3, r5
    5514:	1e58      	subs	r0, r3, #1
    5516:	4183      	sbcs	r3, r0
    5518:	2007      	movs	r0, #7
    551a:	4323      	orrs	r3, r4
    551c:	4018      	ands	r0, r3
    551e:	2500      	movs	r5, #0
    5520:	2800      	cmp	r0, #0
    5522:	d009      	beq.n	5538 <__aeabi_dmul+0x4bc>
    5524:	220f      	movs	r2, #15
    5526:	2500      	movs	r5, #0
    5528:	401a      	ands	r2, r3
    552a:	001c      	movs	r4, r3
    552c:	2a04      	cmp	r2, #4
    552e:	d1d8      	bne.n	54e2 <__aeabi_dmul+0x466>
    5530:	0023      	movs	r3, r4
    5532:	0768      	lsls	r0, r5, #29
    5534:	026d      	lsls	r5, r5, #9
    5536:	0b2d      	lsrs	r5, r5, #12
    5538:	2401      	movs	r4, #1
    553a:	08db      	lsrs	r3, r3, #3
    553c:	4303      	orrs	r3, r0
    553e:	4698      	mov	r8, r3
    5540:	400c      	ands	r4, r1
    5542:	2300      	movs	r3, #0
    5544:	e600      	b.n	5148 <__aeabi_dmul+0xcc>
    5546:	2500      	movs	r5, #0
    5548:	e7e3      	b.n	5512 <__aeabi_dmul+0x496>
    554a:	2280      	movs	r2, #128	; 0x80
    554c:	2401      	movs	r4, #1
    554e:	0312      	lsls	r2, r2, #12
    5550:	4315      	orrs	r5, r2
    5552:	032d      	lsls	r5, r5, #12
    5554:	4698      	mov	r8, r3
    5556:	0b2d      	lsrs	r5, r5, #12
    5558:	400c      	ands	r4, r1
    555a:	4b04      	ldr	r3, [pc, #16]	; (556c <__aeabi_dmul+0x4f0>)
    555c:	e5f4      	b.n	5148 <__aeabi_dmul+0xcc>
    555e:	46c0      	nop			; (mov r8, r8)
    5560:	000003ff 	.word	0x000003ff
    5564:	feffffff 	.word	0xfeffffff
    5568:	000007fe 	.word	0x000007fe
    556c:	000007ff 	.word	0x000007ff

00005570 <__aeabi_dsub>:
    5570:	b5f0      	push	{r4, r5, r6, r7, lr}
    5572:	4657      	mov	r7, sl
    5574:	464e      	mov	r6, r9
    5576:	4645      	mov	r5, r8
    5578:	b4e0      	push	{r5, r6, r7}
    557a:	000e      	movs	r6, r1
    557c:	0011      	movs	r1, r2
    557e:	0ff2      	lsrs	r2, r6, #31
    5580:	4692      	mov	sl, r2
    5582:	00c5      	lsls	r5, r0, #3
    5584:	0f42      	lsrs	r2, r0, #29
    5586:	0318      	lsls	r0, r3, #12
    5588:	0337      	lsls	r7, r6, #12
    558a:	0074      	lsls	r4, r6, #1
    558c:	0a40      	lsrs	r0, r0, #9
    558e:	0f4e      	lsrs	r6, r1, #29
    5590:	0a7f      	lsrs	r7, r7, #9
    5592:	4330      	orrs	r0, r6
    5594:	4ecf      	ldr	r6, [pc, #828]	; (58d4 <__aeabi_dsub+0x364>)
    5596:	4317      	orrs	r7, r2
    5598:	005a      	lsls	r2, r3, #1
    559a:	0d64      	lsrs	r4, r4, #21
    559c:	0d52      	lsrs	r2, r2, #21
    559e:	0fdb      	lsrs	r3, r3, #31
    55a0:	00c9      	lsls	r1, r1, #3
    55a2:	42b2      	cmp	r2, r6
    55a4:	d100      	bne.n	55a8 <__aeabi_dsub+0x38>
    55a6:	e0e5      	b.n	5774 <__aeabi_dsub+0x204>
    55a8:	2601      	movs	r6, #1
    55aa:	4073      	eors	r3, r6
    55ac:	1aa6      	subs	r6, r4, r2
    55ae:	46b4      	mov	ip, r6
    55b0:	4553      	cmp	r3, sl
    55b2:	d100      	bne.n	55b6 <__aeabi_dsub+0x46>
    55b4:	e0af      	b.n	5716 <__aeabi_dsub+0x1a6>
    55b6:	2e00      	cmp	r6, #0
    55b8:	dc00      	bgt.n	55bc <__aeabi_dsub+0x4c>
    55ba:	e10d      	b.n	57d8 <__aeabi_dsub+0x268>
    55bc:	2a00      	cmp	r2, #0
    55be:	d13a      	bne.n	5636 <__aeabi_dsub+0xc6>
    55c0:	0003      	movs	r3, r0
    55c2:	430b      	orrs	r3, r1
    55c4:	d000      	beq.n	55c8 <__aeabi_dsub+0x58>
    55c6:	e0e4      	b.n	5792 <__aeabi_dsub+0x222>
    55c8:	076b      	lsls	r3, r5, #29
    55ca:	d009      	beq.n	55e0 <__aeabi_dsub+0x70>
    55cc:	230f      	movs	r3, #15
    55ce:	402b      	ands	r3, r5
    55d0:	2b04      	cmp	r3, #4
    55d2:	d005      	beq.n	55e0 <__aeabi_dsub+0x70>
    55d4:	1d2b      	adds	r3, r5, #4
    55d6:	42ab      	cmp	r3, r5
    55d8:	41ad      	sbcs	r5, r5
    55da:	426d      	negs	r5, r5
    55dc:	197f      	adds	r7, r7, r5
    55de:	001d      	movs	r5, r3
    55e0:	023b      	lsls	r3, r7, #8
    55e2:	d400      	bmi.n	55e6 <__aeabi_dsub+0x76>
    55e4:	e088      	b.n	56f8 <__aeabi_dsub+0x188>
    55e6:	4bbb      	ldr	r3, [pc, #748]	; (58d4 <__aeabi_dsub+0x364>)
    55e8:	3401      	adds	r4, #1
    55ea:	429c      	cmp	r4, r3
    55ec:	d100      	bne.n	55f0 <__aeabi_dsub+0x80>
    55ee:	e110      	b.n	5812 <__aeabi_dsub+0x2a2>
    55f0:	003a      	movs	r2, r7
    55f2:	4bb9      	ldr	r3, [pc, #740]	; (58d8 <__aeabi_dsub+0x368>)
    55f4:	4651      	mov	r1, sl
    55f6:	401a      	ands	r2, r3
    55f8:	2301      	movs	r3, #1
    55fa:	0750      	lsls	r0, r2, #29
    55fc:	08ed      	lsrs	r5, r5, #3
    55fe:	0252      	lsls	r2, r2, #9
    5600:	0564      	lsls	r4, r4, #21
    5602:	4305      	orrs	r5, r0
    5604:	0b12      	lsrs	r2, r2, #12
    5606:	0d64      	lsrs	r4, r4, #21
    5608:	400b      	ands	r3, r1
    560a:	2100      	movs	r1, #0
    560c:	0028      	movs	r0, r5
    560e:	0312      	lsls	r2, r2, #12
    5610:	0d0d      	lsrs	r5, r1, #20
    5612:	0b12      	lsrs	r2, r2, #12
    5614:	0564      	lsls	r4, r4, #21
    5616:	052d      	lsls	r5, r5, #20
    5618:	4315      	orrs	r5, r2
    561a:	0862      	lsrs	r2, r4, #1
    561c:	4caf      	ldr	r4, [pc, #700]	; (58dc <__aeabi_dsub+0x36c>)
    561e:	07db      	lsls	r3, r3, #31
    5620:	402c      	ands	r4, r5
    5622:	4314      	orrs	r4, r2
    5624:	0064      	lsls	r4, r4, #1
    5626:	0864      	lsrs	r4, r4, #1
    5628:	431c      	orrs	r4, r3
    562a:	0021      	movs	r1, r4
    562c:	bc1c      	pop	{r2, r3, r4}
    562e:	4690      	mov	r8, r2
    5630:	4699      	mov	r9, r3
    5632:	46a2      	mov	sl, r4
    5634:	bdf0      	pop	{r4, r5, r6, r7, pc}
    5636:	4ba7      	ldr	r3, [pc, #668]	; (58d4 <__aeabi_dsub+0x364>)
    5638:	429c      	cmp	r4, r3
    563a:	d0c5      	beq.n	55c8 <__aeabi_dsub+0x58>
    563c:	2380      	movs	r3, #128	; 0x80
    563e:	041b      	lsls	r3, r3, #16
    5640:	4318      	orrs	r0, r3
    5642:	4663      	mov	r3, ip
    5644:	2b38      	cmp	r3, #56	; 0x38
    5646:	dd00      	ble.n	564a <__aeabi_dsub+0xda>
    5648:	e0fd      	b.n	5846 <__aeabi_dsub+0x2d6>
    564a:	2b1f      	cmp	r3, #31
    564c:	dd00      	ble.n	5650 <__aeabi_dsub+0xe0>
    564e:	e130      	b.n	58b2 <__aeabi_dsub+0x342>
    5650:	4662      	mov	r2, ip
    5652:	2320      	movs	r3, #32
    5654:	1a9b      	subs	r3, r3, r2
    5656:	0002      	movs	r2, r0
    5658:	409a      	lsls	r2, r3
    565a:	4666      	mov	r6, ip
    565c:	4690      	mov	r8, r2
    565e:	000a      	movs	r2, r1
    5660:	4099      	lsls	r1, r3
    5662:	40f2      	lsrs	r2, r6
    5664:	4646      	mov	r6, r8
    5666:	1e4b      	subs	r3, r1, #1
    5668:	4199      	sbcs	r1, r3
    566a:	4332      	orrs	r2, r6
    566c:	4311      	orrs	r1, r2
    566e:	4663      	mov	r3, ip
    5670:	0002      	movs	r2, r0
    5672:	40da      	lsrs	r2, r3
    5674:	1a69      	subs	r1, r5, r1
    5676:	428d      	cmp	r5, r1
    5678:	419b      	sbcs	r3, r3
    567a:	000d      	movs	r5, r1
    567c:	1aba      	subs	r2, r7, r2
    567e:	425b      	negs	r3, r3
    5680:	1ad7      	subs	r7, r2, r3
    5682:	023b      	lsls	r3, r7, #8
    5684:	d535      	bpl.n	56f2 <__aeabi_dsub+0x182>
    5686:	027a      	lsls	r2, r7, #9
    5688:	0a53      	lsrs	r3, r2, #9
    568a:	4698      	mov	r8, r3
    568c:	4643      	mov	r3, r8
    568e:	2b00      	cmp	r3, #0
    5690:	d100      	bne.n	5694 <__aeabi_dsub+0x124>
    5692:	e0c4      	b.n	581e <__aeabi_dsub+0x2ae>
    5694:	4640      	mov	r0, r8
    5696:	f000 fb2d 	bl	5cf4 <__clzsi2>
    569a:	0003      	movs	r3, r0
    569c:	3b08      	subs	r3, #8
    569e:	2b1f      	cmp	r3, #31
    56a0:	dd00      	ble.n	56a4 <__aeabi_dsub+0x134>
    56a2:	e0c5      	b.n	5830 <__aeabi_dsub+0x2c0>
    56a4:	2220      	movs	r2, #32
    56a6:	0029      	movs	r1, r5
    56a8:	1ad2      	subs	r2, r2, r3
    56aa:	4647      	mov	r7, r8
    56ac:	40d1      	lsrs	r1, r2
    56ae:	409f      	lsls	r7, r3
    56b0:	000a      	movs	r2, r1
    56b2:	409d      	lsls	r5, r3
    56b4:	433a      	orrs	r2, r7
    56b6:	429c      	cmp	r4, r3
    56b8:	dd00      	ble.n	56bc <__aeabi_dsub+0x14c>
    56ba:	e0c0      	b.n	583e <__aeabi_dsub+0x2ce>
    56bc:	1b1c      	subs	r4, r3, r4
    56be:	1c63      	adds	r3, r4, #1
    56c0:	2b1f      	cmp	r3, #31
    56c2:	dd00      	ble.n	56c6 <__aeabi_dsub+0x156>
    56c4:	e0e4      	b.n	5890 <__aeabi_dsub+0x320>
    56c6:	2120      	movs	r1, #32
    56c8:	0014      	movs	r4, r2
    56ca:	0028      	movs	r0, r5
    56cc:	1ac9      	subs	r1, r1, r3
    56ce:	40d8      	lsrs	r0, r3
    56d0:	408c      	lsls	r4, r1
    56d2:	408d      	lsls	r5, r1
    56d4:	4304      	orrs	r4, r0
    56d6:	40da      	lsrs	r2, r3
    56d8:	1e68      	subs	r0, r5, #1
    56da:	4185      	sbcs	r5, r0
    56dc:	0017      	movs	r7, r2
    56de:	4325      	orrs	r5, r4
    56e0:	2400      	movs	r4, #0
    56e2:	e771      	b.n	55c8 <__aeabi_dsub+0x58>
    56e4:	4642      	mov	r2, r8
    56e6:	4663      	mov	r3, ip
    56e8:	431a      	orrs	r2, r3
    56ea:	d100      	bne.n	56ee <__aeabi_dsub+0x17e>
    56ec:	e24c      	b.n	5b88 <__aeabi_dsub+0x618>
    56ee:	4667      	mov	r7, ip
    56f0:	4645      	mov	r5, r8
    56f2:	076b      	lsls	r3, r5, #29
    56f4:	d000      	beq.n	56f8 <__aeabi_dsub+0x188>
    56f6:	e769      	b.n	55cc <__aeabi_dsub+0x5c>
    56f8:	2301      	movs	r3, #1
    56fa:	4651      	mov	r1, sl
    56fc:	0778      	lsls	r0, r7, #29
    56fe:	08ed      	lsrs	r5, r5, #3
    5700:	08fa      	lsrs	r2, r7, #3
    5702:	400b      	ands	r3, r1
    5704:	4305      	orrs	r5, r0
    5706:	4973      	ldr	r1, [pc, #460]	; (58d4 <__aeabi_dsub+0x364>)
    5708:	428c      	cmp	r4, r1
    570a:	d038      	beq.n	577e <__aeabi_dsub+0x20e>
    570c:	0312      	lsls	r2, r2, #12
    570e:	0564      	lsls	r4, r4, #21
    5710:	0b12      	lsrs	r2, r2, #12
    5712:	0d64      	lsrs	r4, r4, #21
    5714:	e779      	b.n	560a <__aeabi_dsub+0x9a>
    5716:	2e00      	cmp	r6, #0
    5718:	dc00      	bgt.n	571c <__aeabi_dsub+0x1ac>
    571a:	e09a      	b.n	5852 <__aeabi_dsub+0x2e2>
    571c:	2a00      	cmp	r2, #0
    571e:	d047      	beq.n	57b0 <__aeabi_dsub+0x240>
    5720:	4a6c      	ldr	r2, [pc, #432]	; (58d4 <__aeabi_dsub+0x364>)
    5722:	4294      	cmp	r4, r2
    5724:	d100      	bne.n	5728 <__aeabi_dsub+0x1b8>
    5726:	e74f      	b.n	55c8 <__aeabi_dsub+0x58>
    5728:	2280      	movs	r2, #128	; 0x80
    572a:	0412      	lsls	r2, r2, #16
    572c:	4310      	orrs	r0, r2
    572e:	4662      	mov	r2, ip
    5730:	2a38      	cmp	r2, #56	; 0x38
    5732:	dc00      	bgt.n	5736 <__aeabi_dsub+0x1c6>
    5734:	e108      	b.n	5948 <__aeabi_dsub+0x3d8>
    5736:	4301      	orrs	r1, r0
    5738:	1e48      	subs	r0, r1, #1
    573a:	4181      	sbcs	r1, r0
    573c:	2200      	movs	r2, #0
    573e:	b2c9      	uxtb	r1, r1
    5740:	1949      	adds	r1, r1, r5
    5742:	19d2      	adds	r2, r2, r7
    5744:	42a9      	cmp	r1, r5
    5746:	41bf      	sbcs	r7, r7
    5748:	000d      	movs	r5, r1
    574a:	427f      	negs	r7, r7
    574c:	18bf      	adds	r7, r7, r2
    574e:	023a      	lsls	r2, r7, #8
    5750:	d400      	bmi.n	5754 <__aeabi_dsub+0x1e4>
    5752:	e142      	b.n	59da <__aeabi_dsub+0x46a>
    5754:	4a5f      	ldr	r2, [pc, #380]	; (58d4 <__aeabi_dsub+0x364>)
    5756:	3401      	adds	r4, #1
    5758:	4294      	cmp	r4, r2
    575a:	d100      	bne.n	575e <__aeabi_dsub+0x1ee>
    575c:	e14e      	b.n	59fc <__aeabi_dsub+0x48c>
    575e:	2001      	movs	r0, #1
    5760:	4a5d      	ldr	r2, [pc, #372]	; (58d8 <__aeabi_dsub+0x368>)
    5762:	0869      	lsrs	r1, r5, #1
    5764:	403a      	ands	r2, r7
    5766:	4028      	ands	r0, r5
    5768:	4308      	orrs	r0, r1
    576a:	07d5      	lsls	r5, r2, #31
    576c:	4305      	orrs	r5, r0
    576e:	0857      	lsrs	r7, r2, #1
    5770:	469a      	mov	sl, r3
    5772:	e729      	b.n	55c8 <__aeabi_dsub+0x58>
    5774:	0006      	movs	r6, r0
    5776:	430e      	orrs	r6, r1
    5778:	d000      	beq.n	577c <__aeabi_dsub+0x20c>
    577a:	e717      	b.n	55ac <__aeabi_dsub+0x3c>
    577c:	e714      	b.n	55a8 <__aeabi_dsub+0x38>
    577e:	0029      	movs	r1, r5
    5780:	4311      	orrs	r1, r2
    5782:	d100      	bne.n	5786 <__aeabi_dsub+0x216>
    5784:	e1f9      	b.n	5b7a <__aeabi_dsub+0x60a>
    5786:	2180      	movs	r1, #128	; 0x80
    5788:	0309      	lsls	r1, r1, #12
    578a:	430a      	orrs	r2, r1
    578c:	0312      	lsls	r2, r2, #12
    578e:	0b12      	lsrs	r2, r2, #12
    5790:	e73b      	b.n	560a <__aeabi_dsub+0x9a>
    5792:	2301      	movs	r3, #1
    5794:	425b      	negs	r3, r3
    5796:	4698      	mov	r8, r3
    5798:	44c4      	add	ip, r8
    579a:	4663      	mov	r3, ip
    579c:	2b00      	cmp	r3, #0
    579e:	d172      	bne.n	5886 <__aeabi_dsub+0x316>
    57a0:	1a69      	subs	r1, r5, r1
    57a2:	428d      	cmp	r5, r1
    57a4:	419b      	sbcs	r3, r3
    57a6:	1a3f      	subs	r7, r7, r0
    57a8:	425b      	negs	r3, r3
    57aa:	1aff      	subs	r7, r7, r3
    57ac:	000d      	movs	r5, r1
    57ae:	e768      	b.n	5682 <__aeabi_dsub+0x112>
    57b0:	0002      	movs	r2, r0
    57b2:	430a      	orrs	r2, r1
    57b4:	d100      	bne.n	57b8 <__aeabi_dsub+0x248>
    57b6:	e707      	b.n	55c8 <__aeabi_dsub+0x58>
    57b8:	2201      	movs	r2, #1
    57ba:	4252      	negs	r2, r2
    57bc:	4690      	mov	r8, r2
    57be:	44c4      	add	ip, r8
    57c0:	4662      	mov	r2, ip
    57c2:	2a00      	cmp	r2, #0
    57c4:	d000      	beq.n	57c8 <__aeabi_dsub+0x258>
    57c6:	e0e6      	b.n	5996 <__aeabi_dsub+0x426>
    57c8:	1869      	adds	r1, r5, r1
    57ca:	42a9      	cmp	r1, r5
    57cc:	41b6      	sbcs	r6, r6
    57ce:	183f      	adds	r7, r7, r0
    57d0:	4276      	negs	r6, r6
    57d2:	19f7      	adds	r7, r6, r7
    57d4:	000d      	movs	r5, r1
    57d6:	e7ba      	b.n	574e <__aeabi_dsub+0x1de>
    57d8:	2e00      	cmp	r6, #0
    57da:	d000      	beq.n	57de <__aeabi_dsub+0x26e>
    57dc:	e080      	b.n	58e0 <__aeabi_dsub+0x370>
    57de:	1c62      	adds	r2, r4, #1
    57e0:	0552      	lsls	r2, r2, #21
    57e2:	0d52      	lsrs	r2, r2, #21
    57e4:	2a01      	cmp	r2, #1
    57e6:	dc00      	bgt.n	57ea <__aeabi_dsub+0x27a>
    57e8:	e0f9      	b.n	59de <__aeabi_dsub+0x46e>
    57ea:	1a6a      	subs	r2, r5, r1
    57ec:	4691      	mov	r9, r2
    57ee:	454d      	cmp	r5, r9
    57f0:	41b6      	sbcs	r6, r6
    57f2:	1a3a      	subs	r2, r7, r0
    57f4:	4276      	negs	r6, r6
    57f6:	1b92      	subs	r2, r2, r6
    57f8:	4690      	mov	r8, r2
    57fa:	0212      	lsls	r2, r2, #8
    57fc:	d400      	bmi.n	5800 <__aeabi_dsub+0x290>
    57fe:	e099      	b.n	5934 <__aeabi_dsub+0x3c4>
    5800:	1b4d      	subs	r5, r1, r5
    5802:	42a9      	cmp	r1, r5
    5804:	4189      	sbcs	r1, r1
    5806:	1bc7      	subs	r7, r0, r7
    5808:	4249      	negs	r1, r1
    580a:	1a7a      	subs	r2, r7, r1
    580c:	4690      	mov	r8, r2
    580e:	469a      	mov	sl, r3
    5810:	e73c      	b.n	568c <__aeabi_dsub+0x11c>
    5812:	4652      	mov	r2, sl
    5814:	2301      	movs	r3, #1
    5816:	2500      	movs	r5, #0
    5818:	4013      	ands	r3, r2
    581a:	2200      	movs	r2, #0
    581c:	e6f5      	b.n	560a <__aeabi_dsub+0x9a>
    581e:	0028      	movs	r0, r5
    5820:	f000 fa68 	bl	5cf4 <__clzsi2>
    5824:	3020      	adds	r0, #32
    5826:	0003      	movs	r3, r0
    5828:	3b08      	subs	r3, #8
    582a:	2b1f      	cmp	r3, #31
    582c:	dc00      	bgt.n	5830 <__aeabi_dsub+0x2c0>
    582e:	e739      	b.n	56a4 <__aeabi_dsub+0x134>
    5830:	002a      	movs	r2, r5
    5832:	3828      	subs	r0, #40	; 0x28
    5834:	4082      	lsls	r2, r0
    5836:	2500      	movs	r5, #0
    5838:	429c      	cmp	r4, r3
    583a:	dc00      	bgt.n	583e <__aeabi_dsub+0x2ce>
    583c:	e73e      	b.n	56bc <__aeabi_dsub+0x14c>
    583e:	4f26      	ldr	r7, [pc, #152]	; (58d8 <__aeabi_dsub+0x368>)
    5840:	1ae4      	subs	r4, r4, r3
    5842:	4017      	ands	r7, r2
    5844:	e6c0      	b.n	55c8 <__aeabi_dsub+0x58>
    5846:	4301      	orrs	r1, r0
    5848:	1e48      	subs	r0, r1, #1
    584a:	4181      	sbcs	r1, r0
    584c:	2200      	movs	r2, #0
    584e:	b2c9      	uxtb	r1, r1
    5850:	e710      	b.n	5674 <__aeabi_dsub+0x104>
    5852:	2e00      	cmp	r6, #0
    5854:	d000      	beq.n	5858 <__aeabi_dsub+0x2e8>
    5856:	e0f1      	b.n	5a3c <__aeabi_dsub+0x4cc>
    5858:	1c62      	adds	r2, r4, #1
    585a:	4694      	mov	ip, r2
    585c:	0552      	lsls	r2, r2, #21
    585e:	0d52      	lsrs	r2, r2, #21
    5860:	2a01      	cmp	r2, #1
    5862:	dc00      	bgt.n	5866 <__aeabi_dsub+0x2f6>
    5864:	e0a0      	b.n	59a8 <__aeabi_dsub+0x438>
    5866:	4a1b      	ldr	r2, [pc, #108]	; (58d4 <__aeabi_dsub+0x364>)
    5868:	4594      	cmp	ip, r2
    586a:	d100      	bne.n	586e <__aeabi_dsub+0x2fe>
    586c:	e0c5      	b.n	59fa <__aeabi_dsub+0x48a>
    586e:	1869      	adds	r1, r5, r1
    5870:	42a9      	cmp	r1, r5
    5872:	4192      	sbcs	r2, r2
    5874:	183f      	adds	r7, r7, r0
    5876:	4252      	negs	r2, r2
    5878:	19d2      	adds	r2, r2, r7
    587a:	0849      	lsrs	r1, r1, #1
    587c:	07d5      	lsls	r5, r2, #31
    587e:	430d      	orrs	r5, r1
    5880:	0857      	lsrs	r7, r2, #1
    5882:	4664      	mov	r4, ip
    5884:	e6a0      	b.n	55c8 <__aeabi_dsub+0x58>
    5886:	4b13      	ldr	r3, [pc, #76]	; (58d4 <__aeabi_dsub+0x364>)
    5888:	429c      	cmp	r4, r3
    588a:	d000      	beq.n	588e <__aeabi_dsub+0x31e>
    588c:	e6d9      	b.n	5642 <__aeabi_dsub+0xd2>
    588e:	e69b      	b.n	55c8 <__aeabi_dsub+0x58>
    5890:	0011      	movs	r1, r2
    5892:	3c1f      	subs	r4, #31
    5894:	40e1      	lsrs	r1, r4
    5896:	000c      	movs	r4, r1
    5898:	2b20      	cmp	r3, #32
    589a:	d100      	bne.n	589e <__aeabi_dsub+0x32e>
    589c:	e080      	b.n	59a0 <__aeabi_dsub+0x430>
    589e:	2140      	movs	r1, #64	; 0x40
    58a0:	1acb      	subs	r3, r1, r3
    58a2:	409a      	lsls	r2, r3
    58a4:	4315      	orrs	r5, r2
    58a6:	1e6a      	subs	r2, r5, #1
    58a8:	4195      	sbcs	r5, r2
    58aa:	2700      	movs	r7, #0
    58ac:	4325      	orrs	r5, r4
    58ae:	2400      	movs	r4, #0
    58b0:	e71f      	b.n	56f2 <__aeabi_dsub+0x182>
    58b2:	4663      	mov	r3, ip
    58b4:	0002      	movs	r2, r0
    58b6:	3b20      	subs	r3, #32
    58b8:	40da      	lsrs	r2, r3
    58ba:	4663      	mov	r3, ip
    58bc:	2b20      	cmp	r3, #32
    58be:	d071      	beq.n	59a4 <__aeabi_dsub+0x434>
    58c0:	2340      	movs	r3, #64	; 0x40
    58c2:	4666      	mov	r6, ip
    58c4:	1b9b      	subs	r3, r3, r6
    58c6:	4098      	lsls	r0, r3
    58c8:	4301      	orrs	r1, r0
    58ca:	1e48      	subs	r0, r1, #1
    58cc:	4181      	sbcs	r1, r0
    58ce:	4311      	orrs	r1, r2
    58d0:	2200      	movs	r2, #0
    58d2:	e6cf      	b.n	5674 <__aeabi_dsub+0x104>
    58d4:	000007ff 	.word	0x000007ff
    58d8:	ff7fffff 	.word	0xff7fffff
    58dc:	800fffff 	.word	0x800fffff
    58e0:	2c00      	cmp	r4, #0
    58e2:	d048      	beq.n	5976 <__aeabi_dsub+0x406>
    58e4:	4cca      	ldr	r4, [pc, #808]	; (5c10 <__aeabi_dsub+0x6a0>)
    58e6:	42a2      	cmp	r2, r4
    58e8:	d100      	bne.n	58ec <__aeabi_dsub+0x37c>
    58ea:	e0a2      	b.n	5a32 <__aeabi_dsub+0x4c2>
    58ec:	4274      	negs	r4, r6
    58ee:	46a1      	mov	r9, r4
    58f0:	2480      	movs	r4, #128	; 0x80
    58f2:	0424      	lsls	r4, r4, #16
    58f4:	4327      	orrs	r7, r4
    58f6:	464c      	mov	r4, r9
    58f8:	2c38      	cmp	r4, #56	; 0x38
    58fa:	dd00      	ble.n	58fe <__aeabi_dsub+0x38e>
    58fc:	e0db      	b.n	5ab6 <__aeabi_dsub+0x546>
    58fe:	2c1f      	cmp	r4, #31
    5900:	dd00      	ble.n	5904 <__aeabi_dsub+0x394>
    5902:	e144      	b.n	5b8e <__aeabi_dsub+0x61e>
    5904:	464e      	mov	r6, r9
    5906:	2420      	movs	r4, #32
    5908:	1ba4      	subs	r4, r4, r6
    590a:	003e      	movs	r6, r7
    590c:	40a6      	lsls	r6, r4
    590e:	46a2      	mov	sl, r4
    5910:	46b0      	mov	r8, r6
    5912:	464c      	mov	r4, r9
    5914:	002e      	movs	r6, r5
    5916:	40e6      	lsrs	r6, r4
    5918:	46b4      	mov	ip, r6
    591a:	4646      	mov	r6, r8
    591c:	4664      	mov	r4, ip
    591e:	4326      	orrs	r6, r4
    5920:	4654      	mov	r4, sl
    5922:	40a5      	lsls	r5, r4
    5924:	1e6c      	subs	r4, r5, #1
    5926:	41a5      	sbcs	r5, r4
    5928:	0034      	movs	r4, r6
    592a:	432c      	orrs	r4, r5
    592c:	464d      	mov	r5, r9
    592e:	40ef      	lsrs	r7, r5
    5930:	1b0d      	subs	r5, r1, r4
    5932:	e028      	b.n	5986 <__aeabi_dsub+0x416>
    5934:	464a      	mov	r2, r9
    5936:	4643      	mov	r3, r8
    5938:	464d      	mov	r5, r9
    593a:	431a      	orrs	r2, r3
    593c:	d000      	beq.n	5940 <__aeabi_dsub+0x3d0>
    593e:	e6a5      	b.n	568c <__aeabi_dsub+0x11c>
    5940:	2300      	movs	r3, #0
    5942:	2400      	movs	r4, #0
    5944:	2500      	movs	r5, #0
    5946:	e6de      	b.n	5706 <__aeabi_dsub+0x196>
    5948:	2a1f      	cmp	r2, #31
    594a:	dc5a      	bgt.n	5a02 <__aeabi_dsub+0x492>
    594c:	4666      	mov	r6, ip
    594e:	2220      	movs	r2, #32
    5950:	1b92      	subs	r2, r2, r6
    5952:	0006      	movs	r6, r0
    5954:	4096      	lsls	r6, r2
    5956:	4691      	mov	r9, r2
    5958:	46b0      	mov	r8, r6
    595a:	4662      	mov	r2, ip
    595c:	000e      	movs	r6, r1
    595e:	40d6      	lsrs	r6, r2
    5960:	4642      	mov	r2, r8
    5962:	4316      	orrs	r6, r2
    5964:	464a      	mov	r2, r9
    5966:	4091      	lsls	r1, r2
    5968:	1e4a      	subs	r2, r1, #1
    596a:	4191      	sbcs	r1, r2
    596c:	0002      	movs	r2, r0
    596e:	4660      	mov	r0, ip
    5970:	4331      	orrs	r1, r6
    5972:	40c2      	lsrs	r2, r0
    5974:	e6e4      	b.n	5740 <__aeabi_dsub+0x1d0>
    5976:	003c      	movs	r4, r7
    5978:	432c      	orrs	r4, r5
    597a:	d05a      	beq.n	5a32 <__aeabi_dsub+0x4c2>
    597c:	43f4      	mvns	r4, r6
    597e:	46a1      	mov	r9, r4
    5980:	2c00      	cmp	r4, #0
    5982:	d152      	bne.n	5a2a <__aeabi_dsub+0x4ba>
    5984:	1b4d      	subs	r5, r1, r5
    5986:	42a9      	cmp	r1, r5
    5988:	4189      	sbcs	r1, r1
    598a:	1bc7      	subs	r7, r0, r7
    598c:	4249      	negs	r1, r1
    598e:	1a7f      	subs	r7, r7, r1
    5990:	0014      	movs	r4, r2
    5992:	469a      	mov	sl, r3
    5994:	e675      	b.n	5682 <__aeabi_dsub+0x112>
    5996:	4a9e      	ldr	r2, [pc, #632]	; (5c10 <__aeabi_dsub+0x6a0>)
    5998:	4294      	cmp	r4, r2
    599a:	d000      	beq.n	599e <__aeabi_dsub+0x42e>
    599c:	e6c7      	b.n	572e <__aeabi_dsub+0x1be>
    599e:	e613      	b.n	55c8 <__aeabi_dsub+0x58>
    59a0:	2200      	movs	r2, #0
    59a2:	e77f      	b.n	58a4 <__aeabi_dsub+0x334>
    59a4:	2000      	movs	r0, #0
    59a6:	e78f      	b.n	58c8 <__aeabi_dsub+0x358>
    59a8:	2c00      	cmp	r4, #0
    59aa:	d000      	beq.n	59ae <__aeabi_dsub+0x43e>
    59ac:	e0c8      	b.n	5b40 <__aeabi_dsub+0x5d0>
    59ae:	003b      	movs	r3, r7
    59b0:	432b      	orrs	r3, r5
    59b2:	d100      	bne.n	59b6 <__aeabi_dsub+0x446>
    59b4:	e10f      	b.n	5bd6 <__aeabi_dsub+0x666>
    59b6:	0003      	movs	r3, r0
    59b8:	430b      	orrs	r3, r1
    59ba:	d100      	bne.n	59be <__aeabi_dsub+0x44e>
    59bc:	e604      	b.n	55c8 <__aeabi_dsub+0x58>
    59be:	1869      	adds	r1, r5, r1
    59c0:	42a9      	cmp	r1, r5
    59c2:	419b      	sbcs	r3, r3
    59c4:	183f      	adds	r7, r7, r0
    59c6:	425b      	negs	r3, r3
    59c8:	19df      	adds	r7, r3, r7
    59ca:	023b      	lsls	r3, r7, #8
    59cc:	d400      	bmi.n	59d0 <__aeabi_dsub+0x460>
    59ce:	e11a      	b.n	5c06 <__aeabi_dsub+0x696>
    59d0:	4b90      	ldr	r3, [pc, #576]	; (5c14 <__aeabi_dsub+0x6a4>)
    59d2:	000d      	movs	r5, r1
    59d4:	401f      	ands	r7, r3
    59d6:	4664      	mov	r4, ip
    59d8:	e5f6      	b.n	55c8 <__aeabi_dsub+0x58>
    59da:	469a      	mov	sl, r3
    59dc:	e689      	b.n	56f2 <__aeabi_dsub+0x182>
    59de:	003a      	movs	r2, r7
    59e0:	432a      	orrs	r2, r5
    59e2:	2c00      	cmp	r4, #0
    59e4:	d15c      	bne.n	5aa0 <__aeabi_dsub+0x530>
    59e6:	2a00      	cmp	r2, #0
    59e8:	d175      	bne.n	5ad6 <__aeabi_dsub+0x566>
    59ea:	0002      	movs	r2, r0
    59ec:	430a      	orrs	r2, r1
    59ee:	d100      	bne.n	59f2 <__aeabi_dsub+0x482>
    59f0:	e0ca      	b.n	5b88 <__aeabi_dsub+0x618>
    59f2:	0007      	movs	r7, r0
    59f4:	000d      	movs	r5, r1
    59f6:	469a      	mov	sl, r3
    59f8:	e5e6      	b.n	55c8 <__aeabi_dsub+0x58>
    59fa:	4664      	mov	r4, ip
    59fc:	2200      	movs	r2, #0
    59fe:	2500      	movs	r5, #0
    5a00:	e681      	b.n	5706 <__aeabi_dsub+0x196>
    5a02:	4662      	mov	r2, ip
    5a04:	0006      	movs	r6, r0
    5a06:	3a20      	subs	r2, #32
    5a08:	40d6      	lsrs	r6, r2
    5a0a:	4662      	mov	r2, ip
    5a0c:	46b0      	mov	r8, r6
    5a0e:	2a20      	cmp	r2, #32
    5a10:	d100      	bne.n	5a14 <__aeabi_dsub+0x4a4>
    5a12:	e0b7      	b.n	5b84 <__aeabi_dsub+0x614>
    5a14:	2240      	movs	r2, #64	; 0x40
    5a16:	4666      	mov	r6, ip
    5a18:	1b92      	subs	r2, r2, r6
    5a1a:	4090      	lsls	r0, r2
    5a1c:	4301      	orrs	r1, r0
    5a1e:	4642      	mov	r2, r8
    5a20:	1e48      	subs	r0, r1, #1
    5a22:	4181      	sbcs	r1, r0
    5a24:	4311      	orrs	r1, r2
    5a26:	2200      	movs	r2, #0
    5a28:	e68a      	b.n	5740 <__aeabi_dsub+0x1d0>
    5a2a:	4c79      	ldr	r4, [pc, #484]	; (5c10 <__aeabi_dsub+0x6a0>)
    5a2c:	42a2      	cmp	r2, r4
    5a2e:	d000      	beq.n	5a32 <__aeabi_dsub+0x4c2>
    5a30:	e761      	b.n	58f6 <__aeabi_dsub+0x386>
    5a32:	0007      	movs	r7, r0
    5a34:	000d      	movs	r5, r1
    5a36:	0014      	movs	r4, r2
    5a38:	469a      	mov	sl, r3
    5a3a:	e5c5      	b.n	55c8 <__aeabi_dsub+0x58>
    5a3c:	2c00      	cmp	r4, #0
    5a3e:	d141      	bne.n	5ac4 <__aeabi_dsub+0x554>
    5a40:	003c      	movs	r4, r7
    5a42:	432c      	orrs	r4, r5
    5a44:	d078      	beq.n	5b38 <__aeabi_dsub+0x5c8>
    5a46:	43f4      	mvns	r4, r6
    5a48:	46a1      	mov	r9, r4
    5a4a:	2c00      	cmp	r4, #0
    5a4c:	d020      	beq.n	5a90 <__aeabi_dsub+0x520>
    5a4e:	4c70      	ldr	r4, [pc, #448]	; (5c10 <__aeabi_dsub+0x6a0>)
    5a50:	42a2      	cmp	r2, r4
    5a52:	d071      	beq.n	5b38 <__aeabi_dsub+0x5c8>
    5a54:	464c      	mov	r4, r9
    5a56:	2c38      	cmp	r4, #56	; 0x38
    5a58:	dd00      	ble.n	5a5c <__aeabi_dsub+0x4ec>
    5a5a:	e0b2      	b.n	5bc2 <__aeabi_dsub+0x652>
    5a5c:	2c1f      	cmp	r4, #31
    5a5e:	dd00      	ble.n	5a62 <__aeabi_dsub+0x4f2>
    5a60:	e0bc      	b.n	5bdc <__aeabi_dsub+0x66c>
    5a62:	2620      	movs	r6, #32
    5a64:	1b34      	subs	r4, r6, r4
    5a66:	46a2      	mov	sl, r4
    5a68:	003c      	movs	r4, r7
    5a6a:	4656      	mov	r6, sl
    5a6c:	40b4      	lsls	r4, r6
    5a6e:	464e      	mov	r6, r9
    5a70:	46a0      	mov	r8, r4
    5a72:	002c      	movs	r4, r5
    5a74:	40f4      	lsrs	r4, r6
    5a76:	46a4      	mov	ip, r4
    5a78:	4644      	mov	r4, r8
    5a7a:	4666      	mov	r6, ip
    5a7c:	4334      	orrs	r4, r6
    5a7e:	46a4      	mov	ip, r4
    5a80:	4654      	mov	r4, sl
    5a82:	40a5      	lsls	r5, r4
    5a84:	4664      	mov	r4, ip
    5a86:	1e6e      	subs	r6, r5, #1
    5a88:	41b5      	sbcs	r5, r6
    5a8a:	4325      	orrs	r5, r4
    5a8c:	464c      	mov	r4, r9
    5a8e:	40e7      	lsrs	r7, r4
    5a90:	186d      	adds	r5, r5, r1
    5a92:	428d      	cmp	r5, r1
    5a94:	4189      	sbcs	r1, r1
    5a96:	183f      	adds	r7, r7, r0
    5a98:	4249      	negs	r1, r1
    5a9a:	19cf      	adds	r7, r1, r7
    5a9c:	0014      	movs	r4, r2
    5a9e:	e656      	b.n	574e <__aeabi_dsub+0x1de>
    5aa0:	2a00      	cmp	r2, #0
    5aa2:	d12f      	bne.n	5b04 <__aeabi_dsub+0x594>
    5aa4:	0002      	movs	r2, r0
    5aa6:	430a      	orrs	r2, r1
    5aa8:	d100      	bne.n	5aac <__aeabi_dsub+0x53c>
    5aaa:	e084      	b.n	5bb6 <__aeabi_dsub+0x646>
    5aac:	0007      	movs	r7, r0
    5aae:	000d      	movs	r5, r1
    5ab0:	469a      	mov	sl, r3
    5ab2:	4c57      	ldr	r4, [pc, #348]	; (5c10 <__aeabi_dsub+0x6a0>)
    5ab4:	e588      	b.n	55c8 <__aeabi_dsub+0x58>
    5ab6:	433d      	orrs	r5, r7
    5ab8:	1e6f      	subs	r7, r5, #1
    5aba:	41bd      	sbcs	r5, r7
    5abc:	b2ec      	uxtb	r4, r5
    5abe:	2700      	movs	r7, #0
    5ac0:	1b0d      	subs	r5, r1, r4
    5ac2:	e760      	b.n	5986 <__aeabi_dsub+0x416>
    5ac4:	4c52      	ldr	r4, [pc, #328]	; (5c10 <__aeabi_dsub+0x6a0>)
    5ac6:	42a2      	cmp	r2, r4
    5ac8:	d036      	beq.n	5b38 <__aeabi_dsub+0x5c8>
    5aca:	4274      	negs	r4, r6
    5acc:	2680      	movs	r6, #128	; 0x80
    5ace:	0436      	lsls	r6, r6, #16
    5ad0:	46a1      	mov	r9, r4
    5ad2:	4337      	orrs	r7, r6
    5ad4:	e7be      	b.n	5a54 <__aeabi_dsub+0x4e4>
    5ad6:	0002      	movs	r2, r0
    5ad8:	430a      	orrs	r2, r1
    5ada:	d100      	bne.n	5ade <__aeabi_dsub+0x56e>
    5adc:	e574      	b.n	55c8 <__aeabi_dsub+0x58>
    5ade:	1a6a      	subs	r2, r5, r1
    5ae0:	4690      	mov	r8, r2
    5ae2:	4545      	cmp	r5, r8
    5ae4:	41b6      	sbcs	r6, r6
    5ae6:	1a3a      	subs	r2, r7, r0
    5ae8:	4276      	negs	r6, r6
    5aea:	1b92      	subs	r2, r2, r6
    5aec:	4694      	mov	ip, r2
    5aee:	0212      	lsls	r2, r2, #8
    5af0:	d400      	bmi.n	5af4 <__aeabi_dsub+0x584>
    5af2:	e5f7      	b.n	56e4 <__aeabi_dsub+0x174>
    5af4:	1b4d      	subs	r5, r1, r5
    5af6:	42a9      	cmp	r1, r5
    5af8:	4189      	sbcs	r1, r1
    5afa:	1bc7      	subs	r7, r0, r7
    5afc:	4249      	negs	r1, r1
    5afe:	1a7f      	subs	r7, r7, r1
    5b00:	469a      	mov	sl, r3
    5b02:	e561      	b.n	55c8 <__aeabi_dsub+0x58>
    5b04:	0002      	movs	r2, r0
    5b06:	430a      	orrs	r2, r1
    5b08:	d03a      	beq.n	5b80 <__aeabi_dsub+0x610>
    5b0a:	08ed      	lsrs	r5, r5, #3
    5b0c:	077c      	lsls	r4, r7, #29
    5b0e:	432c      	orrs	r4, r5
    5b10:	2580      	movs	r5, #128	; 0x80
    5b12:	08fa      	lsrs	r2, r7, #3
    5b14:	032d      	lsls	r5, r5, #12
    5b16:	422a      	tst	r2, r5
    5b18:	d008      	beq.n	5b2c <__aeabi_dsub+0x5bc>
    5b1a:	08c7      	lsrs	r7, r0, #3
    5b1c:	422f      	tst	r7, r5
    5b1e:	d105      	bne.n	5b2c <__aeabi_dsub+0x5bc>
    5b20:	0745      	lsls	r5, r0, #29
    5b22:	002c      	movs	r4, r5
    5b24:	003a      	movs	r2, r7
    5b26:	469a      	mov	sl, r3
    5b28:	08c9      	lsrs	r1, r1, #3
    5b2a:	430c      	orrs	r4, r1
    5b2c:	0f67      	lsrs	r7, r4, #29
    5b2e:	00d2      	lsls	r2, r2, #3
    5b30:	00e5      	lsls	r5, r4, #3
    5b32:	4317      	orrs	r7, r2
    5b34:	4c36      	ldr	r4, [pc, #216]	; (5c10 <__aeabi_dsub+0x6a0>)
    5b36:	e547      	b.n	55c8 <__aeabi_dsub+0x58>
    5b38:	0007      	movs	r7, r0
    5b3a:	000d      	movs	r5, r1
    5b3c:	0014      	movs	r4, r2
    5b3e:	e543      	b.n	55c8 <__aeabi_dsub+0x58>
    5b40:	003a      	movs	r2, r7
    5b42:	432a      	orrs	r2, r5
    5b44:	d043      	beq.n	5bce <__aeabi_dsub+0x65e>
    5b46:	0002      	movs	r2, r0
    5b48:	430a      	orrs	r2, r1
    5b4a:	d019      	beq.n	5b80 <__aeabi_dsub+0x610>
    5b4c:	08ed      	lsrs	r5, r5, #3
    5b4e:	077c      	lsls	r4, r7, #29
    5b50:	432c      	orrs	r4, r5
    5b52:	2580      	movs	r5, #128	; 0x80
    5b54:	08fa      	lsrs	r2, r7, #3
    5b56:	032d      	lsls	r5, r5, #12
    5b58:	422a      	tst	r2, r5
    5b5a:	d007      	beq.n	5b6c <__aeabi_dsub+0x5fc>
    5b5c:	08c6      	lsrs	r6, r0, #3
    5b5e:	422e      	tst	r6, r5
    5b60:	d104      	bne.n	5b6c <__aeabi_dsub+0x5fc>
    5b62:	0747      	lsls	r7, r0, #29
    5b64:	003c      	movs	r4, r7
    5b66:	0032      	movs	r2, r6
    5b68:	08c9      	lsrs	r1, r1, #3
    5b6a:	430c      	orrs	r4, r1
    5b6c:	00d7      	lsls	r7, r2, #3
    5b6e:	0f62      	lsrs	r2, r4, #29
    5b70:	00e5      	lsls	r5, r4, #3
    5b72:	4317      	orrs	r7, r2
    5b74:	469a      	mov	sl, r3
    5b76:	4c26      	ldr	r4, [pc, #152]	; (5c10 <__aeabi_dsub+0x6a0>)
    5b78:	e526      	b.n	55c8 <__aeabi_dsub+0x58>
    5b7a:	2200      	movs	r2, #0
    5b7c:	2500      	movs	r5, #0
    5b7e:	e544      	b.n	560a <__aeabi_dsub+0x9a>
    5b80:	4c23      	ldr	r4, [pc, #140]	; (5c10 <__aeabi_dsub+0x6a0>)
    5b82:	e521      	b.n	55c8 <__aeabi_dsub+0x58>
    5b84:	2000      	movs	r0, #0
    5b86:	e749      	b.n	5a1c <__aeabi_dsub+0x4ac>
    5b88:	2300      	movs	r3, #0
    5b8a:	2500      	movs	r5, #0
    5b8c:	e5bb      	b.n	5706 <__aeabi_dsub+0x196>
    5b8e:	464c      	mov	r4, r9
    5b90:	003e      	movs	r6, r7
    5b92:	3c20      	subs	r4, #32
    5b94:	40e6      	lsrs	r6, r4
    5b96:	464c      	mov	r4, r9
    5b98:	46b4      	mov	ip, r6
    5b9a:	2c20      	cmp	r4, #32
    5b9c:	d031      	beq.n	5c02 <__aeabi_dsub+0x692>
    5b9e:	2440      	movs	r4, #64	; 0x40
    5ba0:	464e      	mov	r6, r9
    5ba2:	1ba6      	subs	r6, r4, r6
    5ba4:	40b7      	lsls	r7, r6
    5ba6:	433d      	orrs	r5, r7
    5ba8:	1e6c      	subs	r4, r5, #1
    5baa:	41a5      	sbcs	r5, r4
    5bac:	4664      	mov	r4, ip
    5bae:	432c      	orrs	r4, r5
    5bb0:	2700      	movs	r7, #0
    5bb2:	1b0d      	subs	r5, r1, r4
    5bb4:	e6e7      	b.n	5986 <__aeabi_dsub+0x416>
    5bb6:	2280      	movs	r2, #128	; 0x80
    5bb8:	2300      	movs	r3, #0
    5bba:	0312      	lsls	r2, r2, #12
    5bbc:	4c14      	ldr	r4, [pc, #80]	; (5c10 <__aeabi_dsub+0x6a0>)
    5bbe:	2500      	movs	r5, #0
    5bc0:	e5a1      	b.n	5706 <__aeabi_dsub+0x196>
    5bc2:	433d      	orrs	r5, r7
    5bc4:	1e6f      	subs	r7, r5, #1
    5bc6:	41bd      	sbcs	r5, r7
    5bc8:	2700      	movs	r7, #0
    5bca:	b2ed      	uxtb	r5, r5
    5bcc:	e760      	b.n	5a90 <__aeabi_dsub+0x520>
    5bce:	0007      	movs	r7, r0
    5bd0:	000d      	movs	r5, r1
    5bd2:	4c0f      	ldr	r4, [pc, #60]	; (5c10 <__aeabi_dsub+0x6a0>)
    5bd4:	e4f8      	b.n	55c8 <__aeabi_dsub+0x58>
    5bd6:	0007      	movs	r7, r0
    5bd8:	000d      	movs	r5, r1
    5bda:	e4f5      	b.n	55c8 <__aeabi_dsub+0x58>
    5bdc:	464e      	mov	r6, r9
    5bde:	003c      	movs	r4, r7
    5be0:	3e20      	subs	r6, #32
    5be2:	40f4      	lsrs	r4, r6
    5be4:	46a0      	mov	r8, r4
    5be6:	464c      	mov	r4, r9
    5be8:	2c20      	cmp	r4, #32
    5bea:	d00e      	beq.n	5c0a <__aeabi_dsub+0x69a>
    5bec:	2440      	movs	r4, #64	; 0x40
    5bee:	464e      	mov	r6, r9
    5bf0:	1ba4      	subs	r4, r4, r6
    5bf2:	40a7      	lsls	r7, r4
    5bf4:	433d      	orrs	r5, r7
    5bf6:	1e6f      	subs	r7, r5, #1
    5bf8:	41bd      	sbcs	r5, r7
    5bfa:	4644      	mov	r4, r8
    5bfc:	2700      	movs	r7, #0
    5bfe:	4325      	orrs	r5, r4
    5c00:	e746      	b.n	5a90 <__aeabi_dsub+0x520>
    5c02:	2700      	movs	r7, #0
    5c04:	e7cf      	b.n	5ba6 <__aeabi_dsub+0x636>
    5c06:	000d      	movs	r5, r1
    5c08:	e573      	b.n	56f2 <__aeabi_dsub+0x182>
    5c0a:	2700      	movs	r7, #0
    5c0c:	e7f2      	b.n	5bf4 <__aeabi_dsub+0x684>
    5c0e:	46c0      	nop			; (mov r8, r8)
    5c10:	000007ff 	.word	0x000007ff
    5c14:	ff7fffff 	.word	0xff7fffff

00005c18 <__aeabi_d2iz>:
    5c18:	030b      	lsls	r3, r1, #12
    5c1a:	b530      	push	{r4, r5, lr}
    5c1c:	4d13      	ldr	r5, [pc, #76]	; (5c6c <__aeabi_d2iz+0x54>)
    5c1e:	0b1a      	lsrs	r2, r3, #12
    5c20:	004b      	lsls	r3, r1, #1
    5c22:	0d5b      	lsrs	r3, r3, #21
    5c24:	0fc9      	lsrs	r1, r1, #31
    5c26:	2400      	movs	r4, #0
    5c28:	42ab      	cmp	r3, r5
    5c2a:	dd11      	ble.n	5c50 <__aeabi_d2iz+0x38>
    5c2c:	4c10      	ldr	r4, [pc, #64]	; (5c70 <__aeabi_d2iz+0x58>)
    5c2e:	42a3      	cmp	r3, r4
    5c30:	dc10      	bgt.n	5c54 <__aeabi_d2iz+0x3c>
    5c32:	2480      	movs	r4, #128	; 0x80
    5c34:	0364      	lsls	r4, r4, #13
    5c36:	4322      	orrs	r2, r4
    5c38:	4c0e      	ldr	r4, [pc, #56]	; (5c74 <__aeabi_d2iz+0x5c>)
    5c3a:	1ae4      	subs	r4, r4, r3
    5c3c:	2c1f      	cmp	r4, #31
    5c3e:	dd0c      	ble.n	5c5a <__aeabi_d2iz+0x42>
    5c40:	480d      	ldr	r0, [pc, #52]	; (5c78 <__aeabi_d2iz+0x60>)
    5c42:	1ac3      	subs	r3, r0, r3
    5c44:	40da      	lsrs	r2, r3
    5c46:	0013      	movs	r3, r2
    5c48:	425c      	negs	r4, r3
    5c4a:	2900      	cmp	r1, #0
    5c4c:	d100      	bne.n	5c50 <__aeabi_d2iz+0x38>
    5c4e:	001c      	movs	r4, r3
    5c50:	0020      	movs	r0, r4
    5c52:	bd30      	pop	{r4, r5, pc}
    5c54:	4b09      	ldr	r3, [pc, #36]	; (5c7c <__aeabi_d2iz+0x64>)
    5c56:	18cc      	adds	r4, r1, r3
    5c58:	e7fa      	b.n	5c50 <__aeabi_d2iz+0x38>
    5c5a:	40e0      	lsrs	r0, r4
    5c5c:	4c08      	ldr	r4, [pc, #32]	; (5c80 <__aeabi_d2iz+0x68>)
    5c5e:	46a4      	mov	ip, r4
    5c60:	4463      	add	r3, ip
    5c62:	409a      	lsls	r2, r3
    5c64:	0013      	movs	r3, r2
    5c66:	4303      	orrs	r3, r0
    5c68:	e7ee      	b.n	5c48 <__aeabi_d2iz+0x30>
    5c6a:	46c0      	nop			; (mov r8, r8)
    5c6c:	000003fe 	.word	0x000003fe
    5c70:	0000041d 	.word	0x0000041d
    5c74:	00000433 	.word	0x00000433
    5c78:	00000413 	.word	0x00000413
    5c7c:	7fffffff 	.word	0x7fffffff
    5c80:	fffffbed 	.word	0xfffffbed

00005c84 <__aeabi_ui2d>:
    5c84:	b570      	push	{r4, r5, r6, lr}
    5c86:	1e05      	subs	r5, r0, #0
    5c88:	d028      	beq.n	5cdc <__aeabi_ui2d+0x58>
    5c8a:	f000 f833 	bl	5cf4 <__clzsi2>
    5c8e:	4b15      	ldr	r3, [pc, #84]	; (5ce4 <__aeabi_ui2d+0x60>)
    5c90:	4a15      	ldr	r2, [pc, #84]	; (5ce8 <__aeabi_ui2d+0x64>)
    5c92:	1a1b      	subs	r3, r3, r0
    5c94:	1ad2      	subs	r2, r2, r3
    5c96:	2a1f      	cmp	r2, #31
    5c98:	dd16      	ble.n	5cc8 <__aeabi_ui2d+0x44>
    5c9a:	002c      	movs	r4, r5
    5c9c:	4a13      	ldr	r2, [pc, #76]	; (5cec <__aeabi_ui2d+0x68>)
    5c9e:	2500      	movs	r5, #0
    5ca0:	1ad2      	subs	r2, r2, r3
    5ca2:	4094      	lsls	r4, r2
    5ca4:	055a      	lsls	r2, r3, #21
    5ca6:	0324      	lsls	r4, r4, #12
    5ca8:	0b24      	lsrs	r4, r4, #12
    5caa:	0d52      	lsrs	r2, r2, #21
    5cac:	2100      	movs	r1, #0
    5cae:	0324      	lsls	r4, r4, #12
    5cb0:	0d0b      	lsrs	r3, r1, #20
    5cb2:	0b24      	lsrs	r4, r4, #12
    5cb4:	051b      	lsls	r3, r3, #20
    5cb6:	4323      	orrs	r3, r4
    5cb8:	4c0d      	ldr	r4, [pc, #52]	; (5cf0 <__aeabi_ui2d+0x6c>)
    5cba:	0512      	lsls	r2, r2, #20
    5cbc:	4023      	ands	r3, r4
    5cbe:	4313      	orrs	r3, r2
    5cc0:	005b      	lsls	r3, r3, #1
    5cc2:	0028      	movs	r0, r5
    5cc4:	0859      	lsrs	r1, r3, #1
    5cc6:	bd70      	pop	{r4, r5, r6, pc}
    5cc8:	210b      	movs	r1, #11
    5cca:	002c      	movs	r4, r5
    5ccc:	1a08      	subs	r0, r1, r0
    5cce:	40c4      	lsrs	r4, r0
    5cd0:	4095      	lsls	r5, r2
    5cd2:	0324      	lsls	r4, r4, #12
    5cd4:	055a      	lsls	r2, r3, #21
    5cd6:	0b24      	lsrs	r4, r4, #12
    5cd8:	0d52      	lsrs	r2, r2, #21
    5cda:	e7e7      	b.n	5cac <__aeabi_ui2d+0x28>
    5cdc:	2200      	movs	r2, #0
    5cde:	2400      	movs	r4, #0
    5ce0:	e7e4      	b.n	5cac <__aeabi_ui2d+0x28>
    5ce2:	46c0      	nop			; (mov r8, r8)
    5ce4:	0000041e 	.word	0x0000041e
    5ce8:	00000433 	.word	0x00000433
    5cec:	00000413 	.word	0x00000413
    5cf0:	800fffff 	.word	0x800fffff

00005cf4 <__clzsi2>:
    5cf4:	211c      	movs	r1, #28
    5cf6:	2301      	movs	r3, #1
    5cf8:	041b      	lsls	r3, r3, #16
    5cfa:	4298      	cmp	r0, r3
    5cfc:	d301      	bcc.n	5d02 <__clzsi2+0xe>
    5cfe:	0c00      	lsrs	r0, r0, #16
    5d00:	3910      	subs	r1, #16
    5d02:	0a1b      	lsrs	r3, r3, #8
    5d04:	4298      	cmp	r0, r3
    5d06:	d301      	bcc.n	5d0c <__clzsi2+0x18>
    5d08:	0a00      	lsrs	r0, r0, #8
    5d0a:	3908      	subs	r1, #8
    5d0c:	091b      	lsrs	r3, r3, #4
    5d0e:	4298      	cmp	r0, r3
    5d10:	d301      	bcc.n	5d16 <__clzsi2+0x22>
    5d12:	0900      	lsrs	r0, r0, #4
    5d14:	3904      	subs	r1, #4
    5d16:	a202      	add	r2, pc, #8	; (adr r2, 5d20 <__clzsi2+0x2c>)
    5d18:	5c10      	ldrb	r0, [r2, r0]
    5d1a:	1840      	adds	r0, r0, r1
    5d1c:	4770      	bx	lr
    5d1e:	46c0      	nop			; (mov r8, r8)
    5d20:	02020304 	.word	0x02020304
    5d24:	01010101 	.word	0x01010101
	...

00005d30 <__libc_init_array>:
    5d30:	4b0e      	ldr	r3, [pc, #56]	; (5d6c <__libc_init_array+0x3c>)
    5d32:	b570      	push	{r4, r5, r6, lr}
    5d34:	2500      	movs	r5, #0
    5d36:	001e      	movs	r6, r3
    5d38:	4c0d      	ldr	r4, [pc, #52]	; (5d70 <__libc_init_array+0x40>)
    5d3a:	1ae4      	subs	r4, r4, r3
    5d3c:	10a4      	asrs	r4, r4, #2
    5d3e:	42a5      	cmp	r5, r4
    5d40:	d004      	beq.n	5d4c <__libc_init_array+0x1c>
    5d42:	00ab      	lsls	r3, r5, #2
    5d44:	58f3      	ldr	r3, [r6, r3]
    5d46:	4798      	blx	r3
    5d48:	3501      	adds	r5, #1
    5d4a:	e7f8      	b.n	5d3e <__libc_init_array+0xe>
    5d4c:	f000 fd58 	bl	6800 <_init>
    5d50:	4b08      	ldr	r3, [pc, #32]	; (5d74 <__libc_init_array+0x44>)
    5d52:	2500      	movs	r5, #0
    5d54:	001e      	movs	r6, r3
    5d56:	4c08      	ldr	r4, [pc, #32]	; (5d78 <__libc_init_array+0x48>)
    5d58:	1ae4      	subs	r4, r4, r3
    5d5a:	10a4      	asrs	r4, r4, #2
    5d5c:	42a5      	cmp	r5, r4
    5d5e:	d004      	beq.n	5d6a <__libc_init_array+0x3a>
    5d60:	00ab      	lsls	r3, r5, #2
    5d62:	58f3      	ldr	r3, [r6, r3]
    5d64:	4798      	blx	r3
    5d66:	3501      	adds	r5, #1
    5d68:	e7f8      	b.n	5d5c <__libc_init_array+0x2c>
    5d6a:	bd70      	pop	{r4, r5, r6, pc}
    5d6c:	0000680c 	.word	0x0000680c
    5d70:	0000680c 	.word	0x0000680c
    5d74:	0000680c 	.word	0x0000680c
    5d78:	00006810 	.word	0x00006810

00005d7c <memcpy>:
    5d7c:	2300      	movs	r3, #0
    5d7e:	b510      	push	{r4, lr}
    5d80:	429a      	cmp	r2, r3
    5d82:	d003      	beq.n	5d8c <memcpy+0x10>
    5d84:	5ccc      	ldrb	r4, [r1, r3]
    5d86:	54c4      	strb	r4, [r0, r3]
    5d88:	3301      	adds	r3, #1
    5d8a:	e7f9      	b.n	5d80 <memcpy+0x4>
    5d8c:	bd10      	pop	{r4, pc}

00005d8e <memset>:
    5d8e:	0003      	movs	r3, r0
    5d90:	1882      	adds	r2, r0, r2
    5d92:	4293      	cmp	r3, r2
    5d94:	d002      	beq.n	5d9c <memset+0xe>
    5d96:	7019      	strb	r1, [r3, #0]
    5d98:	3301      	adds	r3, #1
    5d9a:	e7fa      	b.n	5d92 <memset+0x4>
    5d9c:	4770      	bx	lr

00005d9e <setbuf>:
    5d9e:	424a      	negs	r2, r1
    5da0:	414a      	adcs	r2, r1
    5da2:	2380      	movs	r3, #128	; 0x80
    5da4:	b510      	push	{r4, lr}
    5da6:	0052      	lsls	r2, r2, #1
    5da8:	00db      	lsls	r3, r3, #3
    5daa:	f000 f801 	bl	5db0 <setvbuf>
    5dae:	bd10      	pop	{r4, pc}

00005db0 <setvbuf>:
    5db0:	b5f0      	push	{r4, r5, r6, r7, lr}
    5db2:	001d      	movs	r5, r3
    5db4:	4b51      	ldr	r3, [pc, #324]	; (5efc <setvbuf+0x14c>)
    5db6:	b085      	sub	sp, #20
    5db8:	681e      	ldr	r6, [r3, #0]
    5dba:	0004      	movs	r4, r0
    5dbc:	000f      	movs	r7, r1
    5dbe:	9200      	str	r2, [sp, #0]
    5dc0:	2e00      	cmp	r6, #0
    5dc2:	d005      	beq.n	5dd0 <setvbuf+0x20>
    5dc4:	69b3      	ldr	r3, [r6, #24]
    5dc6:	2b00      	cmp	r3, #0
    5dc8:	d102      	bne.n	5dd0 <setvbuf+0x20>
    5dca:	0030      	movs	r0, r6
    5dcc:	f000 f994 	bl	60f8 <__sinit>
    5dd0:	4b4b      	ldr	r3, [pc, #300]	; (5f00 <setvbuf+0x150>)
    5dd2:	429c      	cmp	r4, r3
    5dd4:	d101      	bne.n	5dda <setvbuf+0x2a>
    5dd6:	6874      	ldr	r4, [r6, #4]
    5dd8:	e008      	b.n	5dec <setvbuf+0x3c>
    5dda:	4b4a      	ldr	r3, [pc, #296]	; (5f04 <setvbuf+0x154>)
    5ddc:	429c      	cmp	r4, r3
    5dde:	d101      	bne.n	5de4 <setvbuf+0x34>
    5de0:	68b4      	ldr	r4, [r6, #8]
    5de2:	e003      	b.n	5dec <setvbuf+0x3c>
    5de4:	4b48      	ldr	r3, [pc, #288]	; (5f08 <setvbuf+0x158>)
    5de6:	429c      	cmp	r4, r3
    5de8:	d100      	bne.n	5dec <setvbuf+0x3c>
    5dea:	68f4      	ldr	r4, [r6, #12]
    5dec:	9b00      	ldr	r3, [sp, #0]
    5dee:	2b02      	cmp	r3, #2
    5df0:	d005      	beq.n	5dfe <setvbuf+0x4e>
    5df2:	2b01      	cmp	r3, #1
    5df4:	d900      	bls.n	5df8 <setvbuf+0x48>
    5df6:	e07c      	b.n	5ef2 <setvbuf+0x142>
    5df8:	2d00      	cmp	r5, #0
    5dfa:	da00      	bge.n	5dfe <setvbuf+0x4e>
    5dfc:	e079      	b.n	5ef2 <setvbuf+0x142>
    5dfe:	0021      	movs	r1, r4
    5e00:	0030      	movs	r0, r6
    5e02:	f000 f90b 	bl	601c <_fflush_r>
    5e06:	6b61      	ldr	r1, [r4, #52]	; 0x34
    5e08:	2900      	cmp	r1, #0
    5e0a:	d008      	beq.n	5e1e <setvbuf+0x6e>
    5e0c:	0023      	movs	r3, r4
    5e0e:	3344      	adds	r3, #68	; 0x44
    5e10:	4299      	cmp	r1, r3
    5e12:	d002      	beq.n	5e1a <setvbuf+0x6a>
    5e14:	0030      	movs	r0, r6
    5e16:	f000 fa33 	bl	6280 <_free_r>
    5e1a:	2300      	movs	r3, #0
    5e1c:	6363      	str	r3, [r4, #52]	; 0x34
    5e1e:	2300      	movs	r3, #0
    5e20:	61a3      	str	r3, [r4, #24]
    5e22:	6063      	str	r3, [r4, #4]
    5e24:	89a3      	ldrh	r3, [r4, #12]
    5e26:	061b      	lsls	r3, r3, #24
    5e28:	d503      	bpl.n	5e32 <setvbuf+0x82>
    5e2a:	6921      	ldr	r1, [r4, #16]
    5e2c:	0030      	movs	r0, r6
    5e2e:	f000 fa27 	bl	6280 <_free_r>
    5e32:	89a2      	ldrh	r2, [r4, #12]
    5e34:	4b35      	ldr	r3, [pc, #212]	; (5f0c <setvbuf+0x15c>)
    5e36:	4013      	ands	r3, r2
    5e38:	81a3      	strh	r3, [r4, #12]
    5e3a:	9b00      	ldr	r3, [sp, #0]
    5e3c:	2b02      	cmp	r3, #2
    5e3e:	d021      	beq.n	5e84 <setvbuf+0xd4>
    5e40:	ab03      	add	r3, sp, #12
    5e42:	aa02      	add	r2, sp, #8
    5e44:	0021      	movs	r1, r4
    5e46:	0030      	movs	r0, r6
    5e48:	f000 f9ea 	bl	6220 <__swhatbuf_r>
    5e4c:	89a3      	ldrh	r3, [r4, #12]
    5e4e:	4318      	orrs	r0, r3
    5e50:	81a0      	strh	r0, [r4, #12]
    5e52:	2d00      	cmp	r5, #0
    5e54:	d101      	bne.n	5e5a <setvbuf+0xaa>
    5e56:	9d02      	ldr	r5, [sp, #8]
    5e58:	e001      	b.n	5e5e <setvbuf+0xae>
    5e5a:	2f00      	cmp	r7, #0
    5e5c:	d125      	bne.n	5eaa <setvbuf+0xfa>
    5e5e:	0028      	movs	r0, r5
    5e60:	f000 fa04 	bl	626c <malloc>
    5e64:	9501      	str	r5, [sp, #4]
    5e66:	1e07      	subs	r7, r0, #0
    5e68:	d11a      	bne.n	5ea0 <setvbuf+0xf0>
    5e6a:	9b02      	ldr	r3, [sp, #8]
    5e6c:	9301      	str	r3, [sp, #4]
    5e6e:	42ab      	cmp	r3, r5
    5e70:	d102      	bne.n	5e78 <setvbuf+0xc8>
    5e72:	2001      	movs	r0, #1
    5e74:	4240      	negs	r0, r0
    5e76:	e006      	b.n	5e86 <setvbuf+0xd6>
    5e78:	9801      	ldr	r0, [sp, #4]
    5e7a:	f000 f9f7 	bl	626c <malloc>
    5e7e:	1e07      	subs	r7, r0, #0
    5e80:	d10e      	bne.n	5ea0 <setvbuf+0xf0>
    5e82:	e7f6      	b.n	5e72 <setvbuf+0xc2>
    5e84:	2000      	movs	r0, #0
    5e86:	2202      	movs	r2, #2
    5e88:	89a3      	ldrh	r3, [r4, #12]
    5e8a:	4313      	orrs	r3, r2
    5e8c:	81a3      	strh	r3, [r4, #12]
    5e8e:	2300      	movs	r3, #0
    5e90:	60a3      	str	r3, [r4, #8]
    5e92:	0023      	movs	r3, r4
    5e94:	3347      	adds	r3, #71	; 0x47
    5e96:	6023      	str	r3, [r4, #0]
    5e98:	6123      	str	r3, [r4, #16]
    5e9a:	2301      	movs	r3, #1
    5e9c:	6163      	str	r3, [r4, #20]
    5e9e:	e02a      	b.n	5ef6 <setvbuf+0x146>
    5ea0:	2280      	movs	r2, #128	; 0x80
    5ea2:	89a3      	ldrh	r3, [r4, #12]
    5ea4:	9d01      	ldr	r5, [sp, #4]
    5ea6:	4313      	orrs	r3, r2
    5ea8:	81a3      	strh	r3, [r4, #12]
    5eaa:	69b3      	ldr	r3, [r6, #24]
    5eac:	2b00      	cmp	r3, #0
    5eae:	d102      	bne.n	5eb6 <setvbuf+0x106>
    5eb0:	0030      	movs	r0, r6
    5eb2:	f000 f921 	bl	60f8 <__sinit>
    5eb6:	9b00      	ldr	r3, [sp, #0]
    5eb8:	2b01      	cmp	r3, #1
    5eba:	d103      	bne.n	5ec4 <setvbuf+0x114>
    5ebc:	89a3      	ldrh	r3, [r4, #12]
    5ebe:	9a00      	ldr	r2, [sp, #0]
    5ec0:	431a      	orrs	r2, r3
    5ec2:	81a2      	strh	r2, [r4, #12]
    5ec4:	2308      	movs	r3, #8
    5ec6:	89a2      	ldrh	r2, [r4, #12]
    5ec8:	6027      	str	r7, [r4, #0]
    5eca:	4013      	ands	r3, r2
    5ecc:	6127      	str	r7, [r4, #16]
    5ece:	6165      	str	r5, [r4, #20]
    5ed0:	1e18      	subs	r0, r3, #0
    5ed2:	d00c      	beq.n	5eee <setvbuf+0x13e>
    5ed4:	2301      	movs	r3, #1
    5ed6:	401a      	ands	r2, r3
    5ed8:	2300      	movs	r3, #0
    5eda:	1e10      	subs	r0, r2, #0
    5edc:	4298      	cmp	r0, r3
    5ede:	d004      	beq.n	5eea <setvbuf+0x13a>
    5ee0:	426d      	negs	r5, r5
    5ee2:	60a3      	str	r3, [r4, #8]
    5ee4:	61a5      	str	r5, [r4, #24]
    5ee6:	0018      	movs	r0, r3
    5ee8:	e005      	b.n	5ef6 <setvbuf+0x146>
    5eea:	60a5      	str	r5, [r4, #8]
    5eec:	e003      	b.n	5ef6 <setvbuf+0x146>
    5eee:	60a3      	str	r3, [r4, #8]
    5ef0:	e001      	b.n	5ef6 <setvbuf+0x146>
    5ef2:	2001      	movs	r0, #1
    5ef4:	4240      	negs	r0, r0
    5ef6:	b005      	add	sp, #20
    5ef8:	bdf0      	pop	{r4, r5, r6, r7, pc}
    5efa:	46c0      	nop			; (mov r8, r8)
    5efc:	20000088 	.word	0x20000088
    5f00:	000067a0 	.word	0x000067a0
    5f04:	000067c0 	.word	0x000067c0
    5f08:	000067e0 	.word	0x000067e0
    5f0c:	fffff35c 	.word	0xfffff35c

00005f10 <__sflush_r>:
    5f10:	b5f7      	push	{r0, r1, r2, r4, r5, r6, r7, lr}
    5f12:	898a      	ldrh	r2, [r1, #12]
    5f14:	0005      	movs	r5, r0
    5f16:	000c      	movs	r4, r1
    5f18:	0713      	lsls	r3, r2, #28
    5f1a:	d45a      	bmi.n	5fd2 <__sflush_r+0xc2>
    5f1c:	684b      	ldr	r3, [r1, #4]
    5f1e:	2b00      	cmp	r3, #0
    5f20:	dc02      	bgt.n	5f28 <__sflush_r+0x18>
    5f22:	6c0b      	ldr	r3, [r1, #64]	; 0x40
    5f24:	2b00      	cmp	r3, #0
    5f26:	dd19      	ble.n	5f5c <__sflush_r+0x4c>
    5f28:	6ae7      	ldr	r7, [r4, #44]	; 0x2c
    5f2a:	2f00      	cmp	r7, #0
    5f2c:	d016      	beq.n	5f5c <__sflush_r+0x4c>
    5f2e:	2300      	movs	r3, #0
    5f30:	682e      	ldr	r6, [r5, #0]
    5f32:	602b      	str	r3, [r5, #0]
    5f34:	2380      	movs	r3, #128	; 0x80
    5f36:	015b      	lsls	r3, r3, #5
    5f38:	401a      	ands	r2, r3
    5f3a:	d001      	beq.n	5f40 <__sflush_r+0x30>
    5f3c:	6d60      	ldr	r0, [r4, #84]	; 0x54
    5f3e:	e014      	b.n	5f6a <__sflush_r+0x5a>
    5f40:	2301      	movs	r3, #1
    5f42:	6a21      	ldr	r1, [r4, #32]
    5f44:	0028      	movs	r0, r5
    5f46:	47b8      	blx	r7
    5f48:	1c43      	adds	r3, r0, #1
    5f4a:	d10e      	bne.n	5f6a <__sflush_r+0x5a>
    5f4c:	682b      	ldr	r3, [r5, #0]
    5f4e:	2b00      	cmp	r3, #0
    5f50:	d00b      	beq.n	5f6a <__sflush_r+0x5a>
    5f52:	2b1d      	cmp	r3, #29
    5f54:	d001      	beq.n	5f5a <__sflush_r+0x4a>
    5f56:	2b16      	cmp	r3, #22
    5f58:	d102      	bne.n	5f60 <__sflush_r+0x50>
    5f5a:	602e      	str	r6, [r5, #0]
    5f5c:	2000      	movs	r0, #0
    5f5e:	e05a      	b.n	6016 <__sflush_r+0x106>
    5f60:	2240      	movs	r2, #64	; 0x40
    5f62:	89a3      	ldrh	r3, [r4, #12]
    5f64:	4313      	orrs	r3, r2
    5f66:	81a3      	strh	r3, [r4, #12]
    5f68:	e055      	b.n	6016 <__sflush_r+0x106>
    5f6a:	89a3      	ldrh	r3, [r4, #12]
    5f6c:	075b      	lsls	r3, r3, #29
    5f6e:	d506      	bpl.n	5f7e <__sflush_r+0x6e>
    5f70:	6863      	ldr	r3, [r4, #4]
    5f72:	1ac0      	subs	r0, r0, r3
    5f74:	6b63      	ldr	r3, [r4, #52]	; 0x34
    5f76:	2b00      	cmp	r3, #0
    5f78:	d001      	beq.n	5f7e <__sflush_r+0x6e>
    5f7a:	6c23      	ldr	r3, [r4, #64]	; 0x40
    5f7c:	1ac0      	subs	r0, r0, r3
    5f7e:	2300      	movs	r3, #0
    5f80:	0002      	movs	r2, r0
    5f82:	6a21      	ldr	r1, [r4, #32]
    5f84:	0028      	movs	r0, r5
    5f86:	6ae7      	ldr	r7, [r4, #44]	; 0x2c
    5f88:	47b8      	blx	r7
    5f8a:	89a3      	ldrh	r3, [r4, #12]
    5f8c:	1c42      	adds	r2, r0, #1
    5f8e:	d106      	bne.n	5f9e <__sflush_r+0x8e>
    5f90:	6829      	ldr	r1, [r5, #0]
    5f92:	291d      	cmp	r1, #29
    5f94:	d83a      	bhi.n	600c <__sflush_r+0xfc>
    5f96:	4a20      	ldr	r2, [pc, #128]	; (6018 <__sflush_r+0x108>)
    5f98:	40ca      	lsrs	r2, r1
    5f9a:	07d2      	lsls	r2, r2, #31
    5f9c:	d536      	bpl.n	600c <__sflush_r+0xfc>
    5f9e:	2200      	movs	r2, #0
    5fa0:	6062      	str	r2, [r4, #4]
    5fa2:	6922      	ldr	r2, [r4, #16]
    5fa4:	6022      	str	r2, [r4, #0]
    5fa6:	04db      	lsls	r3, r3, #19
    5fa8:	d505      	bpl.n	5fb6 <__sflush_r+0xa6>
    5faa:	1c43      	adds	r3, r0, #1
    5fac:	d102      	bne.n	5fb4 <__sflush_r+0xa4>
    5fae:	682b      	ldr	r3, [r5, #0]
    5fb0:	2b00      	cmp	r3, #0
    5fb2:	d100      	bne.n	5fb6 <__sflush_r+0xa6>
    5fb4:	6560      	str	r0, [r4, #84]	; 0x54
    5fb6:	6b61      	ldr	r1, [r4, #52]	; 0x34
    5fb8:	602e      	str	r6, [r5, #0]
    5fba:	2900      	cmp	r1, #0
    5fbc:	d0ce      	beq.n	5f5c <__sflush_r+0x4c>
    5fbe:	0023      	movs	r3, r4
    5fc0:	3344      	adds	r3, #68	; 0x44
    5fc2:	4299      	cmp	r1, r3
    5fc4:	d002      	beq.n	5fcc <__sflush_r+0xbc>
    5fc6:	0028      	movs	r0, r5
    5fc8:	f000 f95a 	bl	6280 <_free_r>
    5fcc:	2000      	movs	r0, #0
    5fce:	6360      	str	r0, [r4, #52]	; 0x34
    5fd0:	e021      	b.n	6016 <__sflush_r+0x106>
    5fd2:	690f      	ldr	r7, [r1, #16]
    5fd4:	2f00      	cmp	r7, #0
    5fd6:	d0c1      	beq.n	5f5c <__sflush_r+0x4c>
    5fd8:	680b      	ldr	r3, [r1, #0]
    5fda:	600f      	str	r7, [r1, #0]
    5fdc:	1bdb      	subs	r3, r3, r7
    5fde:	9301      	str	r3, [sp, #4]
    5fe0:	2300      	movs	r3, #0
    5fe2:	0792      	lsls	r2, r2, #30
    5fe4:	d100      	bne.n	5fe8 <__sflush_r+0xd8>
    5fe6:	694b      	ldr	r3, [r1, #20]
    5fe8:	60a3      	str	r3, [r4, #8]
    5fea:	e003      	b.n	5ff4 <__sflush_r+0xe4>
    5fec:	9b01      	ldr	r3, [sp, #4]
    5fee:	183f      	adds	r7, r7, r0
    5ff0:	1a1b      	subs	r3, r3, r0
    5ff2:	9301      	str	r3, [sp, #4]
    5ff4:	9b01      	ldr	r3, [sp, #4]
    5ff6:	2b00      	cmp	r3, #0
    5ff8:	ddb0      	ble.n	5f5c <__sflush_r+0x4c>
    5ffa:	9b01      	ldr	r3, [sp, #4]
    5ffc:	003a      	movs	r2, r7
    5ffe:	6a21      	ldr	r1, [r4, #32]
    6000:	0028      	movs	r0, r5
    6002:	6aa6      	ldr	r6, [r4, #40]	; 0x28
    6004:	47b0      	blx	r6
    6006:	2800      	cmp	r0, #0
    6008:	dcf0      	bgt.n	5fec <__sflush_r+0xdc>
    600a:	89a3      	ldrh	r3, [r4, #12]
    600c:	2240      	movs	r2, #64	; 0x40
    600e:	2001      	movs	r0, #1
    6010:	4313      	orrs	r3, r2
    6012:	81a3      	strh	r3, [r4, #12]
    6014:	4240      	negs	r0, r0
    6016:	bdfe      	pop	{r1, r2, r3, r4, r5, r6, r7, pc}
    6018:	20400001 	.word	0x20400001

0000601c <_fflush_r>:
    601c:	690b      	ldr	r3, [r1, #16]
    601e:	b570      	push	{r4, r5, r6, lr}
    6020:	0005      	movs	r5, r0
    6022:	000c      	movs	r4, r1
    6024:	2b00      	cmp	r3, #0
    6026:	d101      	bne.n	602c <_fflush_r+0x10>
    6028:	2000      	movs	r0, #0
    602a:	e01c      	b.n	6066 <_fflush_r+0x4a>
    602c:	2800      	cmp	r0, #0
    602e:	d004      	beq.n	603a <_fflush_r+0x1e>
    6030:	6983      	ldr	r3, [r0, #24]
    6032:	2b00      	cmp	r3, #0
    6034:	d101      	bne.n	603a <_fflush_r+0x1e>
    6036:	f000 f85f 	bl	60f8 <__sinit>
    603a:	4b0b      	ldr	r3, [pc, #44]	; (6068 <_fflush_r+0x4c>)
    603c:	429c      	cmp	r4, r3
    603e:	d101      	bne.n	6044 <_fflush_r+0x28>
    6040:	686c      	ldr	r4, [r5, #4]
    6042:	e008      	b.n	6056 <_fflush_r+0x3a>
    6044:	4b09      	ldr	r3, [pc, #36]	; (606c <_fflush_r+0x50>)
    6046:	429c      	cmp	r4, r3
    6048:	d101      	bne.n	604e <_fflush_r+0x32>
    604a:	68ac      	ldr	r4, [r5, #8]
    604c:	e003      	b.n	6056 <_fflush_r+0x3a>
    604e:	4b08      	ldr	r3, [pc, #32]	; (6070 <_fflush_r+0x54>)
    6050:	429c      	cmp	r4, r3
    6052:	d100      	bne.n	6056 <_fflush_r+0x3a>
    6054:	68ec      	ldr	r4, [r5, #12]
    6056:	220c      	movs	r2, #12
    6058:	5ea3      	ldrsh	r3, [r4, r2]
    605a:	2b00      	cmp	r3, #0
    605c:	d0e4      	beq.n	6028 <_fflush_r+0xc>
    605e:	0021      	movs	r1, r4
    6060:	0028      	movs	r0, r5
    6062:	f7ff ff55 	bl	5f10 <__sflush_r>
    6066:	bd70      	pop	{r4, r5, r6, pc}
    6068:	000067a0 	.word	0x000067a0
    606c:	000067c0 	.word	0x000067c0
    6070:	000067e0 	.word	0x000067e0

00006074 <_cleanup_r>:
    6074:	b510      	push	{r4, lr}
    6076:	4902      	ldr	r1, [pc, #8]	; (6080 <_cleanup_r+0xc>)
    6078:	f000 f8b0 	bl	61dc <_fwalk_reent>
    607c:	bd10      	pop	{r4, pc}
    607e:	46c0      	nop			; (mov r8, r8)
    6080:	0000601d 	.word	0x0000601d

00006084 <std.isra.0>:
    6084:	2300      	movs	r3, #0
    6086:	b510      	push	{r4, lr}
    6088:	0004      	movs	r4, r0
    608a:	6003      	str	r3, [r0, #0]
    608c:	6043      	str	r3, [r0, #4]
    608e:	6083      	str	r3, [r0, #8]
    6090:	8181      	strh	r1, [r0, #12]
    6092:	6643      	str	r3, [r0, #100]	; 0x64
    6094:	81c2      	strh	r2, [r0, #14]
    6096:	6103      	str	r3, [r0, #16]
    6098:	6143      	str	r3, [r0, #20]
    609a:	6183      	str	r3, [r0, #24]
    609c:	0019      	movs	r1, r3
    609e:	2208      	movs	r2, #8
    60a0:	305c      	adds	r0, #92	; 0x5c
    60a2:	f7ff fe74 	bl	5d8e <memset>
    60a6:	4b05      	ldr	r3, [pc, #20]	; (60bc <std.isra.0+0x38>)
    60a8:	6224      	str	r4, [r4, #32]
    60aa:	6263      	str	r3, [r4, #36]	; 0x24
    60ac:	4b04      	ldr	r3, [pc, #16]	; (60c0 <std.isra.0+0x3c>)
    60ae:	62a3      	str	r3, [r4, #40]	; 0x28
    60b0:	4b04      	ldr	r3, [pc, #16]	; (60c4 <std.isra.0+0x40>)
    60b2:	62e3      	str	r3, [r4, #44]	; 0x2c
    60b4:	4b04      	ldr	r3, [pc, #16]	; (60c8 <std.isra.0+0x44>)
    60b6:	6323      	str	r3, [r4, #48]	; 0x30
    60b8:	bd10      	pop	{r4, pc}
    60ba:	46c0      	nop			; (mov r8, r8)
    60bc:	000063dd 	.word	0x000063dd
    60c0:	00006405 	.word	0x00006405
    60c4:	0000643d 	.word	0x0000643d
    60c8:	00006469 	.word	0x00006469

000060cc <__sfmoreglue>:
    60cc:	b570      	push	{r4, r5, r6, lr}
    60ce:	2568      	movs	r5, #104	; 0x68
    60d0:	1e4b      	subs	r3, r1, #1
    60d2:	435d      	muls	r5, r3
    60d4:	000e      	movs	r6, r1
    60d6:	0029      	movs	r1, r5
    60d8:	3174      	adds	r1, #116	; 0x74
    60da:	f000 f917 	bl	630c <_malloc_r>
    60de:	1e04      	subs	r4, r0, #0
    60e0:	d008      	beq.n	60f4 <__sfmoreglue+0x28>
    60e2:	2100      	movs	r1, #0
    60e4:	002a      	movs	r2, r5
    60e6:	6001      	str	r1, [r0, #0]
    60e8:	6046      	str	r6, [r0, #4]
    60ea:	300c      	adds	r0, #12
    60ec:	60a0      	str	r0, [r4, #8]
    60ee:	3268      	adds	r2, #104	; 0x68
    60f0:	f7ff fe4d 	bl	5d8e <memset>
    60f4:	0020      	movs	r0, r4
    60f6:	bd70      	pop	{r4, r5, r6, pc}

000060f8 <__sinit>:
    60f8:	6983      	ldr	r3, [r0, #24]
    60fa:	b513      	push	{r0, r1, r4, lr}
    60fc:	0004      	movs	r4, r0
    60fe:	2b00      	cmp	r3, #0
    6100:	d128      	bne.n	6154 <__sinit+0x5c>
    6102:	6483      	str	r3, [r0, #72]	; 0x48
    6104:	64c3      	str	r3, [r0, #76]	; 0x4c
    6106:	6503      	str	r3, [r0, #80]	; 0x50
    6108:	4b13      	ldr	r3, [pc, #76]	; (6158 <__sinit+0x60>)
    610a:	4a14      	ldr	r2, [pc, #80]	; (615c <__sinit+0x64>)
    610c:	681b      	ldr	r3, [r3, #0]
    610e:	6282      	str	r2, [r0, #40]	; 0x28
    6110:	9301      	str	r3, [sp, #4]
    6112:	4298      	cmp	r0, r3
    6114:	d101      	bne.n	611a <__sinit+0x22>
    6116:	2301      	movs	r3, #1
    6118:	6183      	str	r3, [r0, #24]
    611a:	0020      	movs	r0, r4
    611c:	f000 f820 	bl	6160 <__sfp>
    6120:	6060      	str	r0, [r4, #4]
    6122:	0020      	movs	r0, r4
    6124:	f000 f81c 	bl	6160 <__sfp>
    6128:	60a0      	str	r0, [r4, #8]
    612a:	0020      	movs	r0, r4
    612c:	f000 f818 	bl	6160 <__sfp>
    6130:	2200      	movs	r2, #0
    6132:	60e0      	str	r0, [r4, #12]
    6134:	2104      	movs	r1, #4
    6136:	6860      	ldr	r0, [r4, #4]
    6138:	f7ff ffa4 	bl	6084 <std.isra.0>
    613c:	2201      	movs	r2, #1
    613e:	2109      	movs	r1, #9
    6140:	68a0      	ldr	r0, [r4, #8]
    6142:	f7ff ff9f 	bl	6084 <std.isra.0>
    6146:	2202      	movs	r2, #2
    6148:	2112      	movs	r1, #18
    614a:	68e0      	ldr	r0, [r4, #12]
    614c:	f7ff ff9a 	bl	6084 <std.isra.0>
    6150:	2301      	movs	r3, #1
    6152:	61a3      	str	r3, [r4, #24]
    6154:	bd13      	pop	{r0, r1, r4, pc}
    6156:	46c0      	nop			; (mov r8, r8)
    6158:	0000679c 	.word	0x0000679c
    615c:	00006075 	.word	0x00006075

00006160 <__sfp>:
    6160:	b5f8      	push	{r3, r4, r5, r6, r7, lr}
    6162:	4b1d      	ldr	r3, [pc, #116]	; (61d8 <__sfp+0x78>)
    6164:	0006      	movs	r6, r0
    6166:	681d      	ldr	r5, [r3, #0]
    6168:	69ab      	ldr	r3, [r5, #24]
    616a:	2b00      	cmp	r3, #0
    616c:	d102      	bne.n	6174 <__sfp+0x14>
    616e:	0028      	movs	r0, r5
    6170:	f7ff ffc2 	bl	60f8 <__sinit>
    6174:	3548      	adds	r5, #72	; 0x48
    6176:	68ac      	ldr	r4, [r5, #8]
    6178:	686b      	ldr	r3, [r5, #4]
    617a:	3b01      	subs	r3, #1
    617c:	d405      	bmi.n	618a <__sfp+0x2a>
    617e:	220c      	movs	r2, #12
    6180:	5ea7      	ldrsh	r7, [r4, r2]
    6182:	2f00      	cmp	r7, #0
    6184:	d010      	beq.n	61a8 <__sfp+0x48>
    6186:	3468      	adds	r4, #104	; 0x68
    6188:	e7f7      	b.n	617a <__sfp+0x1a>
    618a:	682b      	ldr	r3, [r5, #0]
    618c:	2b00      	cmp	r3, #0
    618e:	d001      	beq.n	6194 <__sfp+0x34>
    6190:	682d      	ldr	r5, [r5, #0]
    6192:	e7f0      	b.n	6176 <__sfp+0x16>
    6194:	2104      	movs	r1, #4
    6196:	0030      	movs	r0, r6
    6198:	f7ff ff98 	bl	60cc <__sfmoreglue>
    619c:	6028      	str	r0, [r5, #0]
    619e:	2800      	cmp	r0, #0
    61a0:	d1f6      	bne.n	6190 <__sfp+0x30>
    61a2:	230c      	movs	r3, #12
    61a4:	6033      	str	r3, [r6, #0]
    61a6:	e016      	b.n	61d6 <__sfp+0x76>
    61a8:	2301      	movs	r3, #1
    61aa:	0020      	movs	r0, r4
    61ac:	425b      	negs	r3, r3
    61ae:	81e3      	strh	r3, [r4, #14]
    61b0:	3302      	adds	r3, #2
    61b2:	81a3      	strh	r3, [r4, #12]
    61b4:	6667      	str	r7, [r4, #100]	; 0x64
    61b6:	6027      	str	r7, [r4, #0]
    61b8:	60a7      	str	r7, [r4, #8]
    61ba:	6067      	str	r7, [r4, #4]
    61bc:	6127      	str	r7, [r4, #16]
    61be:	6167      	str	r7, [r4, #20]
    61c0:	61a7      	str	r7, [r4, #24]
    61c2:	305c      	adds	r0, #92	; 0x5c
    61c4:	2208      	movs	r2, #8
    61c6:	0039      	movs	r1, r7
    61c8:	f7ff fde1 	bl	5d8e <memset>
    61cc:	0020      	movs	r0, r4
    61ce:	6367      	str	r7, [r4, #52]	; 0x34
    61d0:	63a7      	str	r7, [r4, #56]	; 0x38
    61d2:	64a7      	str	r7, [r4, #72]	; 0x48
    61d4:	64e7      	str	r7, [r4, #76]	; 0x4c
    61d6:	bdf8      	pop	{r3, r4, r5, r6, r7, pc}
    61d8:	0000679c 	.word	0x0000679c

000061dc <_fwalk_reent>:
    61dc:	b5f7      	push	{r0, r1, r2, r4, r5, r6, r7, lr}
    61de:	0004      	movs	r4, r0
    61e0:	0007      	movs	r7, r0
    61e2:	2600      	movs	r6, #0
    61e4:	9101      	str	r1, [sp, #4]
    61e6:	3448      	adds	r4, #72	; 0x48
    61e8:	2c00      	cmp	r4, #0
    61ea:	d016      	beq.n	621a <_fwalk_reent+0x3e>
    61ec:	6863      	ldr	r3, [r4, #4]
    61ee:	68a5      	ldr	r5, [r4, #8]
    61f0:	9300      	str	r3, [sp, #0]
    61f2:	9b00      	ldr	r3, [sp, #0]
    61f4:	3b01      	subs	r3, #1
    61f6:	9300      	str	r3, [sp, #0]
    61f8:	d40d      	bmi.n	6216 <_fwalk_reent+0x3a>
    61fa:	89ab      	ldrh	r3, [r5, #12]
    61fc:	2b01      	cmp	r3, #1
    61fe:	d908      	bls.n	6212 <_fwalk_reent+0x36>
    6200:	220e      	movs	r2, #14
    6202:	5eab      	ldrsh	r3, [r5, r2]
    6204:	3301      	adds	r3, #1
    6206:	d004      	beq.n	6212 <_fwalk_reent+0x36>
    6208:	0029      	movs	r1, r5
    620a:	0038      	movs	r0, r7
    620c:	9b01      	ldr	r3, [sp, #4]
    620e:	4798      	blx	r3
    6210:	4306      	orrs	r6, r0
    6212:	3568      	adds	r5, #104	; 0x68
    6214:	e7ed      	b.n	61f2 <_fwalk_reent+0x16>
    6216:	6824      	ldr	r4, [r4, #0]
    6218:	e7e6      	b.n	61e8 <_fwalk_reent+0xc>
    621a:	0030      	movs	r0, r6
    621c:	bdfe      	pop	{r1, r2, r3, r4, r5, r6, r7, pc}
	...

00006220 <__swhatbuf_r>:
    6220:	b570      	push	{r4, r5, r6, lr}
    6222:	000e      	movs	r6, r1
    6224:	001d      	movs	r5, r3
    6226:	230e      	movs	r3, #14
    6228:	5ec9      	ldrsh	r1, [r1, r3]
    622a:	b090      	sub	sp, #64	; 0x40
    622c:	0014      	movs	r4, r2
    622e:	2900      	cmp	r1, #0
    6230:	da06      	bge.n	6240 <__swhatbuf_r+0x20>
    6232:	2300      	movs	r3, #0
    6234:	602b      	str	r3, [r5, #0]
    6236:	89b3      	ldrh	r3, [r6, #12]
    6238:	061b      	lsls	r3, r3, #24
    623a:	d50f      	bpl.n	625c <__swhatbuf_r+0x3c>
    623c:	2340      	movs	r3, #64	; 0x40
    623e:	e00f      	b.n	6260 <__swhatbuf_r+0x40>
    6240:	aa01      	add	r2, sp, #4
    6242:	f000 f93d 	bl	64c0 <_fstat_r>
    6246:	2800      	cmp	r0, #0
    6248:	dbf3      	blt.n	6232 <__swhatbuf_r+0x12>
    624a:	23f0      	movs	r3, #240	; 0xf0
    624c:	9a02      	ldr	r2, [sp, #8]
    624e:	021b      	lsls	r3, r3, #8
    6250:	4013      	ands	r3, r2
    6252:	4a05      	ldr	r2, [pc, #20]	; (6268 <__swhatbuf_r+0x48>)
    6254:	189b      	adds	r3, r3, r2
    6256:	425a      	negs	r2, r3
    6258:	4153      	adcs	r3, r2
    625a:	602b      	str	r3, [r5, #0]
    625c:	2380      	movs	r3, #128	; 0x80
    625e:	00db      	lsls	r3, r3, #3
    6260:	2000      	movs	r0, #0
    6262:	6023      	str	r3, [r4, #0]
    6264:	b010      	add	sp, #64	; 0x40
    6266:	bd70      	pop	{r4, r5, r6, pc}
    6268:	ffffe000 	.word	0xffffe000

0000626c <malloc>:
    626c:	b510      	push	{r4, lr}
    626e:	4b03      	ldr	r3, [pc, #12]	; (627c <malloc+0x10>)
    6270:	0001      	movs	r1, r0
    6272:	6818      	ldr	r0, [r3, #0]
    6274:	f000 f84a 	bl	630c <_malloc_r>
    6278:	bd10      	pop	{r4, pc}
    627a:	46c0      	nop			; (mov r8, r8)
    627c:	20000088 	.word	0x20000088

00006280 <_free_r>:
    6280:	b530      	push	{r4, r5, lr}
    6282:	2900      	cmp	r1, #0
    6284:	d03e      	beq.n	6304 <_free_r+0x84>
    6286:	3904      	subs	r1, #4
    6288:	680b      	ldr	r3, [r1, #0]
    628a:	2b00      	cmp	r3, #0
    628c:	da00      	bge.n	6290 <_free_r+0x10>
    628e:	18c9      	adds	r1, r1, r3
    6290:	4a1d      	ldr	r2, [pc, #116]	; (6308 <_free_r+0x88>)
    6292:	6813      	ldr	r3, [r2, #0]
    6294:	0014      	movs	r4, r2
    6296:	2b00      	cmp	r3, #0
    6298:	d102      	bne.n	62a0 <_free_r+0x20>
    629a:	604b      	str	r3, [r1, #4]
    629c:	6011      	str	r1, [r2, #0]
    629e:	e031      	b.n	6304 <_free_r+0x84>
    62a0:	428b      	cmp	r3, r1
    62a2:	d90d      	bls.n	62c0 <_free_r+0x40>
    62a4:	680a      	ldr	r2, [r1, #0]
    62a6:	1888      	adds	r0, r1, r2
    62a8:	4283      	cmp	r3, r0
    62aa:	d103      	bne.n	62b4 <_free_r+0x34>
    62ac:	6818      	ldr	r0, [r3, #0]
    62ae:	685b      	ldr	r3, [r3, #4]
    62b0:	1882      	adds	r2, r0, r2
    62b2:	600a      	str	r2, [r1, #0]
    62b4:	604b      	str	r3, [r1, #4]
    62b6:	6021      	str	r1, [r4, #0]
    62b8:	e024      	b.n	6304 <_free_r+0x84>
    62ba:	428a      	cmp	r2, r1
    62bc:	d803      	bhi.n	62c6 <_free_r+0x46>
    62be:	0013      	movs	r3, r2
    62c0:	685a      	ldr	r2, [r3, #4]
    62c2:	2a00      	cmp	r2, #0
    62c4:	d1f9      	bne.n	62ba <_free_r+0x3a>
    62c6:	681d      	ldr	r5, [r3, #0]
    62c8:	195c      	adds	r4, r3, r5
    62ca:	428c      	cmp	r4, r1
    62cc:	d10b      	bne.n	62e6 <_free_r+0x66>
    62ce:	6809      	ldr	r1, [r1, #0]
    62d0:	1869      	adds	r1, r5, r1
    62d2:	1858      	adds	r0, r3, r1
    62d4:	6019      	str	r1, [r3, #0]
    62d6:	4282      	cmp	r2, r0
    62d8:	d114      	bne.n	6304 <_free_r+0x84>
    62da:	6810      	ldr	r0, [r2, #0]
    62dc:	6852      	ldr	r2, [r2, #4]
    62de:	1841      	adds	r1, r0, r1
    62e0:	6019      	str	r1, [r3, #0]
    62e2:	605a      	str	r2, [r3, #4]
    62e4:	e00e      	b.n	6304 <_free_r+0x84>
    62e6:	428c      	cmp	r4, r1
    62e8:	d902      	bls.n	62f0 <_free_r+0x70>
    62ea:	230c      	movs	r3, #12
    62ec:	6003      	str	r3, [r0, #0]
    62ee:	e009      	b.n	6304 <_free_r+0x84>
    62f0:	6808      	ldr	r0, [r1, #0]
    62f2:	180c      	adds	r4, r1, r0
    62f4:	42a2      	cmp	r2, r4
    62f6:	d103      	bne.n	6300 <_free_r+0x80>
    62f8:	6814      	ldr	r4, [r2, #0]
    62fa:	6852      	ldr	r2, [r2, #4]
    62fc:	1820      	adds	r0, r4, r0
    62fe:	6008      	str	r0, [r1, #0]
    6300:	604a      	str	r2, [r1, #4]
    6302:	6059      	str	r1, [r3, #4]
    6304:	bd30      	pop	{r4, r5, pc}
    6306:	46c0      	nop			; (mov r8, r8)
    6308:	20003ce4 	.word	0x20003ce4

0000630c <_malloc_r>:
    630c:	2303      	movs	r3, #3
    630e:	b570      	push	{r4, r5, r6, lr}
    6310:	1ccd      	adds	r5, r1, #3
    6312:	439d      	bics	r5, r3
    6314:	3508      	adds	r5, #8
    6316:	0006      	movs	r6, r0
    6318:	2d0c      	cmp	r5, #12
    631a:	d201      	bcs.n	6320 <_malloc_r+0x14>
    631c:	250c      	movs	r5, #12
    631e:	e005      	b.n	632c <_malloc_r+0x20>
    6320:	2d00      	cmp	r5, #0
    6322:	da03      	bge.n	632c <_malloc_r+0x20>
    6324:	230c      	movs	r3, #12
    6326:	2000      	movs	r0, #0
    6328:	6033      	str	r3, [r6, #0]
    632a:	e040      	b.n	63ae <_malloc_r+0xa2>
    632c:	42a9      	cmp	r1, r5
    632e:	d8f9      	bhi.n	6324 <_malloc_r+0x18>
    6330:	4b1f      	ldr	r3, [pc, #124]	; (63b0 <_malloc_r+0xa4>)
    6332:	681c      	ldr	r4, [r3, #0]
    6334:	001a      	movs	r2, r3
    6336:	0021      	movs	r1, r4
    6338:	2900      	cmp	r1, #0
    633a:	d013      	beq.n	6364 <_malloc_r+0x58>
    633c:	680b      	ldr	r3, [r1, #0]
    633e:	1b5b      	subs	r3, r3, r5
    6340:	d40d      	bmi.n	635e <_malloc_r+0x52>
    6342:	2b0b      	cmp	r3, #11
    6344:	d902      	bls.n	634c <_malloc_r+0x40>
    6346:	600b      	str	r3, [r1, #0]
    6348:	18cc      	adds	r4, r1, r3
    634a:	e01e      	b.n	638a <_malloc_r+0x7e>
    634c:	428c      	cmp	r4, r1
    634e:	d102      	bne.n	6356 <_malloc_r+0x4a>
    6350:	6863      	ldr	r3, [r4, #4]
    6352:	6013      	str	r3, [r2, #0]
    6354:	e01a      	b.n	638c <_malloc_r+0x80>
    6356:	684b      	ldr	r3, [r1, #4]
    6358:	6063      	str	r3, [r4, #4]
    635a:	000c      	movs	r4, r1
    635c:	e016      	b.n	638c <_malloc_r+0x80>
    635e:	000c      	movs	r4, r1
    6360:	6849      	ldr	r1, [r1, #4]
    6362:	e7e9      	b.n	6338 <_malloc_r+0x2c>
    6364:	4c13      	ldr	r4, [pc, #76]	; (63b4 <_malloc_r+0xa8>)
    6366:	6823      	ldr	r3, [r4, #0]
    6368:	2b00      	cmp	r3, #0
    636a:	d103      	bne.n	6374 <_malloc_r+0x68>
    636c:	0030      	movs	r0, r6
    636e:	f000 f823 	bl	63b8 <_sbrk_r>
    6372:	6020      	str	r0, [r4, #0]
    6374:	0029      	movs	r1, r5
    6376:	0030      	movs	r0, r6
    6378:	f000 f81e 	bl	63b8 <_sbrk_r>
    637c:	1c43      	adds	r3, r0, #1
    637e:	d0d1      	beq.n	6324 <_malloc_r+0x18>
    6380:	2303      	movs	r3, #3
    6382:	1cc4      	adds	r4, r0, #3
    6384:	439c      	bics	r4, r3
    6386:	42a0      	cmp	r0, r4
    6388:	d10a      	bne.n	63a0 <_malloc_r+0x94>
    638a:	6025      	str	r5, [r4, #0]
    638c:	0020      	movs	r0, r4
    638e:	2207      	movs	r2, #7
    6390:	300b      	adds	r0, #11
    6392:	1d23      	adds	r3, r4, #4
    6394:	4390      	bics	r0, r2
    6396:	1ac3      	subs	r3, r0, r3
    6398:	d009      	beq.n	63ae <_malloc_r+0xa2>
    639a:	425a      	negs	r2, r3
    639c:	50e2      	str	r2, [r4, r3]
    639e:	e006      	b.n	63ae <_malloc_r+0xa2>
    63a0:	1a21      	subs	r1, r4, r0
    63a2:	0030      	movs	r0, r6
    63a4:	f000 f808 	bl	63b8 <_sbrk_r>
    63a8:	1c43      	adds	r3, r0, #1
    63aa:	d1ee      	bne.n	638a <_malloc_r+0x7e>
    63ac:	e7ba      	b.n	6324 <_malloc_r+0x18>
    63ae:	bd70      	pop	{r4, r5, r6, pc}
    63b0:	20003ce4 	.word	0x20003ce4
    63b4:	20003ce0 	.word	0x20003ce0

000063b8 <_sbrk_r>:
    63b8:	2300      	movs	r3, #0
    63ba:	b570      	push	{r4, r5, r6, lr}
    63bc:	4c06      	ldr	r4, [pc, #24]	; (63d8 <_sbrk_r+0x20>)
    63be:	0005      	movs	r5, r0
    63c0:	0008      	movs	r0, r1
    63c2:	6023      	str	r3, [r4, #0]
    63c4:	f7fd f9c6 	bl	3754 <_sbrk>
    63c8:	1c43      	adds	r3, r0, #1
    63ca:	d103      	bne.n	63d4 <_sbrk_r+0x1c>
    63cc:	6823      	ldr	r3, [r4, #0]
    63ce:	2b00      	cmp	r3, #0
    63d0:	d000      	beq.n	63d4 <_sbrk_r+0x1c>
    63d2:	602b      	str	r3, [r5, #0]
    63d4:	bd70      	pop	{r4, r5, r6, pc}
    63d6:	46c0      	nop			; (mov r8, r8)
    63d8:	20003f80 	.word	0x20003f80

000063dc <__sread>:
    63dc:	b570      	push	{r4, r5, r6, lr}
    63de:	000c      	movs	r4, r1
    63e0:	250e      	movs	r5, #14
    63e2:	5f49      	ldrsh	r1, [r1, r5]
    63e4:	f000 f892 	bl	650c <_read_r>
    63e8:	2800      	cmp	r0, #0
    63ea:	db03      	blt.n	63f4 <__sread+0x18>
    63ec:	6d63      	ldr	r3, [r4, #84]	; 0x54
    63ee:	181b      	adds	r3, r3, r0
    63f0:	6563      	str	r3, [r4, #84]	; 0x54
    63f2:	e003      	b.n	63fc <__sread+0x20>
    63f4:	89a2      	ldrh	r2, [r4, #12]
    63f6:	4b02      	ldr	r3, [pc, #8]	; (6400 <__sread+0x24>)
    63f8:	4013      	ands	r3, r2
    63fa:	81a3      	strh	r3, [r4, #12]
    63fc:	bd70      	pop	{r4, r5, r6, pc}
    63fe:	46c0      	nop			; (mov r8, r8)
    6400:	ffffefff 	.word	0xffffefff

00006404 <__swrite>:
    6404:	b5f8      	push	{r3, r4, r5, r6, r7, lr}
    6406:	001f      	movs	r7, r3
    6408:	898b      	ldrh	r3, [r1, #12]
    640a:	0005      	movs	r5, r0
    640c:	000c      	movs	r4, r1
    640e:	0016      	movs	r6, r2
    6410:	05db      	lsls	r3, r3, #23
    6412:	d505      	bpl.n	6420 <__swrite+0x1c>
    6414:	230e      	movs	r3, #14
    6416:	5ec9      	ldrsh	r1, [r1, r3]
    6418:	2200      	movs	r2, #0
    641a:	2302      	movs	r3, #2
    641c:	f000 f862 	bl	64e4 <_lseek_r>
    6420:	89a2      	ldrh	r2, [r4, #12]
    6422:	4b05      	ldr	r3, [pc, #20]	; (6438 <__swrite+0x34>)
    6424:	0028      	movs	r0, r5
    6426:	4013      	ands	r3, r2
    6428:	81a3      	strh	r3, [r4, #12]
    642a:	0032      	movs	r2, r6
    642c:	230e      	movs	r3, #14
    642e:	5ee1      	ldrsh	r1, [r4, r3]
    6430:	003b      	movs	r3, r7
    6432:	f000 f81f 	bl	6474 <_write_r>
    6436:	bdf8      	pop	{r3, r4, r5, r6, r7, pc}
    6438:	ffffefff 	.word	0xffffefff

0000643c <__sseek>:
    643c:	b570      	push	{r4, r5, r6, lr}
    643e:	000c      	movs	r4, r1
    6440:	250e      	movs	r5, #14
    6442:	5f49      	ldrsh	r1, [r1, r5]
    6444:	f000 f84e 	bl	64e4 <_lseek_r>
    6448:	89a3      	ldrh	r3, [r4, #12]
    644a:	1c42      	adds	r2, r0, #1
    644c:	d103      	bne.n	6456 <__sseek+0x1a>
    644e:	4a05      	ldr	r2, [pc, #20]	; (6464 <__sseek+0x28>)
    6450:	4013      	ands	r3, r2
    6452:	81a3      	strh	r3, [r4, #12]
    6454:	e004      	b.n	6460 <__sseek+0x24>
    6456:	2280      	movs	r2, #128	; 0x80
    6458:	0152      	lsls	r2, r2, #5
    645a:	4313      	orrs	r3, r2
    645c:	81a3      	strh	r3, [r4, #12]
    645e:	6560      	str	r0, [r4, #84]	; 0x54
    6460:	bd70      	pop	{r4, r5, r6, pc}
    6462:	46c0      	nop			; (mov r8, r8)
    6464:	ffffefff 	.word	0xffffefff

00006468 <__sclose>:
    6468:	b510      	push	{r4, lr}
    646a:	230e      	movs	r3, #14
    646c:	5ec9      	ldrsh	r1, [r1, r3]
    646e:	f000 f815 	bl	649c <_close_r>
    6472:	bd10      	pop	{r4, pc}

00006474 <_write_r>:
    6474:	b570      	push	{r4, r5, r6, lr}
    6476:	0005      	movs	r5, r0
    6478:	0008      	movs	r0, r1
    647a:	0011      	movs	r1, r2
    647c:	2200      	movs	r2, #0
    647e:	4c06      	ldr	r4, [pc, #24]	; (6498 <_write_r+0x24>)
    6480:	6022      	str	r2, [r4, #0]
    6482:	001a      	movs	r2, r3
    6484:	f7fa fbfc 	bl	c80 <_write>
    6488:	1c43      	adds	r3, r0, #1
    648a:	d103      	bne.n	6494 <_write_r+0x20>
    648c:	6823      	ldr	r3, [r4, #0]
    648e:	2b00      	cmp	r3, #0
    6490:	d000      	beq.n	6494 <_write_r+0x20>
    6492:	602b      	str	r3, [r5, #0]
    6494:	bd70      	pop	{r4, r5, r6, pc}
    6496:	46c0      	nop			; (mov r8, r8)
    6498:	20003f80 	.word	0x20003f80

0000649c <_close_r>:
    649c:	2300      	movs	r3, #0
    649e:	b570      	push	{r4, r5, r6, lr}
    64a0:	4c06      	ldr	r4, [pc, #24]	; (64bc <_close_r+0x20>)
    64a2:	0005      	movs	r5, r0
    64a4:	0008      	movs	r0, r1
    64a6:	6023      	str	r3, [r4, #0]
    64a8:	f7fd f966 	bl	3778 <_close>
    64ac:	1c43      	adds	r3, r0, #1
    64ae:	d103      	bne.n	64b8 <_close_r+0x1c>
    64b0:	6823      	ldr	r3, [r4, #0]
    64b2:	2b00      	cmp	r3, #0
    64b4:	d000      	beq.n	64b8 <_close_r+0x1c>
    64b6:	602b      	str	r3, [r5, #0]
    64b8:	bd70      	pop	{r4, r5, r6, pc}
    64ba:	46c0      	nop			; (mov r8, r8)
    64bc:	20003f80 	.word	0x20003f80

000064c0 <_fstat_r>:
    64c0:	2300      	movs	r3, #0
    64c2:	b570      	push	{r4, r5, r6, lr}
    64c4:	4c06      	ldr	r4, [pc, #24]	; (64e0 <_fstat_r+0x20>)
    64c6:	0005      	movs	r5, r0
    64c8:	0008      	movs	r0, r1
    64ca:	0011      	movs	r1, r2
    64cc:	6023      	str	r3, [r4, #0]
    64ce:	f7fd f957 	bl	3780 <_fstat>
    64d2:	1c43      	adds	r3, r0, #1
    64d4:	d103      	bne.n	64de <_fstat_r+0x1e>
    64d6:	6823      	ldr	r3, [r4, #0]
    64d8:	2b00      	cmp	r3, #0
    64da:	d000      	beq.n	64de <_fstat_r+0x1e>
    64dc:	602b      	str	r3, [r5, #0]
    64de:	bd70      	pop	{r4, r5, r6, pc}
    64e0:	20003f80 	.word	0x20003f80

000064e4 <_lseek_r>:
    64e4:	b570      	push	{r4, r5, r6, lr}
    64e6:	0005      	movs	r5, r0
    64e8:	0008      	movs	r0, r1
    64ea:	0011      	movs	r1, r2
    64ec:	2200      	movs	r2, #0
    64ee:	4c06      	ldr	r4, [pc, #24]	; (6508 <_lseek_r+0x24>)
    64f0:	6022      	str	r2, [r4, #0]
    64f2:	001a      	movs	r2, r3
    64f4:	f7fd f94a 	bl	378c <_lseek>
    64f8:	1c43      	adds	r3, r0, #1
    64fa:	d103      	bne.n	6504 <_lseek_r+0x20>
    64fc:	6823      	ldr	r3, [r4, #0]
    64fe:	2b00      	cmp	r3, #0
    6500:	d000      	beq.n	6504 <_lseek_r+0x20>
    6502:	602b      	str	r3, [r5, #0]
    6504:	bd70      	pop	{r4, r5, r6, pc}
    6506:	46c0      	nop			; (mov r8, r8)
    6508:	20003f80 	.word	0x20003f80

0000650c <_read_r>:
    650c:	b570      	push	{r4, r5, r6, lr}
    650e:	0005      	movs	r5, r0
    6510:	0008      	movs	r0, r1
    6512:	0011      	movs	r1, r2
    6514:	2200      	movs	r2, #0
    6516:	4c06      	ldr	r4, [pc, #24]	; (6530 <_read_r+0x24>)
    6518:	6022      	str	r2, [r4, #0]
    651a:	001a      	movs	r2, r3
    651c:	f7fa fb90 	bl	c40 <_read>
    6520:	1c43      	adds	r3, r0, #1
    6522:	d103      	bne.n	652c <_read_r+0x20>
    6524:	6823      	ldr	r3, [r4, #0]
    6526:	2b00      	cmp	r3, #0
    6528:	d000      	beq.n	652c <_read_r+0x20>
    652a:	602b      	str	r3, [r5, #0]
    652c:	bd70      	pop	{r4, r5, r6, pc}
    652e:	46c0      	nop			; (mov r8, r8)
    6530:	20003f80 	.word	0x20003f80
    6534:	42000000 	.word	0x42000000
    6538:	42000400 	.word	0x42000400
    653c:	42000800 	.word	0x42000800
    6540:	42000c00 	.word	0x42000c00
    6544:	42001000 	.word	0x42001000
    6548:	43000400 	.word	0x43000400
    654c:	454c4449 	.word	0x454c4449
    6550:	00000000 	.word	0x00000000
    6554:	00002240 	.word	0x00002240
    6558:	00002240 	.word	0x00002240
    655c:	00002240 	.word	0x00002240
    6560:	000022a2 	.word	0x000022a2
    6564:	00002282 	.word	0x00002282
    6568:	0000229c 	.word	0x0000229c
    656c:	00002240 	.word	0x00002240
    6570:	00002240 	.word	0x00002240
    6574:	000022a2 	.word	0x000022a2
    6578:	00002282 	.word	0x00002282
    657c:	20726d54 	.word	0x20726d54
    6580:	00637653 	.word	0x00637653
    6584:	0b0a0908 	.word	0x0b0a0908
    6588:	00000d0c 	.word	0x00000d0c
    658c:	00002cfe 	.word	0x00002cfe
    6590:	00002f3c 	.word	0x00002f3c
    6594:	00002f3c 	.word	0x00002f3c
    6598:	00002f3c 	.word	0x00002f3c
    659c:	00002f3c 	.word	0x00002f3c
    65a0:	00002f3c 	.word	0x00002f3c
    65a4:	00002f3c 	.word	0x00002f3c
    65a8:	00002f3c 	.word	0x00002f3c
    65ac:	00002f3c 	.word	0x00002f3c
    65b0:	00002f3c 	.word	0x00002f3c
    65b4:	00002f3c 	.word	0x00002f3c
    65b8:	00002f3c 	.word	0x00002f3c
    65bc:	00002f3c 	.word	0x00002f3c
    65c0:	00002f3c 	.word	0x00002f3c
    65c4:	00002f3c 	.word	0x00002f3c
    65c8:	00002f3c 	.word	0x00002f3c
    65cc:	00002ce6 	.word	0x00002ce6
    65d0:	00002f3c 	.word	0x00002f3c
    65d4:	00002f3c 	.word	0x00002f3c
    65d8:	00002f3c 	.word	0x00002f3c
    65dc:	00002f3c 	.word	0x00002f3c
    65e0:	00002f3c 	.word	0x00002f3c
    65e4:	00002f3c 	.word	0x00002f3c
    65e8:	00002f3c 	.word	0x00002f3c
    65ec:	00002f3c 	.word	0x00002f3c
    65f0:	00002f3c 	.word	0x00002f3c
    65f4:	00002f3c 	.word	0x00002f3c
    65f8:	00002f3c 	.word	0x00002f3c
    65fc:	00002f3c 	.word	0x00002f3c
    6600:	00002f3c 	.word	0x00002f3c
    6604:	00002f3c 	.word	0x00002f3c
    6608:	00002f3c 	.word	0x00002f3c
    660c:	00002cf6 	.word	0x00002cf6
    6610:	00002f3c 	.word	0x00002f3c
    6614:	00002f3c 	.word	0x00002f3c
    6618:	00002f3c 	.word	0x00002f3c
    661c:	00002f3c 	.word	0x00002f3c
    6620:	00002f3c 	.word	0x00002f3c
    6624:	00002f3c 	.word	0x00002f3c
    6628:	00002f3c 	.word	0x00002f3c
    662c:	00002f3c 	.word	0x00002f3c
    6630:	00002f3c 	.word	0x00002f3c
    6634:	00002f3c 	.word	0x00002f3c
    6638:	00002f3c 	.word	0x00002f3c
    663c:	00002f3c 	.word	0x00002f3c
    6640:	00002f3c 	.word	0x00002f3c
    6644:	00002f3c 	.word	0x00002f3c
    6648:	00002f3c 	.word	0x00002f3c
    664c:	00002cee 	.word	0x00002cee
    6650:	00002d06 	.word	0x00002d06
    6654:	00002cce 	.word	0x00002cce
    6658:	00002cde 	.word	0x00002cde
    665c:	00002cd6 	.word	0x00002cd6
    6660:	00000002 	.word	0x00000002
    6664:	00000003 	.word	0x00000003
    6668:	00000028 	.word	0x00000028
    666c:	00000029 	.word	0x00000029
    6670:	00000004 	.word	0x00000004
    6674:	00000005 	.word	0x00000005
    6678:	00000006 	.word	0x00000006
    667c:	00000007 	.word	0x00000007
    6680:	00000020 	.word	0x00000020
    6684:	00000021 	.word	0x00000021
    6688:	00000022 	.word	0x00000022
    668c:	00000023 	.word	0x00000023
    6690:	00000024 	.word	0x00000024
    6694:	00000025 	.word	0x00000025
    6698:	00000026 	.word	0x00000026
    669c:	00000027 	.word	0x00000027
    66a0:	00000008 	.word	0x00000008
    66a4:	00000009 	.word	0x00000009
    66a8:	0000000a 	.word	0x0000000a
    66ac:	0000000b 	.word	0x0000000b
    66b0:	0000ffff 	.word	0x0000ffff
    66b4:	0000ffff 	.word	0x0000ffff
    66b8:	0000ffff 	.word	0x0000ffff
    66bc:	0000ffff 	.word	0x0000ffff
    66c0:	000031ce 	.word	0x000031ce
    66c4:	000031ca 	.word	0x000031ca
    66c8:	000031ca 	.word	0x000031ca
    66cc:	0000322c 	.word	0x0000322c
    66d0:	0000322c 	.word	0x0000322c
    66d4:	000031e4 	.word	0x000031e4
    66d8:	000031d4 	.word	0x000031d4
    66dc:	000031ea 	.word	0x000031ea
    66e0:	0000321a 	.word	0x0000321a
    66e4:	00003dce 	.word	0x00003dce
    66e8:	00003dce 	.word	0x00003dce
    66ec:	00003da4 	.word	0x00003da4
    66f0:	00003daa 	.word	0x00003daa
    66f4:	00003db0 	.word	0x00003db0
    66f8:	00003db6 	.word	0x00003db6
    66fc:	00003dbc 	.word	0x00003dbc
    6700:	00003dc2 	.word	0x00003dc2
    6704:	00003dc8 	.word	0x00003dc8
    6708:	6e69614d 	.word	0x6e69614d
    670c:	00000000 	.word	0x00000000
    6710:	54524155 	.word	0x54524155
    6714:	00000000 	.word	0x00000000
    6718:	00004c40 	.word	0x00004c40
    671c:	00004b0e 	.word	0x00004b0e
    6720:	00004c14 	.word	0x00004c14
    6724:	00004b04 	.word	0x00004b04
    6728:	00004c14 	.word	0x00004c14
    672c:	00004c1e 	.word	0x00004c1e
    6730:	00004c14 	.word	0x00004c14
    6734:	00004b04 	.word	0x00004b04
    6738:	00004b0e 	.word	0x00004b0e
    673c:	00004b0e 	.word	0x00004b0e
    6740:	00004c1e 	.word	0x00004c1e
    6744:	00004b04 	.word	0x00004b04
    6748:	00004afa 	.word	0x00004afa
    674c:	00004afa 	.word	0x00004afa
    6750:	00004afa 	.word	0x00004afa
    6754:	00004e70 	.word	0x00004e70
    6758:	0000526c 	.word	0x0000526c
    675c:	0000512c 	.word	0x0000512c
    6760:	0000512c 	.word	0x0000512c
    6764:	0000512a 	.word	0x0000512a
    6768:	00005244 	.word	0x00005244
    676c:	00005244 	.word	0x00005244
    6770:	00005236 	.word	0x00005236
    6774:	0000512a 	.word	0x0000512a
    6778:	00005244 	.word	0x00005244
    677c:	00005236 	.word	0x00005236
    6780:	00005244 	.word	0x00005244
    6784:	0000512a 	.word	0x0000512a
    6788:	0000524c 	.word	0x0000524c
    678c:	0000524c 	.word	0x0000524c
    6790:	0000524c 	.word	0x0000524c
    6794:	0000544c 	.word	0x0000544c
    6798:	00000043 	.word	0x00000043

0000679c <_global_impure_ptr>:
    679c:	20000028                                (.. 

000067a0 <__sf_fake_stdin>:
	...

000067c0 <__sf_fake_stdout>:
	...

000067e0 <__sf_fake_stderr>:
	...

00006800 <_init>:
    6800:	b5f8      	push	{r3, r4, r5, r6, r7, lr}
    6802:	46c0      	nop			; (mov r8, r8)
    6804:	bcf8      	pop	{r3, r4, r5, r6, r7}
    6806:	bc08      	pop	{r3}
    6808:	469e      	mov	lr, r3
    680a:	4770      	bx	lr

0000680c <__init_array_start>:
    680c:	000000dd 	.word	0x000000dd

00006810 <_fini>:
    6810:	b5f8      	push	{r3, r4, r5, r6, r7, lr}
    6812:	46c0      	nop			; (mov r8, r8)
    6814:	bcf8      	pop	{r3, r4, r5, r6, r7}
    6816:	bc08      	pop	{r3}
    6818:	469e      	mov	lr, r3
    681a:	4770      	bx	lr

0000681c <__fini_array_start>:
    681c:	000000b5 	.word	0x000000b5
